(dp1
S'typeToken'
p2
(lp3
F0.13241
aF0.071167999999999995
aF0.239896
aF0.18591199999999999
aF0.33545000000000003
aF0.17438899999999999
aF0.356794
aF0.20605100000000001
aF0.211311
aF0.38866400000000001
aF0.39697700000000002
aF0.332957
aF0.39226899999999998
aF0.23558399999999999
aF0.25794400000000001
aF0.27549000000000001
aF0.36024899999999999
aF0.21073600000000001
aF0.29309000000000002
aF0.209562
aF0.31904399999999999
aF0.23647499999999999
aF0.31150600000000001
aF0.28617900000000002
aF0.25078899999999998
aF0.284972
aF0.096389000000000002
aF0.26028699999999999
aF0.126997
aF0.374222
aF0.27334900000000001
aF0.28668199999999999
aF0.23746300000000001
aF0.25453900000000002
aF0.38010100000000002
aF0.25874399999999997
aF0.115494
aF0.188254
aF0.256133
aF0.052891000000000001
aF0.234539
aF0.156559
aF0.23053299999999999
aF0.240118
aF0.22568199999999999
aF0.28037400000000001
aF0.26196999999999998
aF0.070919999999999997
aF0.28921400000000003
aF0.34004800000000002
aF0.225526
aF0.105514
aF0.35142000000000001
aF0.24301400000000001
aF0.11843099999999999
aF0.25388300000000003
aF0.12417400000000001
aF0.079268000000000005
aF0.31211
aF0.51743099999999997
aF0.302645
aF0.28363699999999997
aF0.098877999999999994
aF0.13899800000000001
aF0.038979
aF0.23111599999999999
aF0.24082400000000001
aF0.24366599999999999
aF0.10280300000000001
aF0.28253299999999998
aF0.117907
aF0.24216099999999999
aF0.12708900000000001
aF0.19988700000000001
aF0.191967
aF0.11834699999999999
aF0.117075
aF0.39907300000000001
aF0.142952
aF0.16269800000000001
aF0.29616100000000001
aF0.049044999999999998
aF0.22675699999999999
aF0.290765
aF0.33078099999999999
aF0.13678100000000001
aF0.32093899999999997
aF0.186754
aF0.075843999999999995
aF0.26868700000000001
aF0.22805800000000001
aF0.33548800000000001
aF0.14856900000000001
aF0.21513499999999999
aF0.1201
aF0.28614600000000001
aF0.32990599999999998
aF0.198266
aF0.33298299999999997
aF0.23435500000000001
aF0.28046500000000002
aF0.21740300000000001
aF0.25844899999999998
aF0.238093
aF0.018828999999999999
aF0.234538
aF0.17054800000000001
aF0.22343399999999999
aF0.17586099999999999
aF0.14288799999999999
aF0.1124
aF0.085906999999999997
aF0.37499100000000002
aF0.021826000000000002
aF0.26774199999999998
aF0.21413199999999999
aF0.066536999999999999
aF0.260131
aF0.218335
aF0.31461
aF0.25130799999999998
aF0.029673000000000001
aF0.365319
aF0.206118
aF0.18390200000000001
aF0.27683799999999997
aF0.234906
aF0.16736300000000001
aF0.214196
aF0.21762300000000001
aF0.11189399999999999
aF0.031343999999999997
aF0.14366300000000001
aF0.47595500000000002
aF0.26149299999999998
aF0.195886
aF0.23847199999999999
aF0.35328100000000001
aF0.37688199999999999
aF0.43834699999999999
aF0.31454399999999999
aF0.30249999999999999
aF0.20733099999999999
aF0.25565500000000002
aF0.23086499999999999
aF0.090205999999999995
aF0.43442799999999998
aF0.215061
aF0.108469
aF0.23685899999999999
aF0.23344300000000001
aF0.52365799999999996
aF0.095798999999999995
aF0.23956
aF0.14862400000000001
aF0.22690099999999999
aF0.078601000000000004
aF0.22548399999999999
aF0.21243100000000001
aF0.088336999999999999
aF0.22448399999999999
aF0.48078900000000002
aF0.14354800000000001
aF0.200015
aF0.070176000000000002
aF0.207064
aF0.27026499999999998
aF0.136766
aF0.24357000000000001
aF0.26470700000000003
aF0.12765599999999999
aF0.210896
aF0.21021799999999999
aF0.133823
aF0.28039399999999998
aF0.28092
aF0.19281799999999999
aF0.23353399999999999
aF0.58458600000000005
aF0.25453900000000002
aF0.30151600000000001
aF0.13861999999999999
aF0.284111
aF0.30087900000000001
aF0.038412000000000002
aF0.16098699999999999
aF0.232594
aF0.034665000000000001
aF0.16821700000000001
aF0.217834
aF0.29375000000000001
aF0.037486999999999999
aF0.128416
aF0.44781399999999999
aF0.24726100000000001
aF0.189445
aF0.129409
aF0.43087199999999998
aF0.16640099999999999
aF0.028753999999999998
aF0.223524
aF0.29780000000000001
aF0.10688499999999999
aF0.026454999999999999
aF0.025832000000000001
aF0.23244000000000001
aF0.202074
aF0.19547300000000001
aF0.139678
aF0.34405599999999997
aF0.133327
aF0.23997599999999999
aF0.30254900000000001
aF0.230633
aF0.253778
aF0.177483
aF0.241235
aF0.35585299999999997
aF0.152611
aF0.25252799999999997
aF0.0258
aF0.085256999999999999
aF0.046671999999999998
aF0.14172499999999999
aF0.29601899999999998
aF0.18166299999999999
aF0.103966
aF0.162548
aF0.18953700000000001
aF0.23052700000000001
aF0.34488799999999997
aF0.157334
aF0.28867300000000001
aF0.19808799999999999
aF0.126112
aF0.368259
aF0.16205700000000001
aF0.27905999999999997
aF0.31304199999999999
aF0.291238
aF0.304396
aF0.35328900000000002
aF0.41742499999999999
aF0.19175200000000001
aF0.30316700000000002
aF0.023890000000000002
aF0.43512899999999999
aF0.26437300000000002
aF0.34938599999999997
aF0.12847800000000001
aF0.024562
aF0.041368000000000002
aF0.26218599999999997
aF0.043184
aF0.15069399999999999
aF0.231099
aF0.19439899999999999
aF0.018676000000000002
aF0.29882199999999998
aF0.16623399999999999
aF0.030665000000000001
aF0.22248999999999999
aF0.207847
aF0.32310499999999998
aF0.14913699999999999
aF0.223743
aF0.29440499999999997
aF0.033302999999999999
aF0.036117999999999997
aF0.31383100000000003
aF0.33934199999999998
aF0.015410999999999999
aF0.022527999999999999
aF0.217866
aF0.222188
aF0.091947000000000001
aF0.217837
aF0.202378
aF0.14871799999999999
aF0.30137799999999998
aF0.099379999999999996
aF0.20344000000000001
aF0.19702800000000001
aF0.12875
aF0.073825000000000002
aF0.099021999999999999
aF0.22540399999999999
aF0.084793999999999994
aF0.23574300000000001
aF0.145562
aF0.089442999999999995
aF0.237956
aF0.16787199999999999
aF0.25118200000000002
aF0.068152000000000004
aF0.21677299999999999
aF0.108166
aF0.25983699999999998
aF0.054723000000000001
aF0.050123000000000001
aF0.050243000000000003
aF0.086346999999999993
aF0.22454099999999999
aF0.13644300000000001
aF0.30565500000000001
aF0.41692600000000002
aF0.23244100000000001
aF0.231596
aF0.26242900000000002
aF0.48002899999999998
aF0.23890900000000001
aF0.224523
aF0.236432
aF0.24740300000000001
aF0.034396000000000003
aF0.119283
aF0.37696400000000002
aF0.23170099999999999
aF0.055025999999999999
aF0.23619599999999999
aF0.26916099999999998
aF0.15070800000000001
aF0.078085000000000002
aF0.135375
aF0.080359
aF0.116371
aF0.22098999999999999
aF0.132216
aF0.450461
aF0.26682800000000001
aF0.1101
aF0.089216000000000004
aF0.237371
aF0.085097999999999993
aF0.160501
aF0.069958000000000006
aF0.139294
aF0.25775100000000001
aF0.034247
aF0.33203199999999999
aF0.13705500000000001
aF0.12306300000000001
aF0.072815000000000005
aF0.22125600000000001
aF0.22681999999999999
aF0.062427999999999997
aF0.110696
aF0.212258
aF0.082868999999999998
aF0.056249
aF0.30608800000000003
aF0.31463099999999999
aF0.25575700000000001
aF0.30867499999999998
aF0.27260899999999999
aF0.291578
aF0.16203999999999999
aF0.138243
aF0.115589
aF0.10102
aF0.19446099999999999
aF0.146291
aF0.114121
aF0.13872599999999999
aF0.29681200000000002
aF0.28306300000000001
aF0.326235
aF0.12368800000000001
aF0.27573599999999998
aF0.38827
aF0.097507999999999997
aF0.42678100000000002
aF0.24970899999999999
aF0.27227499999999999
aF0.112773
aF0.07356
aF0.24113599999999999
aF0.208894
aF0.19032099999999999
aF0.070344000000000004
aF0.37359700000000001
aF0.183785
aF0.123734
aF0.15373600000000001
aF0.15885199999999999
aF0.051159000000000003
aF0.22397900000000001
aF0.096303
aF0.045666999999999999
aF0.117727
aF0.103715
aF0.038984999999999999
aF0.46336100000000002
aF0.21266399999999999
aF0.26563900000000001
aF0.375643
aF0.038060999999999998
aF0.054808999999999997
aF0.180282
aF0.051957999999999997
aF0.24324000000000001
aF0.18664700000000001
aF0.033009999999999998
aF0.18713099999999999
aF0.529887
aF0.57206400000000002
aF0.12736800000000001
aF0.215528
aF0.280669
aF0.243148
aF0.45619399999999999
aF0.245701
aF0.027137999999999999
aF0.050443000000000002
aF0.31651499999999999
aF0.23916599999999999
aF0.21176900000000001
aF0.112695
aF0.15046399999999999
aF0.19939200000000001
aF0.23025899999999999
aF0.179367
aF0.22376799999999999
aF0.18310399999999999
aF0.246285
aF0.37200699999999998
aF0.25566499999999998
aF0.14998400000000001
aF0.23503299999999999
aF0.13814100000000001
aF0.22264800000000001
aF0.246725
aF0.37025799999999998
aF0.16392000000000001
aF0.25436599999999998
aF0.15194299999999999
aF0.24729499999999999
aF0.14502899999999999
aF0.41265600000000002
aF0.210288
aF0.177483
aF0.23551800000000001
aF0.012343
aF0.018194999999999999
aF0.163967
aF0.26360699999999998
aF0.173239
aF0.163304
aF0.27681699999999998
aF0.25846599999999997
aF0.291935
aF0.23144200000000001
aF0.48669600000000002
aF0.19945299999999999
aF0.243363
aF0.278615
aF0.21427199999999999
aF0.35565099999999999
aF0.39229599999999998
aF0.20924999999999999
aF0.37858700000000001
aF0.25972299999999998
aF0.122519
aF0.21979399999999999
aF0.216312
aF0.065669000000000005
aF0.529169
aF0.14976500000000001
aF0.18934300000000001
aF0.35493799999999998
aF0.40482099999999999
aF0.088814000000000004
aF0.15751000000000001
aF0.484844
aF0.135992
aF0.25082599999999999
aF0.24487900000000001
aF0.23003399999999999
aF0.28279199999999999
aF0.29170200000000002
aF0.20643
aF0.340499
aF0.27576899999999999
aF0.061254999999999997
aF0.12417
aF0.31210500000000002
aF0.296373
aF0.29861900000000002
aF0.19779099999999999
aF0.20002700000000001
aF0.221775
aF0.12088500000000001
aF0.22864499999999999
aF0.180648
aF0.29633300000000001
aF0.234629
aF0.19882900000000001
aF0.214918
aF0.068887000000000004
aF0.26424199999999998
aF0.27471800000000002
aF0.31346400000000002
aF0.24981200000000001
aF0.149979
aF0.22664500000000001
aF0.21925700000000001
aF0.21609100000000001
aF0.069861999999999994
aF0.17035800000000001
aF0.36124499999999998
aF0.111459
aF0.18693899999999999
aF0.092941999999999997
aF0.28179500000000002
aF0.24057000000000001
aF0.12187099999999999
aF0.30685299999999999
aF0.151201
aF0.17900099999999999
aF0.20349700000000001
aF0.230154
aF0.22609499999999999
aF0.057928
aF0.35644599999999999
aF0.12439600000000001
aF0.089839000000000002
aF0.093228000000000005
aF0.20988799999999999
aF0.19259299999999999
aF0.172929
aF0.22755500000000001
aF0.16554099999999999
aF0.16564799999999999
aF0.107851
aF0.25799100000000003
aF0.32131599999999999
aF0.088766999999999999
aF0.14418400000000001
aF0.057964000000000002
aF0.26544699999999999
aF0.055160000000000001
aF0.28211199999999997
aF0.076163999999999996
aF0.205704
aF0.13682800000000001
aF0.19565199999999999
aF0.16405700000000001
aF0.13486799999999999
aF0.22191900000000001
aF0.35175600000000001
aF0.55942199999999997
aF0.115623
aF0.12956400000000001
aF0.084986000000000006
aF0.032615999999999999
aF0.225656
aF0.21904299999999999
aF0.330318
aF0.066594
aF0.19336200000000001
aF0.19382099999999999
aF0.32392100000000001
aF0.32253399999999999
aF0.22387699999999999
aF0.12672600000000001
aF0.112784
aF0.029333000000000001
aF0.216003
aF0.29681200000000002
aF0.045260000000000002
aF0.149173
aF0.229514
aF0.25983699999999998
aF0.450407
aF0.14979999999999999
aF0.22348899999999999
aF0.237427
aF0.334845
aF0.32705000000000001
aF0.322274
aF0.196217
aF0.208313
aF0.24731600000000001
aF0.17152000000000001
aF0.30604799999999999
aF0.122339
aF0.149865
aF0.27413100000000001
aF0.16140699999999999
aF0.207763
aF0.092897999999999994
aF0.20377899999999999
aF0.31783099999999997
aF0.33934199999999998
aF0.17374899999999999
aF0.28392400000000001
aF0.16423699999999999
aF0.123483
aF0.426006
aF0.14566799999999999
aF0.026657
aF0.12648699999999999
aF0.24218700000000001
aF0.242227
aF0.19872000000000001
aF0.035914000000000001
aF0.124816
aF0.14293500000000001
aF0.230739
aF0.028431999999999999
aF0.034613999999999999
aF0.189888
aF0.065694000000000002
aF0.029790000000000001
aF0.075549000000000005
aF0.30148599999999998
aF0.140704
aF0.092304999999999998
aF0.054036000000000001
aF0.19253200000000001
aF0.038503999999999997
aF0.32989200000000002
aF0.24901300000000001
aF0.121003
aF0.039392999999999997
aF0.14580199999999999
aF0.29900500000000002
aF0.53666199999999997
aF0.12489699999999999
aF0.162129
aF0.347802
aF0.142203
aF0.31281399999999998
aF0.25138500000000003
aF0.19368099999999999
aF0.58952700000000002
aF0.103037
aF0.14865100000000001
aF0.22381799999999999
aF0.218721
aF0.52512999999999999
aF0.19073899999999999
aF0.23402999999999999
aF0.26567400000000002
aF0.14891799999999999
aF0.267704
aF0.24696299999999999
aF0.23694499999999999
aF0.25779600000000003
aF0.25250099999999998
aF0.21599599999999999
aF0.28286
aF0.124913
aF0.19173899999999999
aF0.188973
aF0.22093499999999999
aF0.23366899999999999
aF0.35576799999999997
aF0.153562
aF0.12504100000000001
aF0.69108000000000003
aF0.13759299999999999
aF0.66434099999999996
aF0.095477999999999993
aF0.13566800000000001
aF0.188944
aF0.296684
aF0.082419999999999993
aF0.20308599999999999
aF0.26966899999999999
aF0.251946
aF0.084931000000000006
aF0.40007799999999999
aF0.40798499999999999
aF0.65975799999999996
aF0.051441000000000001
aF0.26337899999999997
aF0.233963
aF0.381102
aF0.15915399999999999
aF0.412578
aF0.27460600000000002
aF0.052212000000000001
aF0.33174700000000001
aF0.02998
aF0.23100200000000001
aF0.083291000000000004
aF0.23705100000000001
aF0.41504600000000003
aF0.29102800000000001
aF0.18948799999999999
aF0.17801500000000001
aF0.231348
aF0.126219
aF0.162387
aF0.18288199999999999
aF0.230797
aF0.16458800000000001
aF0.243671
aF0.34668300000000002
aF0.042612999999999998
aF0.185751
aF0.074329999999999993
aF0.22961100000000001
aF0.38593499999999997
aF0.15737200000000001
aF0.28722199999999998
aF0.18223600000000001
aF0.218441
aF0.226106
aF0.15315100000000001
aF0.12547700000000001
aF0.339449
aF0.118154
aF0.33682299999999998
aF0.28325099999999998
aF0.21685499999999999
aF0.26612000000000002
aF0.030637000000000001
aF0.14279700000000001
aF0.14269699999999999
aF0.23200399999999999
aF0.12781100000000001
aF0.24968599999999999
aF0.29067999999999999
aF0.15054400000000001
aF0.244336
aF0.23336499999999999
aF0.26385900000000001
aF0.26616899999999999
aF0.013275
aF0.073433999999999999
aF0.204432
aF0.23632300000000001
aF0.27243099999999998
aF0.13325899999999999
aF0.22126199999999999
aF0.18610499999999999
aF0.105878
aF0.25445400000000001
aF0.110846
aF0.19677700000000001
aF0.188642
aF0.092237
aF0.25198999999999999
aF0.180064
aF0.074223999999999998
aF0.22500700000000001
aF0.22298999999999999
aF0.20577100000000001
aF0.28333399999999997
aF0.071378999999999998
aF0.278082
aF0.230213
aF0.096116999999999994
aF0.29925000000000002
aF0.20071800000000001
aF0.21110799999999999
aF0.073033000000000001
aF0.040536000000000003
aF0.22515299999999999
aF0.17688699999999999
aF0.19814300000000001
aF0.189192
aF0.20339499999999999
aF0.14213300000000001
aF0.38776699999999997
aF0.031973000000000001
aF0.29807699999999998
aF0.141204
aF0.23505799999999999
aF0.285856
aF0.196799
aF0.063936000000000007
aF0.054783999999999999
aF0.16473299999999999
aF0.066692000000000001
aF0.013140000000000001
aF0.26772800000000002
aF0.111815
aF0.295261
aF0.14161399999999999
aF0.12488200000000001
aF0.26213500000000001
aF0.100663
aF0.056873
aF0.23918500000000001
aF0.220612
aF0.067416000000000004
aF0.018627999999999999
aF0.165017
aF0.206978
aF0.068070000000000006
aF0.57857899999999995
aF0.236564
aF0.318577
aF0.117897
aF0.31938299999999997
aF0.232767
aF0.15931600000000001
aF0.29485499999999998
aF0.032217000000000003
aF0.063202999999999995
aF0.028379999999999999
aF0.066219
aF0.164441
aF0.060732000000000001
aF0.16586000000000001
aF0.10398300000000001
aF0.053123999999999998
aF0.14168700000000001
aF0.044879000000000002
aF0.032624
aF0.100717
aF0.113081
aF0.12826399999999999
aF0.083249000000000004
aF0.25814500000000001
aF0.218501
aF0.099268999999999996
aF0.196218
aF0.091930999999999999
aF0.079667000000000002
aF0.130214
aF0.208121
aF0.24104300000000001
aF0.122821
aF0.19841800000000001
aF0.012779
aF0.227744
aF0.052123000000000003
aF0.15914500000000001
aF0.23947599999999999
aF0.17796899999999999
aF0.164937
aF0.28902299999999997
aF0.22319700000000001
aF0.166215
aF0.060278999999999999
aF0.232687
aF0.22511700000000001
aF0.173761
aF0.21346300000000001
aF0.123545
aF0.013837
aF0.24343600000000001
aF0.21110100000000001
aF0.102434
aF0.270733
aF0.082550999999999999
aF0.29872799999999999
aF0.24427599999999999
aF0.24060799999999999
aF0.115595
aF0.051494999999999999
aF0.28240500000000002
aF0.14993400000000001
aF0.290632
aF0.39495200000000003
aF0.10942499999999999
aF0.21162500000000001
aF0.34350700000000001
aF0.270872
aF0.215586
aF0.24387400000000001
aF0.019737999999999999
aF0.17619499999999999
aF0.33191599999999999
aF0.10259600000000001
aF0.057917999999999997
aF0.208344
aF0.29821199999999998
aF0.37525500000000001
aF0.16980000000000001
aF0.30035000000000001
aF0.18621099999999999
aF0.02409
aF0.282584
aF0.31506899999999999
aF0.20216799999999999
aF0.209066
aF0.38464799999999999
aF0.22903299999999999
aF0.251054
aF0.16653399999999999
aF0.26109700000000002
aF0.267096
aF0.21305399999999999
aF0.14437900000000001
aF0.046984999999999999
aF0.137159
aF0.185695
aF0.041633000000000003
aF0.21185599999999999
aF0.199212
aF0.61220200000000002
aF0.28174900000000003
aF0.14186799999999999
aF0.108005
aF0.43479099999999998
aF0.163162
aF0.242228
aF0.068507999999999999
aF0.111459
aF0.16206799999999999
aF0.35204200000000002
aF0.19611899999999999
aF0.29892299999999999
aF0.22379599999999999
aF0.306419
aF0.21745800000000001
aF0.221861
aF0.173319
aF0.219774
aF0.22889799999999999
aF0.137907
aF0.13655300000000001
aF0.118717
aF0.29446699999999998
aF0.058158000000000001
aF0.172094
aF0.160744
aF0.26652999999999999
aF0.240624
aF0.36223499999999997
aF0.034672000000000001
aF0.088155999999999998
aF0.28195500000000001
aF0.242699
aF0.26189200000000001
aF0.24745200000000001
aF0.223382
aF0.51495400000000002
aF0.31895000000000001
aF0.30086000000000002
aF0.13686100000000001
aF0.25274600000000003
aF0.409246
aF0.131049
aF0.233455
aF0.099769999999999998
aF0.117594
aF0.25548700000000002
aF0.070443000000000006
aF0.27605800000000003
aF0.030849999999999999
aF0.19591600000000001
aF0.244807
aF0.23222999999999999
aF0.107292
aF0.22402900000000001
aF0.26275500000000002
aF0.13072800000000001
aF0.058049999999999997
aF0.148919
aF0.071666999999999995
aF0.12770899999999999
aF0.30344900000000002
aF0.161161
aF0.535354
aF0.22487099999999999
aF0.24093999999999999
aF0.048112000000000002
aF0.085653000000000007
aF0.14810100000000001
aF0.24029500000000001
aF0.18801799999999999
aF0.30095
aF0.113412
aF0.18182599999999999
aF0.19747200000000001
aF0.27068399999999998
aF0.094937999999999995
aF0.18751799999999999
aF0.16636400000000001
aF0.34808
aF0.31943700000000003
aF0.129776
aF0.24507200000000001
aF0.089331999999999995
aF0.20488899999999999
aF0.31865599999999999
aF0.157747
aF0.30778100000000003
aF0.219138
aF0.10974399999999999
aF0.44102000000000002
aF0.065081
aF0.124391
aF0.051992999999999998
aF0.16275500000000001
aF0.110087
aF0.21356900000000001
aF0.075463000000000002
aF0.27734700000000001
aF0.017923000000000001
aF0.248918
aF0.040245999999999997
aF0.25320500000000001
aF0.24053099999999999
as.