(dp1
S'EntropyNorm'
p2
(lp3
F9.3800000000000008
aF6.2999999999999998
aF4.6299999999999999
aF6.6699999999999999
aF7.79
aF9.0500000000000007
aF9.3200000000000003
aF7.4100000000000001
aF8.6999999999999993
aF6.7999999999999998
aF5.1699999999999999
aF6.1299999999999999
aF5.5700000000000003
aF6.0800000000000001
aF6.3799999999999999
aF5.8099999999999996
aF7.3399999999999999
aF5.96
aF6.3700000000000001
aF6.2000000000000002
aF6.6500000000000004
aF7.6299999999999999
aF7.9900000000000002
aF8.0199999999999996
aF6.5800000000000001
aF7.1699999999999999
aF5.0999999999999996
aF6.5199999999999996
aF6.4699999999999998
aF6.5800000000000001
aF5.1600000000000001
aF9.0199999999999996
aF6.25
aF6.2599999999999998
aF6.6699999999999999
aF7.6699999999999999
aF6.6600000000000001
aF6.3099999999999996
aF3.3199999999999998
aF6.3600000000000003
aF5.5700000000000003
aF6.4699999999999998
aF5.7400000000000002
aF8.2599999999999998
aF5.9699999999999998
aF9.1300000000000008
aF7.8700000000000001
aF7.2800000000000002
aF8.1400000000000006
aF7.6699999999999999
aF6.29
aF8.0299999999999994
aF6.1500000000000004
aF6.9900000000000002
aF6.25
aF8.0999999999999996
aF6.6900000000000004
aF8.0199999999999996
aF9.3100000000000005
aF7.0999999999999996
aF6.4100000000000001
aF7.0499999999999998
aF7.6399999999999997
aF6.79
aF1.4099999999999999
aF7.4100000000000001
aF7.4299999999999997
aF7.0300000000000002
aF7.4100000000000001
aF6.5599999999999996
aF7.4500000000000002
aF8.1600000000000001
aF4.1900000000000004
aF5.8399999999999999
aF7.1600000000000001
aF5.4900000000000002
aF5.3099999999999996
aF6.9800000000000004
aF5.6500000000000004
aF7.0300000000000002
aF7.6299999999999999
aF9.0999999999999996
aF5.7699999999999996
aF7.0300000000000002
aF7.6799999999999997
aF7.0599999999999996
aF6.2699999999999996
aF7.5899999999999999
aF6.8499999999999996
aF7.7400000000000002
aF6.8300000000000001
aF7.25
aF7.4400000000000004
aF7.7000000000000002
aF3.2999999999999998
aF7.3899999999999997
aF7.5700000000000003
aF6.1200000000000001
aF8.2200000000000006
aF7.8499999999999996
aF6.0899999999999999
aF7.0599999999999996
aF6.7300000000000004
aF7.0499999999999998
aF8.25
aF7.3700000000000001
aF6.0300000000000002
aF7.5999999999999996
aF4.7300000000000004
aF7.7000000000000002
aF6.8499999999999996
aF6.8399999999999999
aF6.3499999999999996
aF7.5199999999999996
aF7.3499999999999996
aF6.29
aF7.7000000000000002
aF6.1200000000000001
aF6.7400000000000002
aF7.7000000000000002
aF6.5899999999999999
aF8.3900000000000006
aF6.0300000000000002
aF6.2999999999999998
aF6.2999999999999998
aF7.0599999999999996
aF7.1200000000000001
aF7.2400000000000002
aF6.4400000000000004
aF6.8399999999999999
aF5.9400000000000004
aF7.0300000000000002
aF6.6299999999999999
aF7.0999999999999996
aF5.5099999999999998
aF7.7000000000000002
aF7.5300000000000002
aF7.0800000000000001
aF6.4000000000000004
aF7.8799999999999999
aF7.8899999999999997
aF7.6399999999999997
aF7.5800000000000001
aF7.0999999999999996
aF7.7699999999999996
aF7.25
aF6.2999999999999998
aF7.7800000000000002
aF2.1699999999999999
aF6.8899999999999997
aF6
aF7.29
aF6.71
aF8.1099999999999994
aF7.3600000000000003
aF7.5300000000000002
aF5.5300000000000002
aF7.0300000000000002
aF7.1799999999999997
aF7.7999999999999998
aF6.3499999999999996
aF7.4500000000000002
aF7.0300000000000002
aF6.9400000000000004
aF6.2800000000000002
aF7.54
aF7.9000000000000004
aF7.0599999999999996
aF6.6500000000000004
aF7.4199999999999999
aF6.3700000000000001
aF7
aF6.6200000000000001
aF7.4100000000000001
aF5.21
aF7.2400000000000002
aF6.3300000000000001
aF7.5099999999999998
aF7.5800000000000001
aF7.29
aF6.8600000000000003
aF7.3799999999999999
aF5.7999999999999998
aF7.1699999999999999
aF6.71
aF7.21
aF5.8899999999999997
aF7.5899999999999999
aF6.7199999999999998
aF7.75
aF5.8700000000000001
aF7.2999999999999998
aF5.7199999999999998
aF7.5
aF7.6600000000000001
aF7.46
aF7.5599999999999996
aF7.3200000000000003
aF6.1600000000000001
aF7.0700000000000003
asS'perplexityNorm'
p4
(lp5
F667.72000000000003
aF79.060000000000002
aF24.760000000000002
aF102.09
aF220.94
aF530.5
aF637.45000000000005
aF169.81999999999999
aF415.06999999999999
aF111.25
aF35.960000000000001
aF69.890000000000001
aF47.490000000000002
aF67.650000000000006
aF83.349999999999994
aF56.159999999999997
aF161.88
aF62.289999999999999
aF82.790000000000006
aF73.299999999999997
aF100.39
aF197.49000000000001
aF254.30000000000001
aF259.36000000000001
aF95.370000000000005
aF144.37
aF34.299999999999997
aF91.980000000000004
aF88.870000000000005
aF95.819999999999993
aF35.68
aF519.77999999999997
aF76.120000000000005
aF76.379999999999995
aF102.13
aF203.93000000000001
aF101.42
aF79.310000000000002
aF10.01
aF82.349999999999994
aF47.390000000000001
aF88.590000000000003
aF53.380000000000003
aF306.66000000000003
aF62.590000000000003
aF560.08000000000004
aF233.75
aF155.16999999999999
aF281.25
aF204.28999999999999
aF77.989999999999995
aF262.27999999999997
aF70.950000000000003
aF126.95999999999999
aF75.890000000000001
aF274.31999999999999
aF103.56
aF258.69
aF633.39999999999998
aF136.84
aF85.120000000000005
aF132.19
aF198.90000000000001
aF110.63
aF2.6600000000000001
aF170.55000000000001
aF172.96000000000001
aF130.24000000000001
aF170
aF94.299999999999997
aF174.71000000000001
aF285.95999999999998
aF18.309999999999999
aF57.359999999999999
aF142.96000000000001
aF45.079999999999998
aF39.640000000000001
aF125.84999999999999
aF50.219999999999999
aF130.36000000000001
aF197.91
aF547.03999999999996
aF54.57
aF130.58000000000001
aF205.72
aF133.78999999999999
aF76.950000000000003
aF192.13
aF114.98
aF213.68000000000001
aF113.7
aF152.72999999999999
aF173.15000000000001
aF208.03
aF9.8399999999999999
aF168.11000000000001
aF189.52000000000001
aF69.530000000000001
aF297.79000000000002
aF231.25
aF68.230000000000004
aF133.65000000000001
aF106
aF132.83000000000001
aF304.76999999999998
aF165.00999999999999
aF65.519999999999996
aF194.5
aF26.57
aF207.84999999999999
aF115.42
aF114.44
aF81.349999999999994
aF183.28999999999999
aF162.69
aF78.150000000000006
aF208.12
aF69.650000000000006
aF106.90000000000001
aF208.61000000000001
aF96.019999999999996
aF334.88999999999999
aF65.200000000000003
aF78.769999999999996
aF79.049999999999997
aF133.55000000000001
aF139.30000000000001
aF151.47
aF86.730000000000004
aF114.45999999999999
aF61.520000000000003
aF130.77000000000001
aF99.189999999999998
aF136.94999999999999
aF45.479999999999997
aF208.22999999999999
aF184.84999999999999
aF135.28999999999999
aF84.5
aF235.88
aF237.31999999999999
aF199.47
aF191.25999999999999
aF137.00999999999999
aF217.55000000000001
aF152.16999999999999
aF78.840000000000003
aF220.09
aF4.5199999999999996
aF118.20999999999999
aF64.010000000000005
aF156.65000000000001
aF104.73
aF276.72000000000003
aF164.13
aF184.5
aF46.359999999999999
aF130.52000000000001
aF144.81
aF222.16
aF81.299999999999997
aF175.38999999999999
aF130.46000000000001
aF122.73999999999999
aF77.939999999999998
aF185.78999999999999
aF238.16
aF133.06999999999999
aF100.5
aF170.77000000000001
aF82.469999999999999
aF127.62
aF98.299999999999997
aF170.41
aF37.090000000000003
aF151.15000000000001
aF80.420000000000002
aF182.40000000000001
aF191.19
aF156.25
aF116.54000000000001
aF166.61000000000001
aF55.759999999999998
aF144.33000000000001
aF105.04000000000001
aF147.71000000000001
aF59.43
aF192.31
aF105.40000000000001
aF214.90000000000001
aF58.380000000000003
aF157.25999999999999
aF52.539999999999999
aF181.09
aF202.31999999999999
aF176.66
aF188.86000000000001
aF159.80000000000001
aF71.719999999999999
aF134.78
as.