(dp1
S'EntropyNorm'
p2
(lp3
F9.3800000000000008
aF6.3300000000000001
aF4.4299999999999997
aF6.6799999999999997
aF7.79
aF9.0500000000000007
aF9.3200000000000003
aF7.4100000000000001
aF8.6999999999999993
aF6.7999999999999998
aF5.2699999999999996
aF6.1200000000000001
aF5.5700000000000003
aF6.0800000000000001
aF6.3899999999999997
aF5.8099999999999996
aF7.2699999999999996
aF5.96
aF6.4400000000000004
aF6.2000000000000002
aF6.6100000000000003
aF7.6200000000000001
aF7.9900000000000002
aF8.0199999999999996
aF6.5700000000000003
aF7.1699999999999999
aF5.1100000000000003
aF6.5199999999999996
aF6.4699999999999998
aF6.5800000000000001
aF5.0999999999999996
aF9.0199999999999996
aF6.25
aF6.2699999999999996
aF6.71
aF7.6699999999999999
aF6.6500000000000004
aF6.3200000000000003
aF3.1800000000000002
aF6.3799999999999999
aF5.6299999999999999
aF6.5300000000000002
aF5.7300000000000004
aF8.2599999999999998
aF5.9199999999999999
aF9.1400000000000006
aF7.8499999999999996
aF7.21
aF8.1400000000000006
aF7.6699999999999999
aF6.29
aF8.0299999999999994
aF6.1600000000000001
aF6.9400000000000004
aF6.2400000000000002
aF8.0899999999999999
aF6.6200000000000001
aF8.0299999999999994
aF9.3100000000000005
aF7.0899999999999999
aF6.3799999999999999
aF7.0199999999999996
aF7.6299999999999999
aF6.8300000000000001
aF1.6200000000000001
aF7.4000000000000004
aF7.4100000000000001
aF7.0599999999999996
aF7.4199999999999999
aF6.5599999999999996
aF7.4299999999999997
aF8.1400000000000006
aF4.25
aF5.8700000000000001
aF7.1600000000000001
aF5.4900000000000002
aF5.3600000000000003
aF6.9400000000000004
aF5.6799999999999997
aF7.0300000000000002
aF7.6699999999999999
aF9.0899999999999999
aF5.7599999999999998
aF7.0300000000000002
aF7.7000000000000002
aF7.1100000000000003
aF6.2599999999999998
aF7.6299999999999999
aF6.8300000000000001
aF7.7599999999999998
aF6.79
aF7.2699999999999996
aF7.4299999999999997
aF7.6699999999999999
aF3.3799999999999999
aF7.3799999999999999
aF7.5800000000000001
aF6.1200000000000001
aF8.2100000000000009
aF7.8499999999999996
aF6.0899999999999999
aF7.0499999999999998
aF6.7000000000000002
aF7.0499999999999998
aF8.2400000000000002
aF7.3899999999999997
aF5.9699999999999998
aF7.5700000000000003
aF4.7800000000000002
aF7.6900000000000004
aF6.8399999999999999
aF6.8499999999999996
aF6.3200000000000003
aF7.4900000000000002
aF7.2800000000000002
aF6.2599999999999998
aF7.71
aF6.1200000000000001
aF6.7300000000000004
aF7.79
aF6.6200000000000001
aF8.3900000000000006
aF6.0300000000000002
aF6.21
aF6.29
aF6.9900000000000002
aF7.1100000000000003
aF7.2400000000000002
aF6.5199999999999996
aF6.8399999999999999
aF5.96
aF6.9900000000000002
aF6.7199999999999998
aF7.0700000000000003
aF5.54
aF7.6900000000000004
aF7.5499999999999998
aF7.0700000000000003
aF6.4500000000000002
aF7.8499999999999996
aF7.9000000000000004
aF7.6399999999999997
aF7.5700000000000003
aF7.0999999999999996
aF7.7400000000000002
aF7.2300000000000004
aF6.3200000000000003
aF7.7800000000000002
aF2.73
aF6.8799999999999999
aF5.9900000000000002
aF7.2699999999999996
aF6.71
aF8.1099999999999994
aF7.3700000000000001
aF7.5199999999999996
aF5.4800000000000004
aF7
aF7.1600000000000001
aF7.7800000000000002
aF6.3300000000000001
aF7.4400000000000004
aF6.9900000000000002
aF6.9199999999999999
aF6.2400000000000002
aF7.5
aF7.8899999999999997
aF7.04
aF6.6299999999999999
aF7.4100000000000001
aF6.3200000000000003
aF6.9900000000000002
aF6.6399999999999997
aF7.4100000000000001
aF5.2599999999999998
aF7.2300000000000004
aF6.3200000000000003
aF7.5099999999999998
aF7.5800000000000001
aF7.29
aF6.8600000000000003
aF7.3799999999999999
aF5.7699999999999996
aF7.1600000000000001
aF6.6900000000000004
aF7.2000000000000002
aF5.9100000000000001
aF7.5899999999999999
aF6.7199999999999998
aF7.7400000000000002
aF5.8700000000000001
aF7.29
aF5.7300000000000004
aF7.5
aF7.6699999999999999
aF7.4500000000000002
aF7.5800000000000001
aF7.2999999999999998
aF6.1100000000000003
aF7.0700000000000003
asS'perplexityNorm'
p4
(lp5
F667.38999999999999
aF80.310000000000002
aF21.579999999999998
aF102.63
aF220.87
aF529.99000000000001
aF637.33000000000004
aF169.77000000000001
aF414.89999999999998
aF111.29000000000001
aF38.460000000000001
aF69.769999999999996
aF47.439999999999998
aF67.420000000000002
aF83.579999999999998
aF56.149999999999999
aF154.74000000000001
aF62.289999999999999
aF86.599999999999994
aF73.430000000000007
aF97.959999999999994
aF197.06
aF254.15000000000001
aF258.91000000000003
aF95.159999999999997
aF143.97
aF34.539999999999999
aF91.920000000000002
aF88.700000000000003
aF95.680000000000007
aF34.18
aF519.59000000000003
aF76.049999999999997
aF77.269999999999996
aF104.75
aF203.50999999999999
aF100.70999999999999
aF79.950000000000003
aF9.0800000000000001
aF83.25
aF49.590000000000003
aF92.560000000000002
aF53.240000000000002
aF306.64999999999998
aF60.549999999999997
aF562.92999999999995
aF230.18000000000001
aF148.28
aF281.51999999999998
aF204.33000000000001
aF78.109999999999999
aF261.27999999999997
aF71.459999999999994
aF122.87
aF75.799999999999997
aF273.35000000000002
aF98.319999999999993
aF262.02999999999997
aF634.07000000000005
aF135.83000000000001
aF83.25
aF129.47999999999999
aF198.19999999999999
aF113.87
aF3.0600000000000001
aF168.94999999999999
aF170.16
aF133.75999999999999
aF171.75999999999999
aF94.090000000000003
aF172.49000000000001
aF282.49000000000001
aF19.059999999999999
aF58.299999999999997
aF142.65000000000001
aF44.899999999999999
aF41.049999999999997
aF123.02
aF51.109999999999999
aF130.58000000000001
aF203.06
aF546.26999999999998
aF54.340000000000003
aF130.77000000000001
aF207.36000000000001
aF137.81
aF76.390000000000001
aF198.06999999999999
aF113.92
aF216.37
aF111.02
aF154.15000000000001
aF172.00999999999999
aF203.13
aF10.449999999999999
aF166.44
aF191.75999999999999
aF69.480000000000004
aF296.19
aF230.08000000000001
aF67.959999999999994
aF132.84999999999999
aF104.14
aF132.27000000000001
aF302.62
aF167.37
aF62.719999999999999
aF189.87
aF27.57
aF206.12
aF114.64
aF115.38
aF79.780000000000001
aF179.69999999999999
aF155.47
aF76.480000000000004
aF208.66999999999999
aF69.670000000000002
aF106.41
aF221.63
aF98.459999999999994
aF334.62
aF65.560000000000002
aF73.790000000000006
aF78.420000000000002
aF127.5
aF138.59999999999999
aF150.88999999999999
aF91.579999999999998
aF114.48
aF62.100000000000001
aF126.81
aF105.61
aF134.56
aF46.5
aF206.13999999999999
aF187.44
aF134.50999999999999
aF87.459999999999994
aF230.12
aF239.22
aF200.08000000000001
aF189.5
aF137.03999999999999
aF214.12
aF150.5
aF79.700000000000003
aF219.34
aF6.6600000000000001
aF117.64
aF63.350000000000001
aF154.49000000000001
aF104.55
aF275.82999999999998
aF165.12
aF183.66
aF44.689999999999998
aF128.40000000000001
aF143
aF219.77000000000001
aF80.530000000000001
aF174.11000000000001
aF127.45999999999999
aF121.08
aF75.689999999999998
aF181.28
aF236.72
aF131.63
aF98.819999999999993
aF170.31
aF79.810000000000002
aF126.75
aF99.689999999999998
aF169.88999999999999
aF38.240000000000002
aF150.33000000000001
aF79.930000000000007
aF182.88
aF191.22
aF156.68000000000001
aF116.52
aF166.21000000000001
aF54.670000000000002
aF142.59999999999999
aF103.59999999999999
aF147.40000000000001
aF60.009999999999998
aF192.46000000000001
aF105.15000000000001
aF214.03999999999999
aF58.359999999999999
aF156.28999999999999
aF52.990000000000002
aF181.02000000000001
aF203.58000000000001
aF175.36000000000001
aF190.77000000000001
aF157.96000000000001
aF69.099999999999994
aF134.53999999999999
as.