(dp1
S'EntropyNorm'
p2
(lp3
F9.3000000000000007
aF5.9900000000000002
aF5.1900000000000004
aF6.5
aF7.6600000000000001
aF9.0600000000000005
aF9.2699999999999996
aF7.25
aF8.6500000000000004
aF5.8099999999999996
aF5.3099999999999996
aF5.9400000000000004
aF5.7699999999999996
aF5.7199999999999998
aF7.1500000000000004
aF5.8099999999999996
aF7.2699999999999996
aF5.7199999999999998
aF6.5899999999999999
aF6.0300000000000002
aF7.0099999999999998
aF7.1900000000000004
aF7.8499999999999996
aF7.8399999999999999
aF6.8899999999999997
aF6.7599999999999998
aF5.4299999999999997
aF6.29
aF6.2699999999999996
aF6.54
aF5.7199999999999998
aF8.8900000000000006
aF6.3600000000000003
aF6.1799999999999997
aF6.7400000000000002
aF7.5
aF7.2300000000000004
aF6.6399999999999997
aF3.9199999999999999
aF5.8200000000000003
aF6.2199999999999998
aF6.6299999999999999
aF6.1299999999999999
aF8.0999999999999996
aF6.0199999999999996
aF8.4900000000000002
aF7.9400000000000004
aF6.96
aF8.0099999999999998
aF7.4500000000000002
aF6.5300000000000002
aF8
aF6.4100000000000001
aF6.7800000000000002
aF6.4000000000000004
aF7.9199999999999999
aF6.7000000000000002
aF7.75
aF9.3900000000000006
aF6.7999999999999998
aF6.7800000000000002
aF6.7400000000000002
aF7.4900000000000002
aF6.8200000000000003
aF3.52
aF6.7199999999999998
aF7.4800000000000004
aF7.1500000000000004
aF7.3899999999999997
aF6.4400000000000004
aF7.46
aF7.8799999999999999
aF5.6100000000000003
aF5.4900000000000002
aF7.2699999999999996
aF5.0700000000000003
aF5.6900000000000004
aF6.79
aF6.0099999999999998
aF6.5999999999999996
aF7.6100000000000003
aF8.9800000000000004
aF6.1399999999999997
aF6.8399999999999999
aF7.75
aF7.0999999999999996
aF6.5899999999999999
aF7.3099999999999996
aF6.8600000000000003
aF7.5499999999999998
aF7.0199999999999996
aF7.1200000000000001
aF7.4400000000000004
aF7.5199999999999996
aF4.71
aF7.1200000000000001
aF7.6100000000000003
aF5.79
aF8.3000000000000007
aF7.6600000000000001
aF6.5099999999999998
aF6.9199999999999999
aF6.8600000000000003
aF6.8099999999999996
aF8.3300000000000001
aF7.0800000000000001
aF5.9199999999999999
aF7.21
aF5.6399999999999997
aF7.4800000000000004
aF6.9699999999999998
aF6.4299999999999997
aF6.6399999999999997
aF7.46
aF7.4400000000000004
aF6.0700000000000003
aF7.7800000000000002
aF5.9500000000000002
aF6.8200000000000003
aF7.7300000000000004
aF6.9199999999999999
aF8.1500000000000004
aF6.1699999999999999
aF6.1500000000000004
aF6.54
aF6.6600000000000001
aF7.3099999999999996
aF6.8600000000000003
aF6.7400000000000002
aF6.6299999999999999
aF6.2800000000000002
aF6.6500000000000004
aF6.7599999999999998
aF6.9800000000000004
aF6.0700000000000003
aF7.5099999999999998
aF7.8099999999999996
aF6.8899999999999997
aF6.6299999999999999
aF7.5599999999999996
aF7.9500000000000002
aF7.3300000000000001
aF7.5999999999999996
aF6.8399999999999999
aF8.0099999999999998
aF6.9800000000000004
aF6.54
aF7.46
aF5.2699999999999996
aF6.6600000000000001
aF6.1799999999999997
aF7.04
aF7.0199999999999996
aF7.8799999999999999
aF7.4900000000000002
aF7.2300000000000004
aF6.0099999999999998
aF6.8200000000000003
aF7.2699999999999996
aF7.5
aF6.5800000000000001
aF7.1699999999999999
aF7.1799999999999997
aF6.7300000000000004
aF6.4100000000000001
aF7.25
aF8.0399999999999991
aF6.7599999999999998
aF6.8399999999999999
aF7.1900000000000004
aF6.5300000000000002
aF6.7699999999999996
aF6.9500000000000002
aF7.2199999999999998
aF5.9400000000000004
aF7.0700000000000003
aF6.5999999999999996
aF7.2699999999999996
aF7.5599999999999996
aF7.1100000000000003
aF7.21
aF7.0599999999999996
aF6.1399999999999997
aF6.8099999999999996
aF6.71
aF7.0099999999999998
aF6.0800000000000001
aF7.29
aF7.0199999999999996
aF7.5700000000000003
aF6.0899999999999999
aF7.0899999999999999
aF5.9400000000000004
aF7.2300000000000004
aF7.7300000000000004
aF7.2300000000000004
aF7.6799999999999997
aF7.0700000000000003
aF6.5
aF6.8300000000000001
asS'perplexityNorm'
p4
(lp5
F631.71000000000004
aF63.340000000000003
aF36.579999999999998
aF90.810000000000002
aF202.77000000000001
aF532.94000000000005
aF616.85000000000002
aF151.84
aF401.39999999999998
aF56.109999999999999
aF39.789999999999999
aF61.259999999999998
aF54.560000000000002
aF52.780000000000001
aF142.09
aF56.130000000000003
aF154.21000000000001
aF52.780000000000001
aF96.310000000000002
aF65.290000000000006
aF129.12
aF145.84
aF231.25999999999999
aF229.41
aF118.42
aF108.18000000000001
aF43.109999999999999
aF78.030000000000001
aF76.930000000000007
aF92.849999999999994
aF52.609999999999999
aF475.99000000000001
aF82.230000000000004
aF72.700000000000003
aF107.16
aF181.53
aF149.81999999999999
aF99.810000000000002
aF15.119999999999999
aF56.630000000000003
aF74.769999999999996
aF98.959999999999994
aF70.140000000000001
aF274.94999999999999
aF64.939999999999998
aF359.25
aF245.91
aF124.78
aF257.83999999999997
aF174.58000000000001
aF92.579999999999998
aF256.5
aF85.109999999999999
aF109.67
aF84.319999999999993
aF242.81
aF104.27
aF215.44999999999999
aF672.79999999999995
aF111.53
aF110.15000000000001
aF106.67
aF180.16
aF112.97
aF11.449999999999999
aF105.45
aF178.41999999999999
aF142.25999999999999
aF167.33000000000001
aF87
aF176.11000000000001
aF236.27000000000001
aF48.719999999999999
aF44.850000000000001
aF154.78
aF33.479999999999997
aF51.450000000000003
aF110.58
aF64.590000000000003
aF96.989999999999995
aF195.21000000000001
aF505.86000000000001
aF70.430000000000007
aF114.58
aF215
aF136.94
aF96.170000000000002
aF158.66999999999999
aF115.97
aF187.55000000000001
aF129.91999999999999
aF139.37
aF174.16999999999999
aF184.06999999999999
aF26.170000000000002
aF139.55000000000001
aF195.31
aF55.18
aF314.26999999999998
aF202.21000000000001
aF91
aF121.44
aF115.79000000000001
aF112.27
aF321.29000000000002
aF135.25
aF60.530000000000001
aF148.13
aF50.030000000000001
aF178.65000000000001
aF125.06999999999999
aF86.079999999999998
aF99.969999999999999
aF175.66
aF173.13
aF66.989999999999995
aF219.75
aF61.869999999999997
aF112.79000000000001
aF211.91999999999999
aF121.03
aF283.95999999999998
aF71.959999999999994
aF70.980000000000004
aF92.980000000000004
aF101.31999999999999
aF158.63999999999999
aF116.01000000000001
aF106.87
aF98.870000000000005
aF77.909999999999997
aF100.75
aF108.03
aF126.42
aF67.25
aF181.88
aF224.15000000000001
aF118.28
aF98.980000000000004
aF188.31
aF247.22999999999999
aF161.38
aF193.97999999999999
aF114.53
aF257.45999999999998
aF126.36
aF92.840000000000003
aF176.40000000000001
aF38.57
aF101.2
aF72.450000000000003
aF131.66999999999999
aF129.47
aF235.78999999999999
aF180.33000000000001
aF149.86000000000001
aF64.390000000000001
aF113.37
aF153.97999999999999
aF180.81999999999999
aF95.409999999999997
aF144.47
aF145.34999999999999
aF106.34999999999999
aF85.260000000000005
aF152.12
aF263.41000000000003
aF108.41
aF114.45
aF146.50999999999999
aF92.650000000000006
aF109.06
aF123.70999999999999
aF148.87
aF61.310000000000002
aF134.59
aF97.290000000000006
aF153.94999999999999
aF188.81
aF138.25
aF147.84
aF133.72
aF70.670000000000002
aF112.05
aF104.92
aF128.84999999999999
aF67.840000000000003
aF156.16
aF129.93000000000001
aF190.05000000000001
aF68.140000000000001
aF136.59999999999999
aF61.189999999999998
aF150.19
aF212.65000000000001
aF149.63999999999999
aF204.61000000000001
aF134.72
aF90.569999999999993
aF113.39
as.