(dp1
S'EntropyNorm'
p2
(lp3
F9.3499999999999996
aF6.2800000000000002
aF4.9299999999999997
aF6.6900000000000004
aF7.79
aF9.0500000000000007
aF9.3100000000000005
aF7.4000000000000004
aF8.6999999999999993
aF6.7999999999999998
aF4.8799999999999999
aF6.04
aF5.6600000000000001
aF5.9299999999999997
aF6.4000000000000004
aF5.8099999999999996
aF7.2699999999999996
aF5.7800000000000002
aF6.3600000000000003
aF6.1399999999999997
aF6.6200000000000001
aF7.6100000000000003
aF7.9000000000000004
aF8.0099999999999998
aF6.5899999999999999
aF7.1399999999999997
aF4.9699999999999998
aF6.5
aF6.4699999999999998
aF6.4900000000000002
aF5.04
aF9.0199999999999996
aF6.3499999999999996
aF6.2400000000000002
aF6.75
aF7.6399999999999997
aF6.6399999999999997
aF6.3200000000000003
aF3.27
aF6.46
aF5.6799999999999997
aF6.6200000000000001
aF5.75
aF8.2400000000000002
aF5.9500000000000002
aF9.0800000000000001
aF7.8700000000000001
aF7.1799999999999997
aF8.1300000000000008
aF7.6500000000000004
aF6.2599999999999998
aF7.9800000000000004
aF6.0899999999999999
aF6.8200000000000003
aF6.2599999999999998
aF8.1099999999999994
aF6.5800000000000001
aF8.0600000000000005
aF9.3300000000000001
aF7
aF6.21
aF6.9800000000000004
aF7.6600000000000001
aF6.8499999999999996
aF2.5499999999999998
aF7.3300000000000001
aF7.5099999999999998
aF7.0199999999999996
aF7.3799999999999999
aF6.5
aF7.4100000000000001
aF8.0899999999999999
aF4.7300000000000004
aF5.7800000000000002
aF7.1500000000000004
aF5.4699999999999998
aF5.3799999999999999
aF6.9100000000000001
aF5.5800000000000001
aF6.96
aF7.6399999999999997
aF9.0899999999999999
aF5.8200000000000003
aF6.9800000000000004
aF7.75
aF7.0499999999999998
aF6.29
aF7.6299999999999999
aF6.7599999999999998
aF7.7400000000000002
aF6.7699999999999996
aF7.1699999999999999
aF7.4100000000000001
aF7.6100000000000003
aF3.8300000000000001
aF7.3300000000000001
aF7.54
aF6.0899999999999999
aF8.1799999999999997
aF7.7800000000000002
aF6.1399999999999997
aF6.9699999999999998
aF6.7699999999999996
aF6.9299999999999997
aF8.2599999999999998
aF7.3600000000000003
aF5.96
aF7.2400000000000002
aF4.9000000000000004
aF7.6399999999999997
aF6.8799999999999999
aF6.8399999999999999
aF6.3499999999999996
aF7.5300000000000002
aF7.2599999999999998
aF6.2400000000000002
aF7.6900000000000004
aF6.0899999999999999
aF6.79
aF7.6799999999999997
aF6.7199999999999998
aF8.3699999999999992
aF5.9800000000000004
aF6.2000000000000002
aF6.2699999999999996
aF6.8300000000000001
aF7.1200000000000001
aF7.1299999999999999
aF6.5
aF6.8700000000000001
aF6.0499999999999998
aF6.9500000000000002
aF6.6699999999999999
aF7.0499999999999998
aF5.6600000000000001
aF7.6299999999999999
aF7.6200000000000001
aF7.0599999999999996
aF6.5
aF7.7800000000000002
aF7.9199999999999999
aF7.5300000000000002
aF7.4699999999999998
aF7
aF7.79
aF7.1799999999999997
aF6.3499999999999996
aF7.7400000000000002
aF3.8500000000000001
aF6.8499999999999996
aF6
aF7.2300000000000004
aF6.6900000000000004
aF8.0500000000000007
aF7.3499999999999996
aF7.4699999999999998
aF5.54
aF7
aF7.1900000000000004
aF7.7199999999999998
aF6.3600000000000003
aF7.4100000000000001
aF7
aF6.8300000000000001
aF6.3200000000000003
aF7.4299999999999997
aF7.9199999999999999
aF7
aF6.71
aF7.3499999999999996
aF6.3300000000000001
aF6.9000000000000004
aF6.6600000000000001
aF7.3899999999999997
aF5.4500000000000002
aF7.21
aF6.3799999999999999
aF7.46
aF7.5199999999999996
aF7.2599999999999998
aF7.04
aF7.3099999999999996
aF5.7699999999999996
aF7.0700000000000003
aF6.6900000000000004
aF7.1699999999999999
aF5.9500000000000002
aF7.5099999999999998
aF6.8099999999999996
aF7.7000000000000002
aF5.9100000000000001
aF7.2300000000000004
aF5.7300000000000004
aF7.4299999999999997
aF7.6299999999999999
aF7.4100000000000001
aF7.6200000000000001
aF7.25
aF6.1299999999999999
aF7.0199999999999996
asS'perplexityNorm'
p4
(lp5
F652.27999999999997
aF77.959999999999994
aF30.48
aF102.97
aF221.53
aF529.75
aF636.73000000000002
aF169.19
aF414.73000000000002
aF111.63
aF29.530000000000001
aF66.019999999999996
aF50.409999999999997
aF60.859999999999999
aF84.569999999999993
aF56.140000000000001
aF154.19
aF54.82
aF82.370000000000005
aF70.719999999999999
aF98.150000000000006
aF195.88
aF238.99000000000001
aF258.39999999999998
aF96.489999999999995
aF140.80000000000001
aF31.32
aF90.780000000000001
aF88.359999999999999
aF89.609999999999999
aF32.960000000000001
aF519.23000000000002
aF81.819999999999993
aF75.689999999999998
aF107.51000000000001
aF198.81999999999999
aF99.760000000000005
aF80.049999999999997
aF9.6199999999999992
aF88.140000000000001
aF51.259999999999998
aF98.689999999999998
aF53.780000000000001
aF302.05000000000001
aF61.880000000000003
aF541.73000000000002
aF233.94
aF145.25999999999999
aF279.66000000000003
aF201.30000000000001
aF76.579999999999998
aF252.44
aF67.980000000000004
aF113.09999999999999
aF76.780000000000001
aF276.17000000000002
aF95.790000000000006
aF266.45999999999998
aF644.13999999999999
aF128.25999999999999
aF73.920000000000002
aF126.14
aF201.96000000000001
aF115.36
aF5.8399999999999999
aF161.34999999999999
aF182.31999999999999
aF129.90000000000001
aF166.38
aF90.599999999999994
aF169.94
aF272.75999999999999
aF26.559999999999999
aF55.009999999999998
aF141.75
aF44.289999999999999
aF41.729999999999997
aF119.97
aF47.780000000000001
aF124.31
aF200.02000000000001
aF545.33000000000004
aF56.369999999999997
aF126.64
aF214.66999999999999
aF132.91
aF78.010000000000005
aF198.28999999999999
aF108.05
aF214.11000000000001
aF109.45999999999999
aF143.83000000000001
aF169.5
aF195.31999999999999
aF14.18
aF161.05000000000001
aF186.47
aF67.989999999999995
aF289.24000000000001
aF219.05000000000001
aF70.590000000000003
aF125.59999999999999
aF109.08
aF122.31999999999999
aF307.04000000000002
aF163.88
aF62.219999999999999
aF150.74000000000001
aF29.949999999999999
aF200.13999999999999
aF117.73
aF114.73
aF81.629999999999995
aF184.93000000000001
aF153.75999999999999
aF75.540000000000006
aF205.97
aF68.329999999999998
aF110.95
aF205.52000000000001
aF105.66
aF329.92000000000002
aF63.090000000000003
aF73.719999999999999
aF77.129999999999995
aF114.15000000000001
aF139.02000000000001
aF139.91
aF90.629999999999995
aF117.22
aF66.230000000000004
aF123.62
aF101.72
aF132.44999999999999
aF50.590000000000003
aF198.72
aF196.38
aF133.16
aF90.549999999999997
aF219.93000000000001
aF242.5
aF184.47
aF177.34999999999999
aF128.13999999999999
aF220.77000000000001
aF145.30000000000001
aF81.409999999999997
aF213.47999999999999
aF14.44
aF115.36
aF64.040000000000006
aF150.63
aF103.42
aF265.61000000000001
aF162.88999999999999
aF177.28999999999999
aF46.409999999999997
aF128.34999999999999
aF146.27000000000001
aF211.41999999999999
aF81.870000000000005
aF170.28
aF128.00999999999999
aF113.98
aF79.670000000000002
aF172.61000000000001
aF242.84
aF127.75
aF104.75
aF162.81
aF80.439999999999998
aF119.28
aF101.37
aF168.19
aF43.68
aF147.83000000000001
aF83.010000000000005
aF176.22
aF183.37
aF153.09
aF131.15000000000001
aF158.36000000000001
aF54.5
aF134.19999999999999
aF103.08
aF144.49000000000001
aF61.630000000000003
aF181.88
aF112.2
aF208.43000000000001
aF59.969999999999999
aF150.03
aF53.18
aF172.84
aF198.22
aF169.90000000000001
aF196.84999999999999
aF152.41
aF70.269999999999996
aF130.13999999999999
as.