(dp1
S'EntropyNorm'
p2
(lp3
F0.33035714285714285
aF0.23333333333333334
aF0.27812500000000001
aF0.27458333333333335
aF0.40894736842105261
aF1.125
aF1.0222222222222221
aF0.28500000000000003
aF0.52941176470588236
aF0.56666666666666665
aF0.65625
aF0.12978723404255318
aF0.21185185185185185
aF0.19483870967741937
aF0.27608695652173909
aF1.4524999999999999
aF0.3290909090909091
aF0.5
aF0.26624999999999999
aF0.11750000000000001
aF0.35894736842105263
aF0.58538461538461539
aF0.26466666666666666
aF0.73181818181818192
aF0.29086956521739132
aF0.19971428571428573
aF0.2036
aF0.65100000000000002
aF0.217
aF0.2557692307692308
aF0.42250000000000004
aF0.55437499999999995
aF0.312
aF0.34833333333333333
aF0.21516129032258063
aF0.099220779220779223
aF0.26919999999999999
aF0.44928571428571429
aF0.16363636363636364
aF0.28727272727272729
aF0.175625
aF0.34157894736842104
aF0.11916666666666666
aF0.21487179487179489
aF0.10186440677966101
aF0.3952173913043478
aF0.12333333333333332
aF0.12203389830508475
aF0.23314285714285715
aF0.099868421052631579
aF0.19562499999999999
aF0.36318181818181822
aF0.11923076923076924
aF0.1394
aF0.14136363636363636
aF0.20074999999999998
aF0.15136363636363637
aF0.5
aF0.23794871794871794
aF0.15733333333333333
aF0.13847826086956522
aF0.17475000000000002
aF0.1349122807017544
aF0.1875
aF0.070555555555555552
aF0.38473684210526315
aF0.11446153846153846
aF0.12672727272727272
aF0.10695652173913044
aF0.13625000000000001
aF0.16125
aF0.31269230769230771
aF0.090434782608695655
aF0.10175438596491228
aF0.12696428571428572
aF0.18366666666666667
aF0.12377777777777778
aF0.098732394366197185
aF0.10222222222222221
aF0.12962962962962962
aF0.14339622641509434
aF0.15551724137931033
aF0.052162162162162164
aF0.1203448275862069
aF0.098607594936708856
aF0.19583333333333333
aF0.085135135135135126
aF0.16681818181818181
aF0.0683
aF0.098205128205128209
aF0.095138888888888884
aF0.16066666666666668
aF0.089529411764705885
aF0.055579710144927533
aF0.10000000000000001
aF0.047792207792207796
aF0.087613636363636366
aF0.14325581395348838
aF0.0859375
aF0.10608108108108108
aF0.063298969072164951
aF0.089615384615384625
aF0.078160919540229884
aF0.10492537313432836
aF0.11768115942028984
aF0.081444444444444444
aF0.11140350877192982
aF0.19125
aF0.038650793650793651
aF0.079375000000000001
aF0.057083333333333333
aF0.10058823529411764
aF0.070555555555555552
aF0.07936170212765957
aF0.051736111111111115
aF0.087605633802816898
aF0.068571428571428575
aF0.074268292682926826
aF0.071935483870967751
aF0.15895833333333334
aF0.052913385826771651
aF0.052784810126582281
aF0.062474226804123706
aF0.1125
aF0.043793103448275861
aF0.072842105263157889
aF0.048356164383561641
aF0.044624999999999998
aF0.078674698795180728
aF0.058376068376068374
aF0.044296296296296299
aF0.10469696969696971
aF0.0510077519379845
aF0.070099999999999996
aF0.070499999999999993
aF0.1008
aF0.057751937984496127
aF0.049788732394366202
aF0.069361702127659575
aF0.07061946902654867
aF0.039751243781094528
aF0.057499999999999996
aF0.075700000000000003
aF0.038216216216216216
aF0.075865384615384612
aF0.025734767025089606
aF0.033850267379679146
aF0.043184357541899442
aF0.018260869565217393
aF0.050147058823529413
aF0.026954545454545453
aF0.047947019867549671
aF0.054146341463414634
aF0.032023809523809524
aF0.038473684210526313
aF0.047770700636942678
aF0.034210526315789469
aF0.050948905109489052
aF0.041149425287356323
aF0.044971098265895952
aF0.025335968379446641
aF0.026678700361010829
aF0.03311627906976744
aF0.024945848375451263
aF0.026949152542372883
aF0.026690391459074734
aF0.02642140468227425
aF0.030301724137931037
aF0.056101694915254241
aF0.021333333333333333
aF0.024
aF0.024062500000000001
aF0.033553299492385787
aF0.030122950819672131
aF0.025637254901960786
aF0.016799065420560748
aF0.0247265625
aF0.025597269624573378
aF0.04593939393939394
aF0.029713114754098359
aF0.035833333333333335
aF0.024731543624161075
aF0.022664092664092663
aF0.024467353951890036
aF0.020877742946708463
aF0.016126126126126128
aF0.025301724137931036
aF0.02298780487804878
aF0.022236842105263156
aF0.02013157894736842
aF0.028398058252427184
aF0.021169590643274856
aF0.020394265232974912
aF0.027545787545787546
aF0.030938775510204082
aF0.018804071246819338
aF0.014980158730158729
aF0.019945355191256831
aF0.020193548387096773
aF0.019747899159663865
asS'perplexityNorm'
p4
(lp5
F21.69464285714286
aF2.9244444444444442
aF1.3700000000000001
aF4.0220833333333337
aF11.493684210526316
aF63.814999999999998
aF65.290000000000006
aF6.5630769230769221
aF30.028823529411767
aF9.2724999999999991
aF4.7637499999999999
aF1.462340425531915
aF1.9462962962962962
aF2.1203225806451615
aF3.5530434782608693
aF14.02
aF6.8513636363636357
aF5.3449999999999998
aF3.500833333333333
aF1.326730769230769
aF5.9510526315789471
aF15.022307692307692
aF8.1736666666666675
aF24.151818181818182
aF4.4752173913043478
aF3.6339999999999999
aF1.3612
aF9.104000000000001
aF3.0466666666666669
aF3.8561538461538465
aF2.8066666666666666
aF29.210625
aF3.786
aF4.3011111111111111
aF3.2925806451612902
aF2.5905194805194807
aF4.2443999999999997
aF5.5764285714285711
aF0.5509090909090909
aF3.6286363636363634
aF1.5396875000000001
aF4.7452631578947368
aF1.0989583333333333
aF8.5182051282051283
aF1.0901694915254236
aF23.731739130434786
aF3.4563492063492065
aF2.4986440677966097
aF8.1997142857142862
aF2.539078947368421
aF2.4021875000000001
aF11.533636363636363
aF1.4134615384615385
aF2.5116000000000001
aF1.6956818181818181
aF6.5135000000000005
aF2.2959090909090909
aF15.968125000000001
aF15.887948717948717
aF3.0117777777777777
aF1.8004347826086955
aF3.1695000000000002
aF3.6242105263157898
aF2.9805555555555556
aF0.13388888888888889
aF8.3505263157894731
aF2.677692307692308
aF2.283818181818182
aF2.408260869565217
aF1.9420833333333334
aF4.4450000000000003
aF10.737307692307693
aF0.38978260869565218
aF0.97438596491228069
aF2.4694642857142854
aF1.5233333333333334
aF1.052888888888889
aF1.8132394366197184
aF0.84851851851851856
aF2.3646296296296296
aF3.6552830188679244
aF8.9577586206896544
aF0.5
aF2.1812068965517244
aF2.7953164556962027
aF3.6922222222222221
aF1.0683783783783785
aF3.6754545454545453
aF1.1368
aF2.5865384615384617
aF1.6009722222222222
aF3.3404444444444441
aF2.298
aF1.4774637681159419
aF0.2865625
aF1.0687662337662338
aF2.3812500000000001
aF1.6665116279069767
aF3.1766666666666663
aF3.1262162162162164
aF0.72938144329896903
aF1.6283333333333334
aF1.2775862068965518
aF1.9456716417910449
aF4.0352173913043483
aF1.7894444444444446
aF1.4340350877192982
aF5.0267499999999998
aF0.23222222222222225
aF2.0425
aF0.96466666666666667
aF1.6797058823529412
aF0.90800000000000003
aF1.8719148936170213
aF1.2101388888888889
aF1.0516901408450705
aF1.8373214285714285
aF0.82804878048780495
aF1.1135483870967742
aF4.1260416666666666
aF0.83133858267716532
aF2.0437341772151902
aF0.68938144329896911
aF1.4103571428571429
aF0.56096551724137933
aF1.2716842105263158
aF0.91328767123287669
aF0.88006249999999997
aF1.1109638554216867
aF0.97008547008547008
aF0.46777777777777779
aF1.8172727272727272
aF0.74209302325581394
aF1.2887
aF0.62175000000000002
aF2.5155999999999996
aF1.3594573643410852
aF0.94936619718309856
aF0.9777659574468085
aF2.2289380530973451
aF1.2608457711442786
aF1.4614393939393939
aF1.8962000000000001
aF0.72664864864864864
aF2.2820192307692309
aF0.52010752688172046
aF0.43026737967914436
aF1.1886033519553072
aF0.037391304347826088
aF0.82919117647058815
aF0.27759090909090911
aF1.0025165562913907
aF0.82495934959349593
aF1.0635317460317459
aF0.83436842105263154
aF1.1509554140127387
aF0.33789473684210525
aF0.91963503649635037
aF0.82195402298850584
aF1.2745086705202313
aF0.33553359683794465
aF0.60653429602888087
aF0.64827906976744187
aF0.43440433212996388
aF0.34851694915254239
aF0.6436654804270463
aF0.80113712374581936
aF0.56301724137931042
aF0.83127118644067799
aF0.47733333333333333
aF0.30962264150943397
aF0.42312499999999997
aF0.49538071065989847
aF0.6666393442622951
aF0.18426470588235297
aF0.34130841121495331
aF0.31503906250000002
aF0.61911262798634814
aF1.1629090909090909
aF0.62540983606557377
aF0.61244791666666665
aF0.5561744966442953
aF0.22544401544401543
aF0.4782817869415808
aF0.31686520376175548
aF0.32234234234234233
aF0.25258620689655176
aF0.56740853658536594
aF0.35582236842105264
aF0.53002631578947368
aF0.28058252427184466
aF0.44353801169590645
aF0.1853046594982079
aF0.67289377289377283
aF0.78191836734693876
aF0.42778625954198474
aF0.3709722222222222
aF0.42978142076502734
aF0.24648387096774194
aF0.37112044817927176
as.