(dp1
S'EntropyNorm'
p2
(lp3
F0.33392857142857141
aF0.2325925925925926
aF0.30812499999999998
aF0.27875
aF0.40999999999999998
aF1.1312500000000001
aF1.0344444444444445
aF0.2846153846153846
aF0.5117647058823529
aF0.56666666666666665
aF0.60999999999999999
aF0.12851063829787235
aF0.20962962962962964
aF0.19129032258064516
aF0.27826086956521739
aF1.4524999999999999
aF0.33045454545454545
aF0.48166666666666669
aF0.26500000000000001
aF0.11807692307692307
aF0.34842105263157896
aF0.58538461538461539
aF0.26333333333333336
aF0.72818181818181815
aF0.28652173913043477
aF0.20399999999999999
aF0.19879999999999998
aF0.65000000000000002
aF0.21566666666666665
aF0.24961538461538463
aF0.41999999999999998
aF0.56374999999999997
aF0.3175
aF0.34666666666666668
aF0.21774193548387097
aF0.099220779220779223
aF0.2656
aF0.45142857142857146
aF0.14863636363636365
aF0.29363636363636364
aF0.17749999999999999
aF0.34842105263157896
aF0.11979166666666667
aF0.2112820512820513
aF0.10084745762711865
aF0.39478260869565218
aF0.12492063492063492
aF0.12169491525423728
aF0.23228571428571432
aF0.10065789473684211
aF0.19562499999999999
aF0.36272727272727273
aF0.11711538461538461
aF0.13639999999999999
aF0.14227272727272727
aF0.20274999999999999
aF0.14954545454545454
aF0.50375000000000003
aF0.23923076923076922
aF0.15555555555555556
aF0.13500000000000001
aF0.17450000000000002
aF0.13438596491228069
aF0.19027777777777777
aF0.14166666666666666
aF0.38578947368421052
aF0.11553846153846153
aF0.12763636363636363
aF0.10695652173913044
aF0.13541666666666666
aF0.15437500000000001
aF0.31115384615384617
aF0.10282608695652175
aF0.10140350877192983
aF0.12767857142857145
aF0.18233333333333332
aF0.11955555555555555
aF0.097323943661971835
aF0.10333333333333333
aF0.12888888888888889
aF0.14415094339622642
aF0.15672413793103449
aF0.052432432432432438
aF0.1203448275862069
aF0.098101265822784806
aF0.19583333333333333
aF0.085000000000000006
aF0.1734090909090909
aF0.067599999999999993
aF0.099230769230769234
aF0.094027777777777766
aF0.15933333333333333
aF0.0871764705882353
aF0.055144927536231889
aF0.1196875
aF0.047597402597402597
aF0.085681818181818178
aF0.14162790697674418
aF0.08520833333333333
aF0.10513513513513514
aF0.063298969072164951
aF0.089358974358974358
aF0.07781609195402299
aF0.10343283582089552
aF0.11971014492753623
aF0.081777777777777783
aF0.10456140350877192
aF0.18099999999999999
aF0.03888888888888889
aF0.079583333333333325
aF0.057333333333333333
aF0.10058823529411764
aF0.070555555555555552
aF0.080106382978723412
aF0.050416666666666665
aF0.087887323943661971
aF0.068660714285714283
aF0.074268292682926826
aF0.073010752688172045
aF0.16
aF0.052913385826771651
aF0.052974683544303791
aF0.061649484536082481
aF0.11071428571428572
aF0.043241379310344823
aF0.071894736842105261
aF0.048767123287671237
aF0.044562499999999998
aF0.078313253012048195
aF0.05871794871794872
aF0.044814814814814814
aF0.1053030303030303
aF0.051705426356589146
aF0.070499999999999993
aF0.070750000000000007
aF0.10173333333333333
aF0.059069767441860467
aF0.04971830985915493
aF0.069148936170212769
aF0.068849557522123891
aF0.039402985074626869
aF0.057045454545454545
aF0.074700000000000003
aF0.03783783783783784
aF0.074903846153846154
aF0.025734767025089606
aF0.0339572192513369
aF0.043240223463687152
aF0.033478260869565221
aF0.050367647058823524
aF0.027272727272727271
aF0.047880794701986758
aF0.054390243902439024
aF0.031944444444444449
aF0.038684210526315786
aF0.047579617834394905
aF0.032397660818713453
aF0.051094890510948905
aF0.04132183908045977
aF0.044624277456647397
aF0.025138339920948619
aF0.026750902527075814
aF0.03255813953488372
aF0.024657039711191337
aF0.026779661016949154
aF0.026441281138790036
aF0.02648829431438127
aF0.03017241379310345
aF0.056864406779661016
aF0.021304347826086957
aF0.02388679245283019
aF0.023958333333333335
aF0.033807106598984775
aF0.030286885245901639
aF0.026715686274509806
aF0.016845794392523365
aF0.024921875
aF0.025460750853242321
aF0.045575757575757575
aF0.029754098360655738
aF0.036666666666666667
aF0.024530201342281878
aF0.022277992277992275
aF0.024295532646048112
aF0.0209717868338558
aF0.016148648648648647
aF0.02564655172413793
aF0.022896341463414634
aF0.022401315789473682
aF0.020263157894736844
aF0.028689320388349517
aF0.021140350877192984
aF0.020537634408602151
aF0.027216117216117216
aF0.031142857142857142
aF0.018854961832061069
aF0.015119047619047619
aF0.019808743169398908
aF0.019774193548387095
aF0.019663865546218486
asS'perplexityNorm'
p4
(lp5
F23.295714285714286
aF2.887407407407407
aF1.905
aF4.2904166666666663
aF11.659473684210527
aF66.21875
aF70.747777777777785
aF6.507307692307692
aF24.395882352941179
aF9.3025000000000002
aF3.6912500000000001
aF1.4046808510638298
aF1.8670370370370368
aF1.9632258064516128
aF3.6769565217391302
aF14.035
aF7.0086363636363638
aF4.5683333333333334
aF3.4320833333333334
aF1.3599999999999999
aF5.1657894736842112
aF15.067692307692308
aF7.9663333333333339
aF23.490909090909089
aF4.1952173913043476
aF4.0228571428571431
aF1.2527999999999999
aF9.0779999999999994
aF2.9453333333333331
aF3.4465384615384616
aF2.7466666666666666
aF32.451875000000001
aF4.0909999999999993
aF4.2050000000000001
aF3.4680645161290324
aF2.582077922077922
aF3.9904000000000002
aF5.7178571428571425
aF0.43727272727272726
aF4.0063636363636368
aF1.6018749999999999
aF5.1942105263157892
aF1.1204166666666666
aF7.7448717948717949
aF1.048813559322034
aF23.553478260869564
aF3.7133333333333334
aF2.4620338983050845
aF7.9902857142857151
aF2.6486842105263158
aF2.3931249999999999
aF11.474545454545455
aF1.3073076923076923
aF2.262
aF1.7450000000000001
aF6.9042500000000002
aF2.1770454545454547
aF16.653749999999999
aF16.516410256410257
aF2.850222222222222
aF1.6069565217391304
aF3.1535000000000002
aF3.5431578947368423
aF3.2044444444444444
aF0.32444444444444442
aF8.4921052631578942
aF2.8049230769230769
aF2.3618181818181818
aF2.4113043478260869
aF1.8875
aF3.5404166666666668
aF10.49076923076923
aF0.57739130434782604
aF0.96508771929824555
aF2.53125
aF1.4763333333333333
aF0.92733333333333323
aF1.6897183098591548
aF0.88481481481481483
aF2.3020370370370369
aF3.7739622641509434
aF9.402241379310345
aF0.50783783783783787
aF2.183448275862069
aF2.7173417721518986
aF3.6919444444444443
aF1.0541891891891892
aF4.5065909090909093
aF1.0805
aF2.7450000000000001
aF1.5202777777777776
aF3.1962222222222225
aF1.9941176470588236
aF1.4153623188405797
aF0.44312499999999999
aF1.0457792207792209
aF2.1189772727272729
aF1.5811627906976744
aF3.0129166666666669
aF2.9601351351351353
aF0.72773195876288665
aF1.6102564102564101
aF1.2537931034482759
aF1.8256716417910446
aF4.4498550724637687
aF1.8208888888888888
aF1.091578947368421
aF3.7685000000000004
aF0.23769841269841269
aF2.0847916666666664
aF0.98108333333333342
aF1.6872058823529412
aF0.90699999999999992
aF1.9673404255319149
aF1.0677777777777777
aF1.063943661971831
aF1.839017857142857
aF0.83329268292682923
aF1.1930107526881721
aF4.2816666666666672
aF0.83196850393700783
aF2.0881012658227851
aF0.65041237113402062
aF1.3164285714285715
aF0.53193103448275858
aF1.2015789473684211
aF0.95219178082191791
aF0.87443749999999998
aF1.0919277108433734
aF1.0018803418803419
aF0.49059259259259264
aF1.873030303030303
aF0.78852713178294576
aF1.3244999999999998
aF0.63237500000000002
aF2.6496
aF1.5223255813953489
aF0.93774647887323936
aF0.96329787234042552
aF1.9462831858407079
aF1.2064676616915422
aF1.3975
aF1.7734999999999999
aF0.69264864864864861
aF2.1227884615384616
aF0.52078853046594986
aF0.43534759358288766
aF1.1926256983240222
aF0.12556521739130436
aF0.84823529411764709
aF0.29109090909090912
aF0.99754966887417218
aF0.84081300813008131
aF1.0540079365079367
aF0.85731578947368414
aF1.1292356687898089
aF0.27140350877192981
aF0.93686131386861304
aF0.84063218390804606
aF1.2220809248554914
aF0.32359683794466404
aF0.6147292418772563
aF0.59539534883720924
aF0.41148014440433217
aF0.33758474576271186
aF0.61427046263345197
aF0.8121739130434783
aF0.5506465517241379
aF0.88771186440677963
aF0.47191304347826085
aF0.30354716981132074
aF0.41416666666666668
aF0.51456852791878172
aF0.68930327868852459
aF0.21411764705882352
aF0.34539719626168225
aF0.32425781250000002
aF0.60143344709897606
aF1.1113333333333333
aF0.62741803278688524
aF0.6830729166666667
aF0.5314093959731544
aF0.21042471042471042
aF0.46116838487972506
aF0.32313479623824448
aF0.32542792792792796
aF0.26564655172413792
aF0.55451219512195116
aF0.36907894736842106
aF0.54849999999999999
aF0.29111650485436891
aF0.43868421052631579
aF0.19060931899641578
aF0.63311355311355311
aF0.80906122448979589
aF0.43231552162849873
aF0.39057539682539683
aF0.41642076502732239
aF0.22667741935483871
aF0.36453781512605038
as.