(dp1
S'EntropyNorm'
p2
(lp3
F0.33500000000000002
aF0.23444444444444446
aF0.27687499999999998
aF0.27833333333333332
aF0.40999999999999998
aF1.1312500000000001
aF1.0355555555555556
aF0.28500000000000003
aF0.5117647058823529
aF0.56666666666666665
aF0.65874999999999995
aF0.13021276595744682
aF0.20629629629629631
aF0.19612903225806452
aF0.27782608695652172
aF1.4524999999999999
aF0.33045454545454545
aF0.49666666666666665
aF0.26833333333333337
aF0.11923076923076924
aF0.34789473684210526
aF0.58615384615384614
aF0.26633333333333337
aF0.72909090909090901
aF0.28565217391304348
aF0.20485714285714285
aF0.20440000000000003
aF0.65199999999999991
aF0.21566666666666665
aF0.25307692307692309
aF0.42499999999999999
aF0.56374999999999997
aF0.3125
aF0.34833333333333333
aF0.21645161290322582
aF0.099610389610389607
aF0.26600000000000001
aF0.45142857142857146
aF0.14454545454545456
aF0.28999999999999998
aF0.1759375
aF0.34368421052631581
aF0.11937500000000001
aF0.2117948717948718
aF0.10033898305084746
aF0.3973913043478261
aF0.12460317460317459
aF0.12220338983050848
aF0.2325714285714286
aF0.10092105263157895
aF0.1965625
aF0.36499999999999999
aF0.11846153846153847
aF0.13880000000000001
aF0.14181818181818182
aF0.20224999999999999
aF0.15045454545454545
aF0.50187499999999996
aF0.23871794871794874
aF0.15755555555555556
aF0.13869565217391305
aF0.17549999999999999
aF0.13385964912280701
aF0.18972222222222224
aF0.090000000000000011
aF0.38947368421052636
aF0.114
aF0.12836363636363635
aF0.10753623188405798
aF0.13666666666666666
aF0.15479166666666666
aF0.31307692307692309
aF0.092391304347826081
aF0.10298245614035088
aF0.12785714285714286
aF0.183
aF0.11911111111111111
aF0.097746478873239437
aF0.10518518518518517
aF0.13018518518518518
aF0.14471698113207548
aF0.15672413793103449
aF0.051891891891891889
aF0.12120689655172415
aF0.097468354430379753
aF0.19750000000000001
aF0.084594594594594591
aF0.1734090909090909
aF0.0683
aF0.099487179487179486
aF0.094305555555555559
aF0.16155555555555554
aF0.087411764705882355
aF0.055579710144927533
aF0.105625
aF0.047922077922077921
aF0.086136363636363636
aF0.14232558139534884
aF0.085520833333333338
aF0.10608108108108108
aF0.06278350515463918
aF0.090384615384615383
aF0.077011494252873569
aF0.10522388059701493
aF0.11942028985507247
aF0.082111111111111107
aF0.10473684210526316
aF0.18925
aF0.037936507936507942
aF0.080104166666666671
aF0.057000000000000002
aF0.10073529411764705
aF0.070222222222222228
aF0.079680851063829786
aF0.050555555555555555
aF0.088169014084507044
aF0.068839285714285714
aF0.074634146341463412
aF0.072365591397849469
aF0.16229166666666667
aF0.052125984251968502
aF0.053101265822784814
aF0.062164948453608253
aF0.11089285714285714
aF0.043379310344827587
aF0.073578947368421049
aF0.048698630136986304
aF0.045249999999999999
aF0.07855421686746987
aF0.058461538461538461
aF0.044148148148148145
aF0.10590909090909091
aF0.052093023255813949
aF0.070699999999999999
aF0.069250000000000006
aF0.10253333333333334
aF0.058527131782945732
aF0.049788732394366202
aF0.068617021276595747
aF0.069469026548672569
aF0.039303482587064675
aF0.057878787878787877
aF0.075700000000000003
aF0.038378378378378375
aF0.074423076923076925
aF0.025913978494623659
aF0.033796791443850269
aF0.043463687150837989
aF0.02373913043478261
aF0.050588235294117649
aF0.027227272727272728
aF0.048145695364238406
aF0.054552845528455282
aF0.032182539682539681
aF0.038789473684210526
aF0.047898089171974523
aF0.032046783625730997
aF0.051094890510948905
aF0.041149425287356323
aF0.044971098265895952
aF0.025019762845849804
aF0.026859205776173286
aF0.032511627906976745
aF0.024981949458483754
aF0.026440677966101694
aF0.026690391459074734
aF0.026387959866220733
aF0.030344827586206897
aF0.056186440677966104
aF0.021478260869565217
aF0.023849056603773587
aF0.024270833333333335
aF0.033705583756345178
aF0.030368852459016393
aF0.025784313725490195
aF0.016892523364485983
aF0.024687500000000001
aF0.025631399317406142
aF0.04593939393939394
aF0.02987704918032787
aF0.035729166666666666
aF0.02476510067114094
aF0.022277992277992275
aF0.024604810996563576
aF0.0209717868338558
aF0.016216216216216217
aF0.025474137931034483
aF0.023140243902439024
aF0.022105263157894735
aF0.020368421052631581
aF0.028495145631067961
aF0.021315789473684212
aF0.020537634408602151
aF0.027472527472527472
aF0.031306122448979588
aF0.018956743002544529
aF0.01503968253968254
aF0.019945355191256831
aF0.019709677419354841
aF0.019803921568627453
asS'perplexityNorm'
p4
(lp5
F23.835357142857141
aF2.9744444444444444
aF1.3487499999999999
aF4.2762500000000001
aF11.624736842105264
aF66.248750000000001
aF70.814444444444447
aF6.5296153846153846
aF24.405882352941177
aF9.2741666666666678
aF4.8075000000000001
aF1.484468085106383
aF1.757037037037037
aF2.1748387096774193
aF3.6339130434782607
aF14.0375
aF7.0336363636363641
aF5.190833333333333
aF3.6083333333333329
aF1.4121153846153847
aF5.1557894736842105
aF15.158461538461539
aF8.4716666666666676
aF23.537272727272729
aF4.1373913043478261
aF4.113428571428571
aF1.3815999999999999
aF9.1920000000000002
aF2.9566666666666666
aF3.6800000000000002
aF2.8483333333333332
aF32.474375000000002
aF3.8024999999999998
aF4.2927777777777774
aF3.379032258064516
aF2.642987012987013
aF4.0283999999999995
aF5.7107142857142863
aF0.41272727272727272
aF3.7840909090909092
aF1.5496875000000001
aF4.8715789473684215
aF1.1091666666666666
aF7.8628205128205124
aF1.0262711864406779
aF24.475217391304344
aF3.6536507936507938
aF2.513220338983051
aF8.0434285714285707
aF2.6885526315789474
aF2.4409375
aF11.876363636363635
aF1.3742307692307691
aF2.4574000000000003
aF1.7227272727272727
aF6.8337500000000002
aF2.2345454545454544
aF16.376874999999998
aF16.25820512820513
aF3.0184444444444449
aF1.8097826086956521
aF3.2369999999999997
aF3.4771929824561401
aF3.1630555555555557
aF0.17000000000000001
aF8.8921052631578945
aF2.6178461538461537
aF2.4319999999999999
aF2.4892753623188404
aF1.9602083333333333
aF3.5935416666666669
aF10.865
aF0.41434782608695647
aF1.0228070175438595
aF2.5473214285714287
aF1.4966666666666666
aF0.91222222222222216
aF1.7326760563380281
aF0.94648148148148148
aF2.4181481481481484
aF3.8313207547169812
aF9.4184482758620689
aF0.4895495495495496
aF2.2546551724137931
aF2.6248101265822785
aF3.8280555555555558
aF1.0322972972972972
aF4.5015909090909085
aF1.1392
aF2.7739743589743591
aF1.5419444444444443
aF3.4255555555555555
aF2.0236470588235291
aF1.4719565217391304
aF0.32656249999999998
aF1.0807792207792208
aF2.1790909090909092
aF1.6158139534883722
aF3.0853125000000001
aF3.1091891891891894
aF0.7006185567010309
aF1.7032051282051281
aF1.1970114942528736
aF1.974179104477612
aF4.3857971014492758
aF1.8596666666666668
aF1.1003508771929824
aF4.7467500000000005
aF0.21880952380952381
aF2.1470833333333332
aF0.95533333333333337
aF1.696764705882353
aF0.88644444444444448
aF1.9117021276595743
aF1.0796527777777778
aF1.0771830985915494
aF1.8631249999999999
aF0.84963414634146339
aF1.1441935483870966
aF4.6172916666666666
aF0.775275590551181
aF2.1178481012658228
aF0.67587628865979388
aF1.3176785714285715
aF0.54082758620689653
aF1.3421052631578947
aF0.94931506849315062
aF0.94306249999999991
aF1.1033734939759037
aF0.97846153846153849
aF0.46000000000000002
aF1.9213636363636364
aF0.8186821705426357
aF1.3456000000000001
aF0.58125000000000004
aF2.7485333333333331
aF1.4530232558139535
aF0.94725352112676053
aF0.93042553191489352
aF2.0364601769911506
aF1.1901492537313432
aF1.5157575757575759
aF1.895
aF0.74075675675675667
aF2.058846153846154
aF0.53942652329749108
aF0.42620320855614974
aF1.2253631284916202
aF0.057913043478260873
aF0.86499999999999999
aF0.28795454545454546
aF1.0231125827814571
aF0.84999999999999998
aF1.0945634920634919
aF0.86905263157894741
aF1.1698089171974522
aF0.26134502923976605
aF0.93722627737226283
aF0.82183908045977017
aF1.2703468208092485
aF0.318300395256917
aF0.62855595667870046
aF0.59283720930232553
aF0.43711191335740074
aF0.32072033898305086
aF0.64512455516014233
aF0.79170568561872912
aF0.56737068965517234
aF0.83745762711864402
aF0.4936521739130435
aF0.30116981132075471
aF0.44010416666666669
aF0.50604060913705584
aF0.6962704918032786
aF0.18745098039215688
aF0.35123831775700937
aF0.31222656250000003
aF0.62416382252559721
aF1.1589090909090909
aF0.64213114754098366
aF0.60687499999999994
aF0.55775167785234903
aF0.21108108108108109
aF0.49003436426116836
aF0.32476489028213162
aF0.33198198198198198
aF0.25866379310344828
aF0.58676829268292685
aF0.34588815789473687
aF0.5632631578947368
aF0.28330097087378642
aF0.45698830409356722
aF0.18992831541218638
aF0.66307692307692312
aF0.83093877551020412
aF0.44620865139949112
aF0.37851190476190477
aF0.43158469945355193
aF0.22290322580645158
aF0.37686274509803919
as.