(dp1
S'EntropyNorm'
p2
(lp3
F0.33214285714285718
aF0.22185185185185186
aF0.32437500000000002
aF0.27083333333333331
aF0.4031578947368421
aF1.1325000000000001
aF1.03
aF0.27884615384615385
aF0.50882352941176467
aF0.48416666666666663
aF0.66374999999999995
aF0.12638297872340426
aF0.2137037037037037
aF0.18451612903225806
aF0.31086956521739134
aF1.4524999999999999
aF0.33045454545454545
aF0.47666666666666663
aF0.27458333333333335
aF0.11596153846153846
aF0.36894736842105263
aF0.55307692307692313
aF0.26166666666666666
aF0.71272727272727276
aF0.29956521739130432
aF0.19314285714285714
aF0.21719999999999998
aF0.629
aF0.20899999999999999
aF0.25153846153846154
aF0.47666666666666663
aF0.55562500000000004
aF0.318
aF0.34333333333333332
aF0.21741935483870969
aF0.097402597402597407
aF0.28920000000000001
aF0.47428571428571425
aF0.17818181818181819
aF0.26454545454545458
aF0.19437499999999999
aF0.34894736842105262
aF0.12770833333333334
aF0.20769230769230768
aF0.10203389830508473
aF0.36913043478260871
aF0.12603174603174605
aF0.11796610169491525
aF0.22885714285714284
aF0.098026315789473684
aF0.20406250000000001
aF0.36363636363636365
aF0.12326923076923077
aF0.1356
aF0.14545454545454548
aF0.19800000000000001
aF0.15227272727272728
aF0.484375
aF0.24076923076923079
aF0.15111111111111111
aF0.1473913043478261
aF0.16850000000000001
aF0.13140350877192983
aF0.18944444444444444
aF0.19555555555555557
aF0.35368421052631577
aF0.11507692307692308
aF0.13
aF0.10710144927536232
aF0.13416666666666668
aF0.15541666666666668
aF0.30307692307692308
aF0.12195652173913044
aF0.096315789473684216
aF0.12982142857142856
aF0.16900000000000001
aF0.12644444444444444
aF0.095633802816901411
aF0.1112962962962963
aF0.12222222222222222
aF0.14358490566037738
aF0.15482758620689657
aF0.055315315315315312
aF0.11793103448275861
aF0.098101265822784806
aF0.19722222222222222
aF0.089054054054054047
aF0.16613636363636364
aF0.068600000000000008
aF0.096794871794871798
aF0.097499999999999989
aF0.15822222222222224
aF0.087529411764705883
aF0.054492753623188402
aF0.1471875
aF0.046233766233766231
aF0.086477272727272736
aF0.13465116279069766
aF0.086458333333333345
aF0.10351351351351351
aF0.067113402061855662
aF0.088717948717948719
aF0.078850574712643687
aF0.10164179104477611
aF0.12072463768115942
aF0.078666666666666663
aF0.10385964912280701
aF0.18024999999999999
aF0.04476190476190476
aF0.077916666666666676
aF0.058083333333333334
aF0.094558823529411765
aF0.073777777777777775
aF0.07936170212765957
aF0.051666666666666666
aF0.085492957746478873
aF0.069464285714285715
aF0.072560975609756106
aF0.073333333333333334
aF0.16104166666666667
aF0.054488188976377951
aF0.051582278481012662
aF0.063608247422680411
aF0.10982142857142858
aF0.045103448275862067
aF0.07010526315789474
aF0.050068493150684928
aF0.042875000000000003
aF0.081204819277108431
aF0.056666666666666664
aF0.046518518518518522
aF0.10075757575757577
aF0.052403100775193799
aF0.069800000000000001
aF0.075874999999999998
aF0.10013333333333332
aF0.060542635658914726
aF0.048521126760563381
aF0.070531914893617015
aF0.066902654867256633
aF0.039552238805970148
aF0.055530303030303034
aF0.075999999999999998
aF0.036972972972972973
aF0.07701923076923077
aF0.025017921146953406
aF0.034973262032085561
aF0.041675977653631284
aF0.045826086956521739
aF0.04897058823529412
aF0.02809090909090909
aF0.046622516556291391
aF0.057073170731707312
aF0.031269841269841267
aF0.039421052631578947
aF0.046050955414012738
aF0.035146198830409356
aF0.049781021897810224
aF0.041781609195402296
aF0.043352601156069363
aF0.026007905138339921
aF0.025884476534296028
aF0.0333953488372093
aF0.024296028880866429
aF0.027161016949152544
aF0.025800711743772242
aF0.026889632107023408
aF0.029137931034482759
aF0.057966101694915256
aF0.020840579710144927
aF0.024641509433962264
aF0.023506944444444441
aF0.035279187817258882
aF0.02959016393442623
aF0.029117647058823533
aF0.016518691588785047
aF0.025781249999999999
aF0.024812286689419795
aF0.045818181818181813
aF0.029139344262295083
aF0.037552083333333333
aF0.023691275167785235
aF0.023706563706563707
aF0.023402061855670103
aF0.021034482758620691
aF0.015788288288288287
aF0.026206896551724139
aF0.02222560975609756
aF0.023092105263157893
aF0.019921052631578947
aF0.029563106796116505
aF0.020730994152046784
aF0.021290322580645164
aF0.026483516483516486
aF0.031551020408163266
aF0.018396946564885497
aF0.015238095238095238
aF0.019316939890710382
aF0.020967741935483872
aF0.019131652661064424
asS'perplexityNorm'
p4
(lp5
F22.561071428571431
aF2.345925925925926
aF2.2862499999999999
aF3.7837499999999999
aF10.672105263157896
aF66.617500000000007
aF68.538888888888891
aF5.8399999999999999
aF23.611764705882351
aF4.6758333333333333
aF4.9737499999999999
aF1.3034042553191489
aF2.0207407407407407
aF1.7025806451612904
aF6.1778260869565216
aF14.032500000000001
aF7.0095454545454547
aF4.3983333333333334
aF4.0129166666666665
aF1.2555769230769231
aF6.795789473684211
aF11.218461538461538
aF7.7086666666666668
aF20.855454545454545
aF5.1486956521739131
aF3.0908571428571432
aF1.7243999999999999
aF7.8029999999999999
aF2.5643333333333334
aF3.5711538461538459
aF4.3841666666666663
aF29.749375000000001
aF4.1115000000000004
aF4.0388888888888888
aF3.4567741935483869
aF2.3575324675324674
aF5.9927999999999999
aF7.1292857142857144
aF0.68727272727272726
aF2.5740909090909092
aF2.3365624999999999
aF5.2084210526315786
aF1.4612499999999999
aF7.0499999999999998
aF1.1006779661016948
aF15.619565217391305
aF3.9033333333333333
aF2.114915254237288
aF7.3668571428571425
aF2.2971052631578948
aF2.8931249999999999
aF11.659090909090908
aF1.6367307692307693
aF2.1934
aF1.9163636363636363
aF6.0702499999999997
aF2.3697727272727271
aF13.465624999999999
aF17.25128205128205
aF2.4784444444444444
aF2.3945652173913046
aF2.66675
aF3.1607017543859648
aF3.1380555555555554
aF0.63611111111111107
aF5.5499999999999998
aF2.7449230769230768
aF2.5865454545454543
aF2.425072463768116
aF1.8125
aF3.6689583333333338
aF9.087307692307693
aF1.0591304347826087
aF0.7868421052631579
aF2.7639285714285715
aF1.1159999999999999
aF1.1433333333333333
aF1.5574647887323942
aF1.1961111111111111
aF1.796111111111111
aF3.6832075471698116
aF8.7217241379310355
aF0.63450450450450457
aF1.9755172413793103
aF2.721518987341772
aF3.8038888888888889
aF1.2995945945945946
aF3.6061363636363635
aF1.1597
aF2.4044871794871798
aF1.8044444444444443
aF3.0971111111111114
aF2.0490588235294118
aF1.3338405797101449
aF0.81781250000000005
aF0.90616883116883129
aF2.219431818181818
aF1.2832558139534884
aF3.2736458333333331
aF2.7325675675675676
aF0.93814432989690721
aF1.5569230769230769
aF1.3309195402298852
aF1.6756716417910447
aF4.6563768115942032
aF1.5027777777777778
aF1.0619298245614035
aF3.7032499999999997
aF0.39706349206349206
aF1.8609375000000001
aF1.0422499999999999
aF1.2658823529411765
aF1.1107777777777779
aF1.8687234042553191
aF1.2022916666666665
aF0.94352112676056332
aF1.9620535714285714
aF0.75451219512195122
aF1.2127956989247313
aF4.415
aF0.95299212598425198
aF1.7972151898734177
aF0.74185567010309272
aF1.2675000000000001
aF0.64124137931034486
aF1.0665263157894735
aF1.0865753424657534
aF0.72506250000000005
aF1.2875903614457831
aF0.84504273504273508
aF0.57711111111111113
aF1.5265151515151516
aF0.83744186046511626
aF1.2642
aF0.84062499999999996
aF2.4250666666666665
aF1.7375968992248063
aF0.83295774647887322
aF1.0529787234042554
aF1.6664601769911505
aF1.23
aF1.2225757575757576
aF1.9398
aF0.61908108108108106
aF2.4755769230769227
aF0.45290322580645159
aF0.49647058823529416
aF0.9854748603351956
aF0.3353913043478261
aF0.74411764705882355
aF0.32931818181818184
aF0.87198675496688738
aF1.0526016260162601
aF0.93567460317460316
aF0.94910526315789479
aF0.95452229299363067
aF0.37654970760233919
aF0.82751824817518249
aF0.88494252873563217
aF1.0452023121387284
aF0.37711462450592886
aF0.52155234657039706
aF0.67604651162790697
aF0.38393501805054148
aF0.36127118644067796
aF0.54135231316725985
aF0.88096989966555195
aF0.46728448275862067
aF0.96991525423728819
aF0.42466666666666664
aF0.34962264150943401
aF0.37868055555555558
aF0.6279695431472081
aF0.61012295081967216
aF0.30053921568627451
aF0.31446261682242993
aF0.38003906250000002
aF0.5254266211604095
aF1.1443030303030304
aF0.56659836065573765
aF0.77000000000000002
aF0.44872483221476511
aF0.27285714285714285
aF0.38505154639175254
aF0.32890282131661441
aF0.29020270270270271
aF0.29241379310344828
aF0.47609756097560973
aF0.42740131578947371
aF0.50013157894736848
aF0.33077669902912621
aF0.39941520467836256
aF0.2193189964157706
aF0.5501465201465201
aF0.86795918367346936
aF0.38076335877862594
aF0.40597222222222223
aF0.36808743169398905
aF0.29216129032258065
aF0.31761904761904763
as.