(dp1
S'perplexity'
p2
(lp3
F111.8
aF104.23999999999999
aF123.75
aF93.670000000000002
aF189.97
aF138.09999999999999
aF412.81999999999999
aF101.42
aF210.52000000000001
aF122.56
aF122.97
aF182.41
aF87.920000000000002
aF158.25
aF170.90000000000001
aF146.77000000000001
aF219.03999999999999
aF147.25
aF101.06999999999999
aF151.83000000000001
aF119.3
aF197.12
aF185.22
aF216.44999999999999
aF127.25
aF198.03999999999999
aF221.53
aF254.86000000000001
aF139.72999999999999
aF206.86000000000001
aF125.15000000000001
aF162.19999999999999
aF178.22999999999999
aF250.84
aF122.26000000000001
aF152.33000000000001
aF145.41999999999999
aF128.27000000000001
aF194.50999999999999
aF128.44
aF72.719999999999999
aF117.17
aF131.22999999999999
aF132.94
aF165.72
aF172.81
aF230.06
aF131.88999999999999
aF269.30000000000001
aF112.55
aF134.33000000000001
aF221.88999999999999
aF117.81999999999999
aF164.15000000000001
aF220.34999999999999
aF92.680000000000007
aF166.81
aF104.73999999999999
aF122.8
aF96.409999999999997
aF121.20999999999999
aF145.47999999999999
aF166.81999999999999
aF193.21000000000001
aF139.09
aF135.59
aF112.77
aF219.55000000000001
aF158.83000000000001
aF139.77000000000001
aF123.87
aF135.53999999999999
aF145.13
aF146.75
aF170.24000000000001
aF128.25
aF106.73
aF147.99000000000001
aF129.25
aF177.24000000000001
aF202.88999999999999
aF128.84999999999999
aF125.01000000000001
aF112.53
aF171.72
aF135.62
aF151.44
aF230.53999999999999
aF110.78
aF173.08000000000001
aF166.44
aF127.33
aF141.87
aF158.61000000000001
aF109.5
aF122.04000000000001
aF125.16
aF118.90000000000001
aF120.27
aF220.56999999999999
aF145.52000000000001
aF156.78999999999999
aF150.59999999999999
aF225.71000000000001
aF113.91
aF170.56
aF254.36000000000001
aF342.44
aF131.84999999999999
aF120.33
aF154.53
aF148.91999999999999
aF166.53
aF101.66
aF142.74000000000001
aF127.77
aF108.16
aF149.22999999999999
aF104.08
aF129.84
aF134.03999999999999
aF125.34999999999999
aF80.700000000000003
aF156.81
aF104.66
aF152.75
aF98.409999999999997
aF140.05000000000001
aF253.38999999999999
aF227.83000000000001
aF120.45
aF141.15000000000001
aF122.56
aF77.480000000000004
aF122.92
aF238.00999999999999
aF113.89
aF106.86
aF111.58
aF89.489999999999995
aF227.28999999999999
aF148.09
aF145.09
aF152.18000000000001
aF216.24000000000001
aF146.08000000000001
aF132.66
aF160.25999999999999
aF168.69999999999999
aF186.53999999999999
aF110.51000000000001
aF99.819999999999993
aF115.77
aF120.64
aF123.56999999999999
aF136.58000000000001
aF71.629999999999995
aF231.88999999999999
aF161.46000000000001
aF87.299999999999997
aF190.84
aF268.99000000000001
aF130.50999999999999
aF131.97
aF124.90000000000001
aF256.70999999999998
aF116.89
aF129.59999999999999
aF116.55
aF137.68000000000001
aF227.16999999999999
aF321.25999999999999
aF129.31999999999999
aF216.38
aF147.41
aF114.62
aF163.80000000000001
aF180.55000000000001
aF118.68000000000001
aF205.84
aF147.40000000000001
aF105.95
aF104.45
aF129.36000000000001
aF137.19999999999999
aF130.63
aF110.63
aF139.71000000000001
aF157.37
aF204.90000000000001
aF213.24000000000001
aF132.72
aF147.03999999999999
aF101.34
aF127.84999999999999
aF133.71000000000001
aF128.94
aF123.64
aF156.61000000000001
aF124.63
aF133.56
aF209.03
aF141.75999999999999
aF104.79000000000001
aF109.38
aF116.5
aF224.13999999999999
aF139.33000000000001
aF134.18000000000001
aF55.450000000000003
aF156.44
aF224.06
aF116.56
aF142.84999999999999
aF228.25
aF371.08999999999997
aF228.71000000000001
aF108.95
aF102.91
aF166.28999999999999
aF83.370000000000005
aF133.56
aF140.09
aF134.81
aF127.7
aF227.25999999999999
aF173.78999999999999
aF137.75
aF173.59999999999999
aF147.00999999999999
aF88.530000000000001
aF112.51000000000001
aF163.31
aF106.03
aF122.34
aF137.25999999999999
aF181.38
aF176.87
aF290.10000000000002
aF166.03999999999999
aF231.63
aF339.72000000000003
aF102.73999999999999
aF130.63
aF129.59999999999999
aF106.06999999999999
aF151.72
aF96.450000000000003
aF125.40000000000001
aF92.799999999999997
aF111.98
aF123.41
aF123.61
aF132.75
aF270.00999999999999
aF137.56999999999999
aF140.88999999999999
aF89.450000000000003
aF141.68000000000001
aF228.38
aF128.53999999999999
aF96.980000000000004
aF110.5
aF133.00999999999999
aF114.02
aF104.34
aF138.56999999999999
aF131.22
aF139.56
aF170.05000000000001
aF193.83000000000001
aF116.34
aF95.319999999999993
aF96.060000000000002
aF125.15000000000001
aF150.63999999999999
aF214.97999999999999
aF138.31999999999999
aF126.94
aF114.68000000000001
aF122.40000000000001
aF176.69
aF100.16
aF110.97
aF89.599999999999994
aF113.33
aF240.58000000000001
aF111.25
aF124.55
aF89.159999999999997
aF120.43000000000001
aF215.53
aF118.78
aF161.30000000000001
aF255.93000000000001
aF224.41999999999999
aF117.91
aF94.519999999999996
aF124.53
aF214.78
aF94.019999999999996
aF141.58000000000001
aF105.70999999999999
aF149.40000000000001
aF259.61000000000001
aF152.49000000000001
aF110.20999999999999
aF151.05000000000001
aF145.08000000000001
aF133.31999999999999
aF185.59999999999999
aF129.09
aF159.28
aF223.00999999999999
aF111.58
aF183.44
aF141.69
aF130.31
aF129.09
aF347.06999999999999
aF188.63
aF143.19999999999999
aF127.22
aF316.63999999999999
aF148.5
aF255.84
aF121.17
aF125.58
aF105.90000000000001
aF100.87
aF114.11
aF119.22
aF107.56
aF152.08000000000001
aF140.18000000000001
aF101.68000000000001
aF123.76000000000001
aF121.48
aF185.02000000000001
aF151.94
aF132.66
aF115.68000000000001
aF109.06
aF112.92
aF103.09999999999999
aF129.63
aF114.81
aF125.62
aF127.09
aF123.3
aF186.91999999999999
aF112.39
aF224.40000000000001
aF142.81999999999999
aF153.22999999999999
aF223.28999999999999
aF197.72
aF102.93000000000001
aF273.69999999999999
aF89.469999999999999
aF112.92
aF133.03999999999999
aF106.27
aF128.94
aF120.23
aF102.17
aF321.66000000000003
aF99.090000000000003
aF246.53999999999999
aF117.69
aF113.09999999999999
aF142.53999999999999
aF130.36000000000001
aF109.5
aF123.11
aF85.840000000000003
aF129.71000000000001
aF149.41999999999999
aF270.02999999999997
aF111.04000000000001
aF198.49000000000001
aF80.459999999999994
aF110.09999999999999
aF133.30000000000001
aF149.34999999999999
aF73.269999999999996
aF139.91
aF161.83000000000001
aF120.73
aF162.66999999999999
aF137.84999999999999
aF130.47999999999999
aF110.55
aF196.31
aF197.25
aF99.700000000000003
aF82.849999999999994
aF139.21000000000001
aF134.38
aF128.25
aF141.69999999999999
aF204.78999999999999
aF119.18000000000001
aF150.13
aF138.31999999999999
aF237.41999999999999
aF153.81
aF142.71000000000001
aF149.69
aF130.68000000000001
aF120.06999999999999
aF98.930000000000007
aF81.459999999999994
aF117.41
aF111.73999999999999
aF214.15000000000001
aF199.66
aF117.47
aF161.08000000000001
aF137.81999999999999
aF143.47999999999999
aF95.209999999999994
aF144.00999999999999
aF241.59
aF122.78
aF124.83
aF105.77
aF110.23999999999999
aF192.16
aF126.34
aF139.55000000000001
aF100.93000000000001
aF152.06
aF104.40000000000001
aF110.58
aF127.59999999999999
aF135.33000000000001
aF132.81
aF132.47
aF216.97
aF114.98999999999999
aF193.81999999999999
aF93.069999999999993
aF133.03999999999999
aF160.37
aF99.989999999999995
aF131.55000000000001
aF153.47999999999999
aF87.980000000000004
aF99.560000000000002
aF126.97
aF121.18000000000001
aF120.86
aF167.97
aF128.81999999999999
aF99.489999999999995
aF138.22
aF135.06
aF125.90000000000001
aF116.48999999999999
aF168.5
aF145.75999999999999
aF158.44
aF175.38999999999999
aF184.75
aF84.590000000000003
aF130.94
aF105.29000000000001
aF131.78999999999999
aF136
aF306.25
aF131.53999999999999
aF242.13999999999999
aF115.12
aF138.97999999999999
aF139.18000000000001
aF160.63
aF119.90000000000001
aF170.16
aF123.05
aF108.83
aF121.45
aF101.59
aF104.26000000000001
aF145.78
aF301.06999999999999
aF206.40000000000001
aF118.86
aF103.73999999999999
aF89.549999999999997
aF213.41999999999999
aF136.91
aF135.40000000000001
aF228.86000000000001
aF159.24000000000001
aF120.88
aF260.81999999999999
aF128.84
aF293.72000000000003
aF110.89
aF139.88
aF124.89
aF134.44
aF125.23
aF121.45
aF176.86000000000001
aF221.66
aF108.02
aF71.060000000000002
aF156.25
aF138.08000000000001
aF204.93000000000001
aF121.94
aF332.27999999999997
aF96.920000000000002
aF191.55000000000001
aF105.25
aF162.43000000000001
aF133.86000000000001
aF188.09999999999999
aF106.95999999999999
aF179.91999999999999
aF116.3
aF130.81
aF148.66999999999999
aF128.18000000000001
aF120.41
aF121.18000000000001
aF130.31
aF170.19999999999999
aF122.03
aF162.84999999999999
aF123.36
aF91.840000000000003
aF118.73999999999999
aF279.86000000000001
aF112.3
aF100.78
aF132.84999999999999
aF178.69
aF110.06999999999999
aF155.15000000000001
aF102.02
aF188.78999999999999
aF172.41999999999999
aF107.56
aF104.86
aF257.11000000000001
aF126.88
aF198.77000000000001
aF102.40000000000001
aF113.41
aF173.27000000000001
aF96.620000000000005
aF129.5
aF166.46000000000001
aF290.91000000000003
aF92.579999999999998
aF129.24000000000001
aF240.08000000000001
aF96.599999999999994
aF222.06999999999999
aF104.63
aF86.159999999999997
aF121.26000000000001
aF167.50999999999999
aF111.40000000000001
aF211.69999999999999
aF112.65000000000001
aF120.97
aF159.40000000000001
aF183.61000000000001
aF147.49000000000001
aF158.09
aF135.80000000000001
aF128.25999999999999
aF316.12
aF135.19999999999999
aF121.19
aF163.38999999999999
aF145.22
aF154.74000000000001
aF206.75
aF157.91
aF120.43000000000001
aF107.47
aF108.05
aF148.53
aF121.92
aF120.05
aF78.5
aF109.98
aF179.15000000000001
aF91.930000000000007
aF136.47
aF117.86
aF153.69999999999999
aF185.00999999999999
aF144.11000000000001
aF156.72
aF80.519999999999996
aF171.38
aF127.19
aF133.75999999999999
aF95.010000000000005
aF125.8
aF147.93000000000001
aF118.48999999999999
aF130.12
aF136.97999999999999
aF132.34999999999999
aF116.70999999999999
aF82.700000000000003
aF130.69
aF90.920000000000002
aF115.08
aF122.88
aF106.84
aF131.46000000000001
aF120.58
aF128.66999999999999
aF120.15000000000001
aF198.93000000000001
aF130.38999999999999
aF138.52000000000001
aF132.88999999999999
aF133.16
aF261.06999999999999
aF147.88999999999999
aF141.19999999999999
aF160.30000000000001
aF218.53999999999999
aF157.13999999999999
aF126.73
aF68.189999999999998
aF139.34
aF250.69999999999999
aF110.8
aF265.80000000000001
aF192.56
aF105.79000000000001
aF166.49000000000001
aF218.59
aF127.70999999999999
aF117.59999999999999
aF127.78
aF137.27000000000001
aF185.02000000000001
aF116.31999999999999
aF133.97
aF186.02000000000001
aF121.72
aF85.159999999999997
aF127.58
aF131.91
aF163.30000000000001
aF252.16999999999999
aF113.5
aF116.3
aF164.97
aF139.03999999999999
aF127.52
aF329.97000000000003
aF214.27000000000001
aF114.56999999999999
aF111.33
aF186.52000000000001
aF101.14
aF99.459999999999994
aF144.61000000000001
aF78.120000000000005
aF129.69999999999999
aF182.77000000000001
aF109.52
aF118.87
aF130.33000000000001
aF132.59
aF157.94999999999999
aF152.25999999999999
aF122.97
aF133.47
aF100.01000000000001
aF127.19
aF166.94
aF112.06999999999999
aF212.28
aF137.25
aF135.97
aF146.06999999999999
aF192.25999999999999
aF114.40000000000001
aF133.03999999999999
aF330.68000000000001
aF142.68000000000001
aF93.920000000000002
aF107.8
aF136.88999999999999
aF129.83000000000001
aF144.16999999999999
aF124.93000000000001
aF63.460000000000001
aF147.36000000000001
aF275.42000000000002
aF246.72999999999999
aF147.38999999999999
aF137.80000000000001
aF142.19999999999999
aF239.30000000000001
aF158.65000000000001
aF238.40000000000001
aF138.53999999999999
aF126.78
aF148.33000000000001
aF113.59
aF156
aF122.69
aF206.83000000000001
aF125.33
aF144.34999999999999
aF117.5
aF132.94999999999999
aF200.16999999999999
aF111.73
aF167.80000000000001
aF234.16
aF154.37
aF113.15000000000001
aF177.97
aF191.12
aF231.87
aF115.7
aF86.379999999999995
aF127.38
aF113.75
aF395.69999999999999
aF114.51000000000001
aF166.81999999999999
aF100.61
aF199.03999999999999
aF153.41
aF110.94
aF145.66999999999999
aF292.79000000000002
aF145.99000000000001
aF114.09
aF117.25
aF137.30000000000001
aF73.709999999999994
aF199.88999999999999
aF131.02000000000001
aF117
aF145.28999999999999
aF118.7
aF117.68000000000001
aF124.23999999999999
aF145.41999999999999
aF149.56999999999999
aF65.560000000000002
aF129.88
aF98.599999999999994
aF84.930000000000007
aF96.409999999999997
aF133.63
aF103.79000000000001
aF206.34
aF241.30000000000001
aF149.19999999999999
aF130.78999999999999
aF89.060000000000002
aF61.719999999999999
aF136.59
aF121.43000000000001
aF119.69
aF129.18000000000001
aF91.900000000000006
aF110.27
aF119.5
aF120.5
aF144.06
aF139.03
aF117.81
aF124.28
aF117.36
aF125.13
aF107.23
aF129.09
aF88.609999999999999
aF242.05000000000001
aF69.890000000000001
aF129.49000000000001
aF142.80000000000001
aF112.72
aF130.78
aF140.41999999999999
aF205.25999999999999
aF235.13999999999999
aF152.96000000000001
aF94.069999999999993
aF146.03
aF175.34
aF117.65000000000001
aF104.11
aF181.88999999999999
aF128.43000000000001
aF279.43000000000001
aF134.94999999999999
aF131.66
aF95.439999999999998
aF137.69
aF142.16
aF125
aF126.83
aF108.64
aF239.09
aF79.920000000000002
aF120.12
aF88.730000000000004
aF120.33
aF228.27000000000001
aF128.21000000000001
aF146.75
aF78.439999999999998
aF137.47999999999999
aF132.09
aF213.15000000000001
aF129.28
aF126.33
aF242.94999999999999
aF158.66999999999999
aF273.50999999999999
aF204.75999999999999
aF148.99000000000001
aF119.18000000000001
aF124.93000000000001
aF111.22
aF127.95
aF117
aF218.38
aF178.83000000000001
aF160.94999999999999
aF124.04000000000001
aF129.08000000000001
aF158.08000000000001
aF106.56999999999999
aF123.67
aF124.81
aF166.46000000000001
aF110.36
aF88.620000000000005
aF167.66999999999999
aF131.80000000000001
aF137.21000000000001
aF147
aF133.18000000000001
aF160.69
aF83.310000000000002
aF140.75999999999999
aF173.19
aF99.040000000000006
aF223.88
aF122.11
aF135.69999999999999
aF95.450000000000003
aF116.06999999999999
aF372.81999999999999
aF96.209999999999994
aF253.52000000000001
aF128.21000000000001
aF116.17
aF120.33
aF145.91
aF135.94
aF143.55000000000001
aF151.68000000000001
aF115.61
aF155.77000000000001
aF140.02000000000001
aF102.27
aF110.06
aF173.77000000000001
aF159.13999999999999
aF205.28999999999999
aF111.37
aF111.66
aF102.37
aF103.34999999999999
aF110.78
aF104.67
aF154.25999999999999
aF142.00999999999999
aF121.33
aF122.20999999999999
aF113.72
aF134.03
aF143.16999999999999
aF146.78999999999999
aF134.83000000000001
aF99.920000000000002
aF127.06
aF221.69999999999999
aF161.16999999999999
aF171.16
aF114.18000000000001
aF136.34999999999999
aF76.590000000000003
aF234.21000000000001
aF85.299999999999997
aF144.21000000000001
aF112.63
aF200.62
aF132.08000000000001
aF112.33
aF103.90000000000001
aF128.97999999999999
aF164.94999999999999
aF151.96000000000001
aF173.12
aF106.7
aF140.88
aF134.09999999999999
aF130.72
aF146.08000000000001
aF113.81999999999999
aF99.319999999999993
aF92.079999999999998
aF90.090000000000003
aF85.049999999999997
aF239.59
aF122.76000000000001
aF183.12
aF231.87
aF126.94
aF144.84999999999999
aF115.33
aF213.97
aF121.52
aF215.75999999999999
aF192.25999999999999
aF131.41999999999999
aF113.56
aF133.53
aF123.48999999999999
aF115.89
aF111.73999999999999
aF124.7
aF100.94
aF185.84999999999999
aF188.59999999999999
aF131.08000000000001
aF153.31999999999999
aF283.22000000000003
aF123.12
aF130.44
aF130.77000000000001
aF126.98999999999999
aF78.010000000000005
aF245.34999999999999
aF203.03
aF123.27
aF134.24000000000001
aF112.40000000000001
aF167.94
aF107.16
aF102.45999999999999
aF98.730000000000004
aF157.52000000000001
aF152.21000000000001
aF118.69
aF78.590000000000003
aF138.78
aF122.89
aF132.55000000000001
aF137.72999999999999
aF126.5
aF154.18000000000001
aF112.55
aF311.91000000000003
aF95.340000000000003
aF136.77000000000001
aF114.36
aF172.96000000000001
aF181.77000000000001
aF106.33
aF174.47
aF68.239999999999995
aF164.09999999999999
aF118.70999999999999
aF83.920000000000002
aF137.31
aF89.239999999999995
aF68.510000000000005
aF114.19
aF215.77000000000001
aF129.05000000000001
aF126.38
aF197.16
aF137.34
aF134.5
aF116.91
aF113.86
asS'Entropy'
p4
(lp5
F6.7999999999999998
aF6.7000000000000002
aF6.9500000000000002
aF6.5499999999999998
aF7.5700000000000003
aF7.1100000000000003
aF8.6899999999999995
aF6.6600000000000001
aF7.7199999999999998
aF6.9400000000000004
aF6.9400000000000004
aF7.5099999999999998
aF6.46
aF7.3099999999999996
aF7.4199999999999999
aF7.2000000000000002
aF7.7800000000000002
aF7.2000000000000002
aF6.6600000000000001
aF7.25
aF6.9000000000000004
aF7.6200000000000001
aF7.5300000000000002
aF7.7599999999999998
aF6.9900000000000002
aF7.6299999999999999
aF7.79
aF7.9900000000000002
aF7.1299999999999999
aF7.6900000000000004
aF6.9699999999999998
aF7.3399999999999999
aF7.4800000000000004
aF7.9699999999999998
aF6.9299999999999997
aF7.25
aF7.1799999999999997
aF7
aF7.5999999999999996
aF7
aF6.1799999999999997
aF6.8700000000000001
aF7.04
aF7.0499999999999998
aF7.3700000000000001
aF7.4299999999999997
aF7.8499999999999996
aF7.04
aF8.0700000000000003
aF6.8099999999999996
aF7.0700000000000003
aF7.79
aF6.8799999999999999
aF7.3600000000000003
aF7.7800000000000002
aF6.5300000000000002
aF7.3799999999999999
aF6.71
aF6.9400000000000004
aF6.5899999999999999
aF6.9199999999999999
aF7.1799999999999997
aF7.3799999999999999
aF7.5899999999999999
aF7.1200000000000001
aF7.0800000000000001
aF6.8200000000000003
aF7.7800000000000002
aF7.3099999999999996
aF7.1299999999999999
aF6.9500000000000002
aF7.0800000000000001
aF7.1799999999999997
aF7.2000000000000002
aF7.4100000000000001
aF7
aF6.7400000000000002
aF7.21
aF7.0099999999999998
aF7.4699999999999998
aF7.6600000000000001
aF7.0099999999999998
aF6.9699999999999998
aF6.8099999999999996
aF7.4199999999999999
aF7.0800000000000001
aF7.2400000000000002
aF7.8499999999999996
aF6.79
aF7.4400000000000004
aF7.3799999999999999
aF6.9900000000000002
aF7.1500000000000004
aF7.3099999999999996
aF6.7699999999999996
aF6.9299999999999997
aF6.9699999999999998
aF6.8899999999999997
aF6.9100000000000001
aF7.79
aF7.1900000000000004
aF7.29
aF7.2300000000000004
aF7.8200000000000003
aF6.8300000000000001
aF7.4100000000000001
aF7.9900000000000002
aF8.4199999999999999
aF7.04
aF6.9100000000000001
aF7.2699999999999996
aF7.2199999999999998
aF7.3799999999999999
aF6.6699999999999999
aF7.1600000000000001
aF7
aF6.7599999999999998
aF7.2199999999999998
aF6.7000000000000002
aF7.0199999999999996
aF7.0700000000000003
aF6.9699999999999998
aF6.3300000000000001
aF7.29
aF6.71
aF7.2599999999999998
aF6.6200000000000001
aF7.1299999999999999
aF7.9900000000000002
aF7.8300000000000001
aF6.9100000000000001
aF7.1399999999999997
aF6.9400000000000004
aF6.2800000000000002
aF6.9400000000000004
aF7.8899999999999997
aF6.8300000000000001
aF6.7400000000000002
aF6.7999999999999998
aF6.4800000000000004
aF7.8300000000000001
aF7.21
aF7.1799999999999997
aF7.25
aF7.7599999999999998
aF7.1900000000000004
aF7.0499999999999998
aF7.3200000000000003
aF7.4000000000000004
aF7.54
aF6.79
aF6.6399999999999997
aF6.8600000000000003
aF6.9100000000000001
aF6.9500000000000002
aF7.0899999999999999
aF6.1600000000000001
aF7.8600000000000003
aF7.3399999999999999
aF6.4500000000000002
aF7.5800000000000001
aF8.0700000000000003
aF7.0300000000000002
aF7.04
aF6.96
aF8
aF6.8700000000000001
aF7.0199999999999996
aF6.8600000000000003
aF7.1100000000000003
aF7.8300000000000001
aF8.3300000000000001
aF7.0099999999999998
aF7.7599999999999998
aF7.2000000000000002
aF6.8399999999999999
aF7.3600000000000003
aF7.5
aF6.8899999999999997
aF7.6900000000000004
aF7.2000000000000002
aF6.7300000000000004
aF6.71
aF7.0199999999999996
aF7.0999999999999996
aF7.0300000000000002
aF6.79
aF7.1299999999999999
aF7.2999999999999998
aF7.6799999999999997
aF7.7400000000000002
aF7.0499999999999998
aF7.2000000000000002
aF6.6600000000000001
aF7
aF7.0599999999999996
aF7.0099999999999998
aF6.9500000000000002
aF7.29
aF6.96
aF7.0599999999999996
aF7.71
aF7.1500000000000004
aF6.71
aF6.7699999999999996
aF6.8600000000000003
aF7.8099999999999996
aF7.1200000000000001
aF7.0700000000000003
aF5.79
aF7.29
aF7.8099999999999996
aF6.8600000000000003
aF7.1600000000000001
aF7.8300000000000001
aF8.5399999999999991
aF7.8399999999999999
aF6.7699999999999996
aF6.6900000000000004
aF7.3799999999999999
aF6.3799999999999999
aF7.0599999999999996
aF7.1299999999999999
aF7.0700000000000003
aF7
aF7.8300000000000001
aF7.4400000000000004
aF7.1100000000000003
aF7.4400000000000004
aF7.2000000000000002
aF6.4699999999999998
aF6.8099999999999996
aF7.3499999999999996
aF6.7300000000000004
aF6.9299999999999997
aF7.0999999999999996
aF7.5
aF7.4699999999999998
aF8.1799999999999997
aF7.3799999999999999
aF7.8600000000000003
aF8.4100000000000001
aF6.6799999999999997
aF7.0300000000000002
aF7.0199999999999996
aF6.7300000000000004
aF7.25
aF6.5899999999999999
aF6.9699999999999998
aF6.54
aF6.8099999999999996
aF6.9500000000000002
aF6.9500000000000002
aF7.0499999999999998
aF8.0800000000000001
aF7.0999999999999996
aF7.1399999999999997
aF6.4800000000000004
aF7.1500000000000004
aF7.8399999999999999
aF7.0099999999999998
aF6.5999999999999996
aF6.79
aF7.0599999999999996
aF6.8300000000000001
aF6.71
aF7.1100000000000003
aF7.04
aF7.1200000000000001
aF7.4100000000000001
aF7.5999999999999996
aF6.8600000000000003
aF6.5700000000000003
aF6.5899999999999999
aF6.9699999999999998
aF7.2300000000000004
aF7.75
aF7.1100000000000003
aF6.9900000000000002
aF6.8399999999999999
aF6.9400000000000004
aF7.4699999999999998
aF6.6500000000000004
aF6.79
aF6.4900000000000002
aF6.8200000000000003
aF7.9100000000000001
aF6.7999999999999998
aF6.96
aF6.4800000000000004
aF6.9100000000000001
aF7.75
aF6.8899999999999997
aF7.3300000000000001
aF8
aF7.8099999999999996
aF6.8799999999999999
aF6.5599999999999996
aF6.96
aF7.75
aF6.5499999999999998
aF7.1500000000000004
aF6.7199999999999998
aF7.2199999999999998
aF8.0199999999999996
aF7.25
aF6.7800000000000002
aF7.2400000000000002
aF7.1799999999999997
aF7.0599999999999996
aF7.54
aF7.0099999999999998
aF7.3200000000000003
aF7.7999999999999998
aF6.7999999999999998
aF7.5199999999999996
aF7.1500000000000004
aF7.0300000000000002
aF7.0099999999999998
aF8.4399999999999995
aF7.5599999999999996
aF7.1600000000000001
aF6.9900000000000002
aF8.3100000000000005
aF7.21
aF8
aF6.9199999999999999
aF6.9699999999999998
aF6.7300000000000004
aF6.6600000000000001
aF6.8300000000000001
aF6.9000000000000004
aF6.75
aF7.25
aF7.1299999999999999
aF6.6699999999999999
aF6.9500000000000002
aF6.9199999999999999
aF7.5300000000000002
aF7.25
aF7.0499999999999998
aF6.8499999999999996
aF6.7699999999999996
aF6.8200000000000003
aF6.6900000000000004
aF7.0199999999999996
aF6.8399999999999999
aF6.9699999999999998
aF6.9900000000000002
aF6.9500000000000002
aF7.5499999999999998
aF6.8099999999999996
aF7.8099999999999996
aF7.1600000000000001
aF7.2599999999999998
aF7.7999999999999998
aF7.6299999999999999
aF6.6900000000000004
aF8.0999999999999996
aF6.4800000000000004
aF6.8200000000000003
aF7.0599999999999996
aF6.7300000000000004
aF7.0099999999999998
aF6.9100000000000001
aF6.6699999999999999
aF8.3300000000000001
aF6.6299999999999999
aF7.9500000000000002
aF6.8799999999999999
aF6.8200000000000003
aF7.1600000000000001
aF7.0300000000000002
aF6.7699999999999996
aF6.9400000000000004
aF6.4199999999999999
aF7.0199999999999996
aF7.2199999999999998
aF8.0800000000000001
aF6.79
aF7.6299999999999999
aF6.3300000000000001
aF6.7800000000000002
aF7.0599999999999996
aF7.2199999999999998
aF6.2000000000000002
aF7.1299999999999999
aF7.3399999999999999
aF6.9199999999999999
aF7.3499999999999996
aF7.1100000000000003
aF7.0300000000000002
aF6.79
aF7.6200000000000001
aF7.6200000000000001
aF6.6399999999999997
aF6.3700000000000001
aF7.1200000000000001
aF7.0700000000000003
aF7
aF7.1500000000000004
aF7.6799999999999997
aF6.9000000000000004
aF7.2300000000000004
aF7.1100000000000003
aF7.8899999999999997
aF7.2699999999999996
aF7.1600000000000001
aF7.2300000000000004
aF7.0300000000000002
aF6.9100000000000001
aF6.6299999999999999
aF6.3499999999999996
aF6.8799999999999999
aF6.7999999999999998
aF7.7400000000000002
aF7.6399999999999997
aF6.8799999999999999
aF7.3300000000000001
aF7.1100000000000003
aF7.1600000000000001
aF6.5700000000000003
aF7.1699999999999999
aF7.9199999999999999
aF6.9400000000000004
aF6.96
aF6.7199999999999998
aF6.7800000000000002
aF7.5899999999999999
aF6.9800000000000004
aF7.1200000000000001
aF6.6600000000000001
aF7.25
aF6.71
aF6.79
aF7
aF7.0800000000000001
aF7.0499999999999998
aF7.0499999999999998
aF7.7599999999999998
aF6.8499999999999996
aF7.5999999999999996
aF6.54
aF7.0599999999999996
aF7.3300000000000001
aF6.6399999999999997
aF7.04
aF7.2599999999999998
aF6.46
aF6.6399999999999997
aF6.9900000000000002
aF6.9199999999999999
aF6.9199999999999999
aF7.3899999999999997
aF7.0099999999999998
aF6.6399999999999997
aF7.1100000000000003
aF7.0800000000000001
aF6.9800000000000004
aF6.8600000000000003
aF7.4000000000000004
aF7.1900000000000004
aF7.3099999999999996
aF7.4500000000000002
aF7.5300000000000002
aF6.4000000000000004
aF7.0300000000000002
aF6.7199999999999998
aF7.04
aF7.0899999999999999
aF8.2599999999999998
aF7.04
aF7.9199999999999999
aF6.8499999999999996
aF7.1200000000000001
aF7.1200000000000001
aF7.3300000000000001
aF6.9100000000000001
aF7.4100000000000001
aF6.9400000000000004
aF6.7699999999999996
aF6.9199999999999999
aF6.6699999999999999
aF6.7000000000000002
aF7.1900000000000004
aF8.2300000000000004
aF7.6900000000000004
aF6.8899999999999997
aF6.7000000000000002
aF6.4800000000000004
aF7.7400000000000002
aF7.0999999999999996
aF7.0800000000000001
aF7.8399999999999999
aF7.3200000000000003
aF6.9199999999999999
aF8.0299999999999994
aF7.0099999999999998
aF8.1999999999999993
aF6.79
aF7.1299999999999999
aF6.96
aF7.0700000000000003
aF6.9699999999999998
aF6.9199999999999999
aF7.4699999999999998
aF7.79
aF6.7599999999999998
aF6.1500000000000004
aF7.29
aF7.1100000000000003
aF7.6799999999999997
aF6.9299999999999997
aF8.3800000000000008
aF6.5999999999999996
aF7.5800000000000001
aF6.7199999999999998
aF7.3399999999999999
aF7.0599999999999996
aF7.5599999999999996
aF6.7400000000000002
aF7.4900000000000002
aF6.8600000000000003
aF7.0300000000000002
aF7.2199999999999998
aF7
aF6.9100000000000001
aF6.9199999999999999
aF7.0300000000000002
aF7.4100000000000001
aF6.9299999999999997
aF7.3499999999999996
aF6.9500000000000002
aF6.5199999999999996
aF6.8899999999999997
aF8.1300000000000008
aF6.8099999999999996
aF6.6600000000000001
aF7.0499999999999998
aF7.4800000000000004
aF6.7800000000000002
aF7.2800000000000002
aF6.6699999999999999
aF7.5599999999999996
aF7.4299999999999997
aF6.75
aF6.71
aF8.0099999999999998
aF6.9900000000000002
aF7.6299999999999999
aF6.6799999999999997
aF6.8300000000000001
aF7.4400000000000004
aF6.5899999999999999
aF7.0199999999999996
aF7.3799999999999999
aF8.1799999999999997
aF6.5300000000000002
aF7.0099999999999998
aF7.9100000000000001
aF6.5899999999999999
aF7.79
aF6.71
aF6.4299999999999997
aF6.9199999999999999
aF7.3899999999999997
aF6.7999999999999998
aF7.7300000000000004
aF6.8200000000000003
aF6.9199999999999999
aF7.3200000000000003
aF7.5199999999999996
aF7.2000000000000002
aF7.2999999999999998
aF7.0899999999999999
aF7
aF8.3000000000000007
aF7.0800000000000001
aF6.9199999999999999
aF7.3499999999999996
aF7.1799999999999997
aF7.2699999999999996
aF7.6900000000000004
aF7.2999999999999998
aF6.9100000000000001
aF6.75
aF6.7599999999999998
aF7.21
aF6.9299999999999997
aF6.9100000000000001
aF6.29
aF6.7800000000000002
aF7.4800000000000004
aF6.5199999999999996
aF7.0899999999999999
aF6.8799999999999999
aF7.2599999999999998
aF7.5300000000000002
aF7.1699999999999999
aF7.29
aF6.3300000000000001
aF7.4199999999999999
aF6.9900000000000002
aF7.0599999999999996
aF6.5700000000000003
aF6.9699999999999998
aF7.21
aF6.8899999999999997
aF7.0199999999999996
aF7.0999999999999996
aF7.0499999999999998
aF6.8700000000000001
aF6.3700000000000001
aF7.0300000000000002
aF6.5099999999999998
aF6.8499999999999996
aF6.9400000000000004
aF6.7400000000000002
aF7.04
aF6.9100000000000001
aF7.0099999999999998
aF6.9100000000000001
aF7.6399999999999997
aF7.0300000000000002
aF7.1100000000000003
aF7.0499999999999998
aF7.0599999999999996
aF8.0299999999999994
aF7.21
aF7.1399999999999997
aF7.3200000000000003
aF7.7699999999999996
aF7.2999999999999998
aF6.9900000000000002
aF6.0899999999999999
aF7.1200000000000001
aF7.9699999999999998
aF6.79
aF8.0500000000000007
aF7.5899999999999999
aF6.7300000000000004
aF7.3799999999999999
aF7.7699999999999996
aF7
aF6.8799999999999999
aF7
aF7.0999999999999996
aF7.5300000000000002
aF6.8600000000000003
aF7.0700000000000003
aF7.54
aF6.9299999999999997
aF6.4100000000000001
aF7
aF7.04
aF7.3499999999999996
aF7.9800000000000004
aF6.8300000000000001
aF6.8600000000000003
aF7.3700000000000001
aF7.1200000000000001
aF6.9900000000000002
aF8.3699999999999992
aF7.7400000000000002
aF6.8399999999999999
aF6.7999999999999998
aF7.54
aF6.6600000000000001
aF6.6399999999999997
aF7.1799999999999997
aF6.29
aF7.0199999999999996
aF7.5099999999999998
aF6.7800000000000002
aF6.8899999999999997
aF7.0300000000000002
aF7.0499999999999998
aF7.2999999999999998
aF7.25
aF6.9400000000000004
aF7.0599999999999996
aF6.6399999999999997
aF6.9900000000000002
aF7.3799999999999999
aF6.8099999999999996
aF7.7300000000000004
aF7.0999999999999996
aF7.0899999999999999
aF7.1900000000000004
aF7.5899999999999999
aF6.8399999999999999
aF7.0599999999999996
aF8.3699999999999992
aF7.1600000000000001
aF6.5499999999999998
aF6.75
aF7.0999999999999996
aF7.0199999999999996
aF7.1699999999999999
aF6.96
aF5.9900000000000002
aF7.2000000000000002
aF8.1099999999999994
aF7.9500000000000002
aF7.2000000000000002
aF7.1100000000000003
aF7.1500000000000004
aF7.9000000000000004
aF7.3099999999999996
aF7.9000000000000004
aF7.1100000000000003
aF6.9900000000000002
aF7.21
aF6.8300000000000001
aF7.29
aF6.9400000000000004
aF7.6900000000000004
aF6.9699999999999998
aF7.1699999999999999
aF6.8799999999999999
aF7.0499999999999998
aF7.6500000000000004
aF6.7999999999999998
aF7.3899999999999997
aF7.8700000000000001
aF7.2699999999999996
aF6.8200000000000003
aF7.4800000000000004
aF7.5800000000000001
aF7.8600000000000003
aF6.8499999999999996
aF6.4299999999999997
aF6.9900000000000002
aF6.8300000000000001
aF8.6300000000000008
aF6.8399999999999999
aF7.3799999999999999
aF6.6500000000000004
aF7.6399999999999997
aF7.2599999999999998
aF6.79
aF7.1900000000000004
aF8.1899999999999995
aF7.1900000000000004
aF6.8300000000000001
aF6.8700000000000001
aF7.0999999999999996
aF6.2000000000000002
aF7.6399999999999997
aF7.0300000000000002
aF6.8700000000000001
aF7.1799999999999997
aF6.8899999999999997
aF6.8799999999999999
aF6.96
aF7.1799999999999997
aF7.2199999999999998
aF6.0300000000000002
aF7.0199999999999996
aF6.6200000000000001
aF6.4100000000000001
aF6.5899999999999999
aF7.0599999999999996
aF6.7000000000000002
aF7.6900000000000004
aF7.9100000000000001
aF7.2199999999999998
aF7.0300000000000002
aF6.4800000000000004
aF5.9500000000000002
aF7.0899999999999999
aF6.9199999999999999
aF6.9000000000000004
aF7.0099999999999998
aF6.5199999999999996
aF6.7800000000000002
aF6.9000000000000004
aF6.9100000000000001
aF7.1699999999999999
aF7.1200000000000001
aF6.8799999999999999
aF6.96
aF6.8700000000000001
aF6.9699999999999998
aF6.7400000000000002
aF7.0099999999999998
aF6.4699999999999998
aF7.9199999999999999
aF6.1299999999999999
aF7.0199999999999996
aF7.1600000000000001
aF6.8200000000000003
aF7.0300000000000002
aF7.1299999999999999
aF7.6799999999999997
aF7.8799999999999999
aF7.2599999999999998
aF6.5599999999999996
aF7.1900000000000004
aF7.4500000000000002
aF6.8799999999999999
aF6.7000000000000002
aF7.5099999999999998
aF7
aF8.1300000000000008
aF7.0800000000000001
aF7.04
aF6.5800000000000001
aF7.1100000000000003
aF7.1500000000000004
aF6.9699999999999998
aF6.9900000000000002
aF6.7599999999999998
aF7.9000000000000004
aF6.3200000000000003
aF6.9100000000000001
aF6.4699999999999998
aF6.9100000000000001
aF7.8300000000000001
aF7
aF7.2000000000000002
aF6.29
aF7.0999999999999996
aF7.0499999999999998
aF7.7400000000000002
aF7.0099999999999998
aF6.9800000000000004
aF7.9199999999999999
aF7.3099999999999996
aF8.0999999999999996
aF7.6799999999999997
aF7.2199999999999998
aF6.9000000000000004
aF6.96
aF6.7999999999999998
aF7
aF6.8700000000000001
aF7.7699999999999996
aF7.4800000000000004
aF7.3300000000000001
aF6.9500000000000002
aF7.0099999999999998
aF7.2999999999999998
aF6.7400000000000002
aF6.9500000000000002
aF6.96
aF7.3799999999999999
aF6.79
aF6.4699999999999998
aF7.3899999999999997
aF7.04
aF7.0999999999999996
aF7.2000000000000002
aF7.0599999999999996
aF7.3300000000000001
aF6.3799999999999999
aF7.1399999999999997
aF7.4400000000000004
aF6.6299999999999999
aF7.8099999999999996
aF6.9299999999999997
aF7.0800000000000001
aF6.5800000000000001
aF6.8600000000000003
aF8.5399999999999991
aF6.5899999999999999
aF7.9900000000000002
aF7
aF6.8600000000000003
aF6.9100000000000001
aF7.1900000000000004
aF7.0899999999999999
aF7.1699999999999999
aF7.2400000000000002
aF6.8499999999999996
aF7.2800000000000002
aF7.1299999999999999
aF6.6799999999999997
aF6.7800000000000002
aF7.4400000000000004
aF7.3099999999999996
aF7.6799999999999997
aF6.7999999999999998
aF6.7999999999999998
aF6.6799999999999997
aF6.6900000000000004
aF6.79
aF6.71
aF7.2699999999999996
aF7.1500000000000004
aF6.9199999999999999
aF6.9299999999999997
aF6.8300000000000001
aF7.0700000000000003
aF7.1600000000000001
aF7.2000000000000002
aF7.0700000000000003
aF6.6399999999999997
aF6.9900000000000002
aF7.79
aF7.3300000000000001
aF7.4199999999999999
aF6.8399999999999999
aF7.0899999999999999
aF6.2599999999999998
aF7.8700000000000001
aF6.4100000000000001
aF7.1699999999999999
aF6.8200000000000003
aF7.6500000000000004
aF7.0499999999999998
aF6.8099999999999996
aF6.7000000000000002
aF7.0099999999999998
aF7.3700000000000001
aF7.25
aF7.4400000000000004
aF6.7400000000000002
aF7.1399999999999997
aF7.0700000000000003
aF7.0300000000000002
aF7.1900000000000004
aF6.8300000000000001
aF6.6299999999999999
aF6.5199999999999996
aF6.4900000000000002
aF6.4100000000000001
aF7.9000000000000004
aF6.9400000000000004
aF7.5199999999999996
aF7.8600000000000003
aF6.9900000000000002
aF7.1799999999999997
aF6.8499999999999996
aF7.7400000000000002
aF6.9199999999999999
aF7.75
aF7.5899999999999999
aF7.04
aF6.8300000000000001
aF7.0599999999999996
aF6.9500000000000002
aF6.8600000000000003
aF6.7999999999999998
aF6.96
aF6.6600000000000001
aF7.54
aF7.5599999999999996
aF7.0300000000000002
aF7.2599999999999998
aF8.1500000000000004
aF6.9400000000000004
aF7.0300000000000002
aF7.0300000000000002
aF6.9900000000000002
aF6.29
aF7.9400000000000004
aF7.6699999999999999
aF6.9500000000000002
aF7.0700000000000003
aF6.8099999999999996
aF7.3899999999999997
aF6.7400000000000002
aF6.6799999999999997
aF6.6299999999999999
aF7.2999999999999998
aF7.25
aF6.8899999999999997
aF6.2999999999999998
aF7.1200000000000001
aF6.9400000000000004
aF7.0499999999999998
aF7.1100000000000003
aF6.9800000000000004
aF7.2699999999999996
aF6.8099999999999996
aF8.2799999999999994
aF6.5700000000000003
aF7.0999999999999996
aF6.8399999999999999
aF7.4299999999999997
aF7.5099999999999998
aF6.7300000000000004
aF7.4500000000000002
aF6.0899999999999999
aF7.3600000000000003
aF6.8899999999999997
aF6.3899999999999997
aF7.0999999999999996
aF6.4800000000000004
aF6.0999999999999996
aF6.8399999999999999
aF7.75
aF7.0099999999999998
aF6.9800000000000004
aF7.6200000000000001
aF7.0999999999999996
aF7.0700000000000003
aF6.8700000000000001
aF6.8300000000000001
as.