(dp1
S'perplexity'
p2
(lp3
F607.45000000000005
aF78.959999999999994
aF21.920000000000002
aF96.530000000000001
aF218.38
aF510.51999999999998
aF587.61000000000001
aF170.63999999999999
aF510.49000000000001
aF111.27
aF38.109999999999999
aF68.730000000000004
aF52.549999999999997
aF65.730000000000004
aF81.719999999999999
aF56.079999999999998
aF150.72999999999999
aF64.140000000000001
aF84.019999999999996
aF68.989999999999995
aF113.06999999999999
aF195.28999999999999
aF245.21000000000001
aF265.67000000000002
aF102.93000000000001
aF127.19
aF34.030000000000001
aF91.040000000000006
aF91.400000000000006
aF100.26000000000001
aF33.68
aF467.37
aF75.719999999999999
aF77.420000000000002
aF102.06999999999999
aF199.47
aF106.11
aF78.069999999999993
aF12.119999999999999
aF79.829999999999998
aF49.270000000000003
aF90.159999999999997
aF52.75
aF332.20999999999998
aF64.319999999999993
aF545.83000000000004
aF217.75
aF147.41999999999999
aF286.99000000000001
aF192.97
aF76.870000000000005
aF253.74000000000001
aF73.5
aF125.58
aF74.609999999999999
aF260.54000000000002
aF101.02
aF255.49000000000001
aF619.63
aF135.53
aF82.819999999999993
aF126.78
aF206.58000000000001
aF107.3
aF2.4100000000000001
aF158.66
aF174.05000000000001
aF125.61
aF166.16999999999999
aF93.219999999999999
aF213.36000000000001
aF279.17000000000002
aF17.93
aF55.539999999999999
aF138.28999999999999
aF45.700000000000003
aF47.380000000000003
aF128.74000000000001
aF45.82
aF127.69
aF193.72999999999999
aF519.54999999999995
aF55.5
aF126.51000000000001
aF220.83000000000001
aF132.91999999999999
aF79.060000000000002
aF161.72
aF113.68000000000001
aF201.75
aF115.27
aF150.31999999999999
aF195.33000000000001
aF203.88999999999999
aF9.1699999999999999
aF164.59
aF209.55000000000001
aF71.659999999999997
aF304.95999999999998
aF231.34
aF70.75
aF127.01000000000001
aF111.15000000000001
aF130.36000000000001
aF278.43000000000001
aF161.05000000000001
aF81.739999999999995
aF201.06999999999999
aF29.260000000000002
aF196.08000000000001
aF115.76000000000001
aF114.22
aF81.719999999999999
aF175.96000000000001
aF174.25999999999999
aF74.670000000000002
aF205.78
aF67.900000000000006
aF103.56
aF198.05000000000001
aF105.58
aF322.91000000000003
aF66.870000000000005
aF78.980000000000004
aF81.340000000000003
aF120.81
aF133.34
aF140.81
aF92.209999999999994
aF113.5
aF63.149999999999999
aF119.94
aF95.730000000000004
aF128.87
aF49.740000000000002
aF188.66999999999999
aF175.37
aF134.81
aF91.909999999999997
aF251.87
aF253.43000000000001
aF192.91
aF189.62
aF134.43000000000001
aF237.33000000000001
aF145.11000000000001
aF80.459999999999994
aF212.75999999999999
aF4.2999999999999998
aF112.77
aF61.07
aF151.38
aF101.47
aF268.00999999999999
aF158.53
aF180.69999999999999
aF57.780000000000001
aF125.98999999999999
aF143.02000000000001
aF220.49000000000001
aF84.890000000000001
aF168.00999999999999
aF139.38
aF120.33
aF82.25
aF180.87
aF239.53999999999999
aF130.62
aF98.090000000000003
aF164.68000000000001
aF82.049999999999997
aF121.86
aF97.590000000000003
aF162.66
aF37.590000000000003
aF146.08000000000001
aF80.650000000000006
aF181.40000000000001
aF191.88
aF152.59999999999999
aF117.59
aF165.74000000000001
aF58.390000000000001
aF139.18000000000001
aF101.08
aF143.12
aF58.600000000000001
aF186.11000000000001
aF108.17
aF201.41
aF57.799999999999997
aF151.69
aF51.700000000000003
aF183.69999999999999
aF191.56999999999999
aF168.12
aF186.97
aF157.30000000000001
aF76.409999999999997
aF132.49000000000001
asS'Entropy'
p4
(lp5
F9.25
aF6.2999999999999998
aF4.4500000000000002
aF6.5899999999999999
aF7.7699999999999996
aF9
aF9.1999999999999993
aF7.4100000000000001
aF9
aF6.7999999999999998
aF5.25
aF6.0999999999999996
aF5.7199999999999998
aF6.04
aF6.3499999999999996
aF5.8099999999999996
aF7.2400000000000002
aF6
aF6.3899999999999997
aF6.1100000000000003
aF6.8200000000000003
aF7.6100000000000003
aF7.9400000000000004
aF8.0500000000000007
aF6.6900000000000004
aF6.9900000000000002
aF5.0899999999999999
aF6.5099999999999998
aF6.5099999999999998
aF6.6500000000000004
aF5.0700000000000003
aF8.8699999999999992
aF6.2400000000000002
aF6.2699999999999996
aF6.6699999999999999
aF7.6399999999999997
aF6.7300000000000004
aF6.29
aF3.6000000000000001
aF6.3200000000000003
aF5.6200000000000001
aF6.4900000000000002
aF5.7199999999999998
aF8.3800000000000008
aF6.0099999999999998
aF9.0899999999999999
aF7.7699999999999996
aF7.2000000000000002
aF8.1600000000000001
aF7.5899999999999999
aF6.2599999999999998
aF7.9900000000000002
aF6.2000000000000002
aF6.9699999999999998
aF6.2199999999999998
aF8.0299999999999994
aF6.6600000000000001
aF8
aF9.2799999999999994
aF7.0800000000000001
aF6.3700000000000001
aF6.9900000000000002
aF7.6900000000000004
aF6.75
aF1.27
aF7.3099999999999996
aF7.4400000000000004
aF6.9699999999999998
aF7.3799999999999999
aF6.54
aF7.7400000000000002
aF8.1300000000000008
aF4.1600000000000001
aF5.7999999999999998
aF7.1100000000000003
aF5.5099999999999998
aF5.5700000000000003
aF7.0099999999999998
aF5.5199999999999996
aF7
aF7.5999999999999996
aF9.0199999999999996
aF5.79
aF6.9800000000000004
aF7.79
aF7.0499999999999998
aF6.2999999999999998
aF7.3399999999999999
aF6.8300000000000001
aF7.6600000000000001
aF6.8499999999999996
aF7.2300000000000004
aF7.6100000000000003
aF7.6699999999999999
aF3.2000000000000002
aF7.3600000000000003
aF7.71
aF6.1600000000000001
aF8.25
aF7.8499999999999996
aF6.1399999999999997
aF6.9900000000000002
aF6.7999999999999998
aF7.0300000000000002
aF8.1199999999999992
aF7.3300000000000001
aF6.3499999999999996
aF7.6500000000000004
aF4.8700000000000001
aF7.6200000000000001
aF6.8499999999999996
aF6.8399999999999999
aF6.3499999999999996
aF7.46
aF7.4500000000000002
aF6.2199999999999998
aF7.6799999999999997
aF6.0899999999999999
aF6.6900000000000004
aF7.6299999999999999
aF6.7199999999999998
aF8.3399999999999999
aF6.0599999999999996
aF6.2999999999999998
aF6.3499999999999996
aF6.9199999999999999
aF7.0599999999999996
aF7.1399999999999997
aF6.5300000000000002
aF6.8300000000000001
aF5.9800000000000004
aF6.9100000000000001
aF6.5800000000000001
aF7.0099999999999998
aF5.6399999999999997
aF7.5599999999999996
aF7.4500000000000002
aF7.0700000000000003
aF6.5199999999999996
aF7.9800000000000004
aF7.9900000000000002
aF7.5899999999999999
aF7.5700000000000003
aF7.0700000000000003
aF7.8899999999999997
aF7.1799999999999997
aF6.3300000000000001
aF7.7300000000000004
aF2.1000000000000001
aF6.8200000000000003
aF5.9299999999999997
aF7.2400000000000002
aF6.6600000000000001
aF8.0700000000000003
aF7.3099999999999996
aF7.5
aF5.8499999999999996
aF6.9800000000000004
aF7.1600000000000001
aF7.7800000000000002
aF6.4100000000000001
aF7.3899999999999997
aF7.1200000000000001
aF6.9100000000000001
aF6.3600000000000003
aF7.5
aF7.9000000000000004
aF7.0300000000000002
aF6.6200000000000001
aF7.3600000000000003
aF6.3600000000000003
aF6.9299999999999997
aF6.6100000000000003
aF7.3499999999999996
aF5.2300000000000004
aF7.1900000000000004
aF6.3300000000000001
aF7.5
aF7.5800000000000001
aF7.25
aF6.8799999999999999
aF7.3700000000000001
aF5.8700000000000001
aF7.1200000000000001
aF6.6600000000000001
aF7.1600000000000001
aF5.8700000000000001
aF7.54
aF6.7599999999999998
aF7.6500000000000004
aF5.8499999999999996
aF7.2400000000000002
aF5.6900000000000004
aF7.5199999999999996
aF7.5800000000000001
aF7.3899999999999997
aF7.5499999999999998
aF7.2999999999999998
aF6.2599999999999998
aF7.0499999999999998
as.