(dp1
S'perplexity'
p2
(lp3
F471.87
aF54.329999999999998
aF29.84
aF102.52
aF188.97999999999999
aF249.49000000000001
aF298.11000000000001
aF142.58000000000001
aF368.81
aF45.810000000000002
aF31.73
aF57.159999999999997
aF52.350000000000001
aF51.990000000000002
aF118.89
aF91.909999999999997
aF119.34
aF47.299999999999997
aF123.56
aF105.75
aF113.69
aF200.84
aF316.22000000000003
aF165.15000000000001
aF108.28
aF86.689999999999998
aF38.329999999999998
aF58.93
aF71.670000000000002
aF87.739999999999995
aF41.979999999999997
aF295.5
aF70.049999999999997
aF66.390000000000001
aF95.239999999999995
aF167.49000000000001
aF134.02000000000001
aF76.620000000000005
aF14.07
aF51.390000000000001
aF63.270000000000003
aF71.989999999999995
aF61.520000000000003
aF291.04000000000002
aF60.740000000000002
aF235.44999999999999
aF201.58000000000001
aF107.40000000000001
aF206.37
aF153.25
aF75.079999999999998
aF164.99000000000001
aF79.239999999999995
aF146.25
aF76.140000000000001
aF188.22
aF97.420000000000002
aF128.37
aF693.63
aF94.459999999999994
aF87.400000000000006
aF98.310000000000002
aF171.24000000000001
aF118.95
aF7.2000000000000002
aF60.119999999999997
aF149.31999999999999
aF153.02000000000001
aF208.97999999999999
aF90.590000000000003
aF175.05000000000001
aF132.47
aF39.770000000000003
aF38.729999999999997
aF132.53999999999999
aF27.280000000000001
aF51.590000000000003
aF118.84999999999999
aF51.240000000000002
aF81.799999999999997
aF168.84999999999999
aF331.43000000000001
aF67.540000000000006
aF91.280000000000001
aF210.24000000000001
aF96.75
aF104.33
aF94.090000000000003
aF100.5
aF162.22999999999999
aF113.69
aF100.95
aF156.53
aF181.28
aF17.25
aF138.19999999999999
aF315.32999999999998
aF43.700000000000003
aF287.83999999999997
aF164.81
aF80.290000000000006
aF91.239999999999995
aF132.71000000000001
aF105.40000000000001
aF265.06
aF110.44
aF59.659999999999997
aF89.040000000000006
aF47.219999999999999
aF155.96000000000001
aF108.29000000000001
aF81.180000000000007
aF84.180000000000007
aF161.83000000000001
aF166.71000000000001
aF54.670000000000002
aF182.63
aF58.280000000000001
aF106.87
aF127.66
aF111.37
aF244.06
aF59.43
aF46.399999999999999
aF87.549999999999997
aF70.900000000000006
aF182.90000000000001
aF109.67
aF88.280000000000001
aF79.150000000000006
aF67.590000000000003
aF66.819999999999993
aF93.019999999999996
aF109.63
aF57.850000000000001
aF139.94
aF257.19
aF113.38
aF89.359999999999999
aF164.83000000000001
aF258.54000000000002
aF130.18000000000001
aF129.91
aF92.549999999999997
aF214.69999999999999
aF123.72
aF79.489999999999995
aF142.37
aF32.130000000000003
aF81.890000000000001
aF64.590000000000003
aF113.97
aF94.370000000000005
aF236.66
aF156.24000000000001
aF127.23
aF67.719999999999999
aF95.209999999999994
aF124.86
aF143.52000000000001
aF91.140000000000001
aF126.39
aF128.00999999999999
aF108.5
aF72
aF146.02000000000001
aF255.55000000000001
aF88.219999999999999
aF65.030000000000001
aF138.5
aF92.379999999999995
aF95.790000000000006
aF103.70999999999999
aF124.27
aF50.93
aF121.75
aF81.859999999999999
aF146.59999999999999
aF137.97
aF110.34
aF96.680000000000007
aF113.81999999999999
aF55.409999999999997
aF94.189999999999998
aF86.739999999999995
aF121.58
aF61.590000000000003
aF132.83000000000001
aF114.68000000000001
aF176.77000000000001
aF49.439999999999998
aF119.08
aF50.520000000000003
aF125.36
aF164.41999999999999
aF133.65000000000001
aF204.06999999999999
aF123.64
aF79.040000000000006
aF103.45
asS'Entropy'
p4
(lp5
F8.8800000000000008
aF5.7599999999999998
aF4.9000000000000004
aF6.6799999999999997
aF7.5599999999999996
aF7.96
aF8.2200000000000006
aF7.1600000000000001
aF8.5299999999999994
aF5.5199999999999996
aF4.9900000000000002
aF5.8399999999999999
aF5.71
aF5.7000000000000002
aF6.8899999999999997
aF6.5199999999999996
aF6.9000000000000004
aF5.5599999999999996
aF6.9500000000000002
aF6.7199999999999998
aF6.8300000000000001
aF7.6500000000000004
aF8.3000000000000007
aF7.3700000000000001
aF6.7599999999999998
aF6.4400000000000004
aF5.2599999999999998
aF5.8799999999999999
aF6.1600000000000001
aF6.46
aF5.3899999999999997
aF8.2100000000000009
aF6.1299999999999999
aF6.0499999999999998
aF6.5700000000000003
aF7.3899999999999997
aF7.0700000000000003
aF6.2599999999999998
aF3.8100000000000001
aF5.6799999999999997
aF5.9800000000000004
aF6.1699999999999999
aF5.9400000000000004
aF8.1899999999999995
aF5.9199999999999999
aF7.8799999999999999
aF7.6600000000000001
aF6.75
aF7.6900000000000004
aF7.2599999999999998
aF6.2300000000000004
aF7.3700000000000001
aF6.3099999999999996
aF7.1900000000000004
aF6.25
aF7.5599999999999996
aF6.6100000000000003
aF7
aF9.4399999999999995
aF6.5599999999999996
aF6.4500000000000002
aF6.6200000000000001
aF7.4199999999999999
aF6.8899999999999997
aF2.8500000000000001
aF5.9100000000000001
aF7.2199999999999998
aF7.2599999999999998
aF7.71
aF6.5
aF7.4500000000000002
aF7.0499999999999998
aF5.3099999999999996
aF5.2800000000000002
aF7.0499999999999998
aF4.7699999999999996
aF5.6900000000000004
aF6.8899999999999997
aF5.6799999999999997
aF6.3499999999999996
aF7.4000000000000004
aF8.3699999999999992
aF6.0800000000000001
aF6.5099999999999998
aF7.7199999999999998
aF6.5999999999999996
aF6.71
aF6.5599999999999996
aF6.6500000000000004
aF7.3399999999999999
aF6.8300000000000001
aF6.6600000000000001
aF7.29
aF7.5
aF4.1100000000000003
aF7.1100000000000003
aF8.3000000000000007
aF5.4500000000000002
aF8.1699999999999999
aF7.3600000000000003
aF6.3300000000000001
aF6.5099999999999998
aF7.0499999999999998
aF6.7199999999999998
aF8.0500000000000007
aF6.79
aF5.9000000000000004
aF6.4800000000000004
aF5.5599999999999996
aF7.2800000000000002
aF6.7599999999999998
aF6.3399999999999999
aF6.4000000000000004
aF7.3399999999999999
aF7.3799999999999999
aF5.7699999999999996
aF7.5099999999999998
aF5.8600000000000003
aF6.7400000000000002
aF7
aF6.7999999999999998
aF7.9299999999999997
aF5.8899999999999997
aF5.54
aF6.4500000000000002
aF6.1500000000000004
aF7.5099999999999998
aF6.7800000000000002
aF6.46
aF6.3099999999999996
aF6.0800000000000001
aF6.0599999999999996
aF6.54
aF6.7800000000000002
aF5.8499999999999996
aF7.1299999999999999
aF8.0099999999999998
aF6.8300000000000001
aF6.4800000000000004
aF7.3600000000000003
aF8.0099999999999998
aF7.0199999999999996
aF7.0199999999999996
aF6.5300000000000002
aF7.75
aF6.9500000000000002
aF6.3099999999999996
aF7.1500000000000004
aF5.0099999999999998
aF6.3600000000000003
aF6.0099999999999998
aF6.8300000000000001
aF6.5599999999999996
aF7.8899999999999997
aF7.29
aF6.9900000000000002
aF6.0800000000000001
aF6.5700000000000003
aF6.96
aF7.1699999999999999
aF6.5099999999999998
aF6.9800000000000004
aF7
aF6.7599999999999998
aF6.1699999999999999
aF7.1900000000000004
aF8
aF6.46
aF6.0199999999999996
aF7.1100000000000003
aF6.5300000000000002
aF6.5800000000000001
aF6.7000000000000002
aF6.96
aF5.6699999999999999
aF6.9299999999999997
aF6.3600000000000003
aF7.2000000000000002
aF7.1100000000000003
aF6.79
aF6.5999999999999996
aF6.8300000000000001
aF5.79
aF6.5599999999999996
aF6.4400000000000004
aF6.9299999999999997
aF5.9400000000000004
aF7.0499999999999998
aF6.8399999999999999
aF7.4699999999999998
aF5.6299999999999999
aF6.9000000000000004
aF5.6600000000000001
aF6.9699999999999998
aF7.3600000000000003
aF7.0599999999999996
aF7.6699999999999999
aF6.9500000000000002
aF6.2999999999999998
aF6.6900000000000004
as.