(dp1
S'perplexity'
p2
(lp3
F359.56
aF87.510000000000005
aF35.579999999999998
aF137.62
aF188.34
aF552.66999999999996
aF884.71000000000004
aF163.62
aF471.12
aF68.969999999999999
aF29.68
aF70.849999999999994
aF37.420000000000002
aF58.43
aF109.23999999999999
aF56.380000000000003
aF116.26000000000001
aF63.789999999999999
aF62.590000000000003
aF64.689999999999998
aF124.8
aF178.66999999999999
aF210.34999999999999
aF272.39999999999998
aF138.84
aF115.65000000000001
aF31.809999999999999
aF91.650000000000006
aF85.079999999999998
aF86.519999999999996
aF33.82
aF449.43000000000001
aF87.730000000000004
aF71.459999999999994
aF72.310000000000002
aF186.28
aF107.69
aF538.37
aF12.199999999999999
aF67.239999999999995
aF49.590000000000003
aF98.909999999999997
aF68.219999999999999
aF349.83999999999997
aF71.609999999999999
aF341.19
aF205.03
aF166.91999999999999
aF259.27999999999997
aF205.72999999999999
aF96.560000000000002
aF294.17000000000002
aF58.939999999999998
aF128.87
aF79.489999999999995
aF319.05000000000001
aF76.599999999999994
aF249.27000000000001
aF281.66000000000003
aF119.77
aF96.920000000000002
aF109.05
aF245.90000000000001
aF133.77000000000001
aF3.1800000000000002
aF123.22
aF196.16999999999999
aF151.09
aF113.19
aF116.77
aF263.77999999999997
aF262.95999999999998
aF34.009999999999998
aF43.729999999999997
aF192.30000000000001
aF43
aF46.310000000000002
aF144.34999999999999
aF40.829999999999998
aF75.489999999999995
aF216.5
aF663.11000000000001
aF68.25
aF138.44
aF257.55000000000001
aF119.92
aF74.980000000000004
aF171.03999999999999
aF131.72
aF202.84999999999999
aF135.94
aF168.55000000000001
aF204.11000000000001
aF175.34
aF17.140000000000001
aF148.75
aF207.52000000000001
aF66.760000000000005
aF226.78
aF163.41999999999999
aF74.430000000000007
aF115.40000000000001
aF85.579999999999998
aF114.7
aF232.75999999999999
aF92.989999999999995
aF76.620000000000005
aF95.709999999999994
aF53.770000000000003
aF156.83000000000001
aF142.56999999999999
aF110.12
aF92.819999999999993
aF231.53999999999999
aF179.33000000000001
aF76.890000000000001
aF180.56999999999999
aF70.25
aF122.42
aF229.55000000000001
aF121.79000000000001
aF271.10000000000002
aF61.719999999999999
aF88.280000000000001
aF106.39
aF104.48
aF157.88999999999999
aF133.53999999999999
aF97.519999999999996
aF129.44999999999999
aF73.900000000000006
aF137.59999999999999
aF107.88
aF133.13
aF73.480000000000004
aF153.05000000000001
aF177.44999999999999
aF118.97
aF99.090000000000003
aF246.81
aF296.42000000000002
aF147.56999999999999
aF102.53
aF109.44
aF246.06999999999999
aF143.75999999999999
aF87.159999999999997
aF186.49000000000001
aF29.789999999999999
aF109.45999999999999
aF64.030000000000001
aF167.62
aF127.91
aF216.99000000000001
aF202.5
aF199.78999999999999
aF84.280000000000001
aF124.83
aF157.72999999999999
aF183.86000000000001
aF80.859999999999999
aF146.16999999999999
aF113.73
aF110.48
aF83.019999999999996
aF162.16
aF260.80000000000001
aF105.91
aF90.099999999999994
aF153.93000000000001
aF76.180000000000007
aF113.75
aF114.09999999999999
aF163
aF49.520000000000003
aF126.97
aF86.590000000000003
aF172.59
aF178.34999999999999
aF131.03999999999999
aF122.05
aF138.96000000000001
aF57.950000000000003
aF137.56999999999999
aF90.040000000000006
aF118.95999999999999
aF55.969999999999999
aF153.84999999999999
aF83.930000000000007
aF188.80000000000001
aF55.909999999999997
aF146.34999999999999
aF55.899999999999999
aF167.94999999999999
aF194.88999999999999
aF158.02000000000001
aF198.63
aF176.24000000000001
aF84.359999999999999
aF142.30000000000001
asS'Entropy'
p4
(lp5
F8.4900000000000002
aF6.4500000000000002
aF5.1500000000000004
aF7.0999999999999996
aF7.5599999999999996
aF9.1099999999999994
aF9.7899999999999991
aF7.3499999999999996
aF8.8800000000000008
aF6.1100000000000003
aF4.8899999999999997
aF6.1500000000000004
aF5.2300000000000004
aF5.8700000000000001
aF6.7699999999999996
aF5.8200000000000003
aF6.8600000000000003
aF6
aF5.9699999999999998
aF6.0199999999999996
aF6.96
aF7.4800000000000004
aF7.7199999999999998
aF8.0899999999999999
aF7.1200000000000001
aF6.8499999999999996
aF4.9900000000000002
aF6.5199999999999996
aF6.4100000000000001
aF6.4299999999999997
aF5.0800000000000001
aF8.8100000000000005
aF6.46
aF6.1600000000000001
aF6.1799999999999997
aF7.54
aF6.75
aF9.0700000000000003
aF3.6099999999999999
aF6.0700000000000003
aF5.6299999999999999
aF6.6299999999999999
aF6.0899999999999999
aF8.4499999999999993
aF6.1600000000000001
aF8.4100000000000001
aF7.6799999999999997
aF7.3799999999999999
aF8.0199999999999996
aF7.6799999999999997
aF6.5899999999999999
aF8.1999999999999993
aF5.8799999999999999
aF7.0099999999999998
aF6.3099999999999996
aF8.3200000000000003
aF6.2599999999999998
aF7.96
aF8.1400000000000006
aF6.9000000000000004
aF6.5999999999999996
aF6.7699999999999996
aF7.9400000000000004
aF7.0599999999999996
aF1.6699999999999999
aF6.9500000000000002
aF7.6200000000000001
aF7.2400000000000002
aF6.8200000000000003
aF6.8700000000000001
aF8.0399999999999991
aF8.0399999999999991
aF5.0899999999999999
aF5.4500000000000002
aF7.5899999999999999
aF5.4299999999999997
aF5.5300000000000002
aF7.1699999999999999
aF5.3499999999999996
aF6.2400000000000002
aF7.7599999999999998
aF9.3699999999999992
aF6.0899999999999999
aF7.1100000000000003
aF8.0099999999999998
aF6.9100000000000001
aF6.2300000000000004
aF7.4199999999999999
aF7.04
aF7.6600000000000001
aF7.0899999999999999
aF7.4000000000000004
aF7.6699999999999999
aF7.4500000000000002
aF4.0999999999999996
aF7.2199999999999998
aF7.7000000000000002
aF6.0599999999999996
aF7.8300000000000001
aF7.3499999999999996
aF6.2199999999999998
aF6.8499999999999996
aF6.4199999999999999
aF6.8399999999999999
aF7.8600000000000003
aF6.54
aF6.2599999999999998
aF6.5800000000000001
aF5.75
aF7.29
aF7.1600000000000001
aF6.7800000000000002
aF6.54
aF7.8600000000000003
aF7.4900000000000002
aF6.2599999999999998
aF7.5
aF6.1299999999999999
aF6.9400000000000004
aF7.8399999999999999
aF6.9299999999999997
aF8.0800000000000001
aF5.9500000000000002
aF6.46
aF6.7300000000000004
aF6.71
aF7.2999999999999998
aF7.0599999999999996
aF6.6100000000000003
aF7.0199999999999996
aF6.21
aF7.0999999999999996
aF6.75
aF7.0599999999999996
aF6.2000000000000002
aF7.2599999999999998
aF7.4699999999999998
aF6.8899999999999997
aF6.6299999999999999
aF7.9500000000000002
aF8.2100000000000009
aF7.21
aF6.6799999999999997
aF6.7699999999999996
aF7.9400000000000004
aF7.1699999999999999
aF6.4500000000000002
aF7.54
aF4.9000000000000004
aF6.7699999999999996
aF6
aF7.3899999999999997
aF7
aF7.7599999999999998
aF7.6600000000000001
aF7.6399999999999997
aF6.4000000000000004
aF6.96
aF7.2999999999999998
aF7.5199999999999996
aF6.3399999999999999
aF7.1900000000000004
aF6.8300000000000001
aF6.79
aF6.3799999999999999
aF7.3399999999999999
aF8.0299999999999994
aF6.7300000000000004
aF6.4900000000000002
aF7.2699999999999996
aF6.25
aF6.8300000000000001
aF6.8300000000000001
aF7.3499999999999996
aF5.6299999999999999
aF6.9900000000000002
aF6.4400000000000004
aF7.4299999999999997
aF7.4800000000000004
aF7.0300000000000002
aF6.9299999999999997
aF7.1200000000000001
aF5.8600000000000003
aF7.0999999999999996
aF6.4900000000000002
aF6.8899999999999997
aF5.8099999999999996
aF7.2699999999999996
aF6.3899999999999997
aF7.5599999999999996
aF5.8099999999999996
aF7.1900000000000004
aF5.7999999999999998
aF7.3899999999999997
aF7.6100000000000003
aF7.2999999999999998
aF7.6299999999999999
aF7.46
aF6.4000000000000004
aF7.1500000000000004
as.