(dp1
S'perpIncOov'
p2
(lp3
F1
aF1
aF1
aF1
aF1
aF1
aF1
aF1
aF1
aF1
aF1
aF1
aF1
aF1
aF1
aF1
aF1
aF1
aF1
aF1
aF1
aF1
aF1
aF1
aF1
aF1
aF1
aF1
aF1
aF1
aF1
aF1
aF1
aF1
aF1
aF1
aF1
aF1
aF1
aF1
aF5.5152799999999997
aF5.0574500000000002
aF11.068099999999999
aF80.896100000000004
aF3.9288400000000001
aF74.8934
aF16.8415
aF56.099499999999999
aF11.361000000000001
aF1.3465199999999999
aF12.0152
aF66.803200000000004
aF2.5874600000000001
aF16.8812
aF4.1328899999999997
aF3.1974499999999999
aF11.441000000000001
aF27.587399999999999
aF19.656099999999999
aF5.7028699999999999
aF47.654000000000003
aF18.552800000000001
aF65.056299999999993
aF2.8437000000000001
aF6.2097899999999999
aF33.369900000000001
aF37.788800000000002
aF155.518
aF318.64699999999999
aF20.472200000000001
aF83.946299999999994
aF44.7181
aF17.7761
aF11.712999999999999
aF6.8301600000000002
aF17.772600000000001
aF6.3366800000000003
aF60.806899999999999
aF32.598199999999999
aF23.636500000000002
aF59.4788
aF232.03399999999999
aF13.283799999999999
aF86.189099999999996
aF92.068200000000004
aF18.827200000000001
aF67.9482
aF12.9322
aF23.248999999999999
aF94.246899999999997
aF41.293700000000001
aF49.500999999999998
aF27.328399999999998
aF35.905200000000001
aF4.8024199999999997
aF73.561800000000005
aF237.821
aF25.512499999999999
aF50.630800000000001
aF44.651699999999998
aF44.694499999999998
aF41.2669
aF40.4392
aF5.2923999999999998
aF107.294
aF12.0962
aF40.036700000000003
aF28.485700000000001
aF18.911799999999999
aF139.53800000000001
aF84.162800000000004
aF27.254799999999999
aF64.275400000000005
aF86.501099999999994
aF58.289400000000001
aF44.3964
aF83.552499999999995
aF49.4345
aF79.124799999999993
aF91.863200000000006
aF29.343599999999999
aF61.621400000000001
aF34.414299999999997
aF30.448899999999998
aF49.061500000000002
aF18.511600000000001
aF164.852
aF142.577
aF57.628900000000002
aF71.888300000000001
aF21.924199999999999
aF76.246499999999997
aF77.774699999999996
aF92.7911
aF16.450700000000001
aF54.633600000000001
aF239.97300000000001
aF93.178399999999996
aF11.119400000000001
aF192.12700000000001
aF158.21100000000001
aF64.998400000000004
aF66.783900000000003
aF66.034499999999994
aF127.73099999999999
aF133.874
aF36.416400000000003
aF134.66499999999999
aF18.418299999999999
aF99.881100000000004
aF29.476900000000001
aF67.059399999999997
aF65.079300000000003
aF173.143
aF92.760999999999996
aF148.84
aF38.239800000000002
aF97.324700000000007
aF73.995099999999994
aF146.32300000000001
aF92.131100000000004
aF115.10299999999999
aF142.56800000000001
aF104.36199999999999
aF63.947299999999998
aF99.077299999999994
aF212.976
aF85.756600000000006
aF59.563299999999998
aF174.696
aF62.390500000000003
aF92.398300000000006
aF89.249499999999998
aF120.378
aF42.957299999999996
aF97.743799999999993
aF57.773400000000002
aF136.84700000000001
aF86.062700000000007
aF75.105199999999996
aF96.595699999999994
aF81.245599999999996
aF67.419200000000004
aF94.986800000000002
aF94.111800000000002
aF125.45999999999999
aF61.176200000000001
aF141.774
aF89.342399999999998
aF160.61000000000001
aF40.261000000000003
aF121.11499999999999
aF55.107799999999997
aF104.375
aF209.16300000000001
aF115.554
aF178.41999999999999
aF96.342600000000004
aF62.235900000000001
aF121.568
asS'entroInc'
p4
(lp5
F0
aF0
aF0
aF0
aF0
aF0
aF0
aF0
aF0
aF0
aF0
aF0
aF0
aF0
aF0
aF0
aF0
aF0
aF0
aF0
aF0
aF0
aF0
aF0
aF0
aF0
aF0
aF0
aF0
aF0
aF0
aF0
aF0
aF0
aF0
aF0
aF0
aF0
aF0
aF0
aF2.4634341304870624
aF2.3384101517863027
aF3.4683356787194932
aF6.3379982469086933
aF1.9741034159750881
aF6.2267666813042002
aF4.0739487336590994
aF5.8099160074195586
aF3.5060179219434886
aF0.42923565849649653
aF3.5867887580539941
aF6.0618453070710698
aF1.3715365599075415
aF4.0773455565459225
aF2.0471509658013978
aF1.6769217991957182
aF3.5161412511985692
aF4.785937589858384
aF4.2969051973997674
aF2.5116881460702452
aF5.5745254116031004
aF4.2135650305891694
aF6.0236168680281068
aF1.5077692739090423
aF2.6345444808320186
aF5.0604754580716573
aF5.2398868007957207
aF7.2809377605347914
aF8.3158152678933792
aF4.3555942416328675
aF6.3913948335185511
aF5.4827869865834531
aF4.1518669326753788
aF3.5500387292925439
aF2.7719193747822546
aF4.1515828473130769
aF2.663727161804482
aF5.9261631361708131
aF5.026720399136094
aF4.562944517607769
aF5.8943036358299308
aF7.8581924090820587
aF3.7315960018845629
aF6.4294335237113955
aF6.5246310359555624
aF4.2347465517443226
aF6.0863634282866572
aF3.6928958193088017
aF4.5390967583739465
aF6.5583732604497884
aF5.3678497876203322
aF5.6293857651395776
aF4.7723290915345542
aF5.1661208935580776
aF2.2637615812901615
aF6.2008848766940625
aF7.8937323029163213
aF4.673132372145357
aF5.6619433748474002
aF5.4806431982267165
aF5.4820254025616117
aF5.3669131609859848
aF5.3376825518847477
aF2.4039221047397956
aF6.7454255910110783
aF3.596481993446452
aF5.3232511607236974
aF4.8321659539349735
aF4.24121477850752
aF7.1245142505106056
aF6.3951107971282983
aF4.7684384284967516
aF6.0061947781838771
aF6.4346465739309968
aF5.8651616462747915
aF5.4723707914466608
aF6.3846110911408216
aF5.6274463352146809
aF6.3060580428011965
aF6.5214151347462543
aF4.8749739728359938
aF5.9453595547737654
aF5.1049362601705246
aF4.9283182050153558
aF5.6165194382300729
aF4.2103576909227645
aF7.3650275798013976
aF7.1555974600404326
aF5.8487205772236095
aF6.1676850824434952
aF4.4544522955008299
aF6.2525992088629012
aF6.2812290197566689
aF6.5359145316883369
aF4.0400770688200547
aF5.771716585304338
aF7.9067282832861796
aF6.5419236525081939
aF3.4750070375910176
aF7.585916467908409
aF7.3057060999125429
aF6.0223323000980562
aF6.0614284402555931
aF6.0451480583674755
aF6.9969648958543678
aF7.0647319882764625
aF5.1865164043834842
aF7.0732311267835035
aF4.2030680024212765
aF6.6421398047778988
aF4.8815129032487441
aF6.0673676698637218
aF6.0241268281971294
aF7.4358202517572982
aF6.5354464677740873
aF7.2176184853510481
aF5.2570030727101367
aF6.6047340874095299
aF6.2093578326592374
aF7.1930127492574387
aF6.5256163330940327
aF6.8467816255795286
aF7.1555063887933672
aF6.7054526872070985
aF5.9988115414244083
aF6.6304826484768267
aF7.734547053879294
aF6.4221758031506848
aF5.8963517810059658
aF7.4487027651374138
aF5.9632544661817866
aF6.5297944031939403
aF6.4797721816813016
aF6.9114279424120246
aF5.424831413186876
aF6.6109332884282317
aF5.8523334955512123
aF7.0964199976411813
aF6.4273161967992838
aF6.2308408928333154
aF6.5938870631745861
aF6.3442177783149978
aF6.0750876032109637
aF6.5696551357236892
aF6.5563037183108035
aF6.9710836575360107
aF5.9348985906128604
aF7.1474491700930036
aF6.481273105086979
aF7.3274179114049813
aF5.331311101153668
aF6.9202337425483611
aF5.7841846282917944
aF6.7056323873614154
aF7.7084838576236754
aF6.8524233905606424
aF7.4791335330798461
aF6.5901019533824376
aF5.9596751159360766
aF6.9256197120029359
asS'entroExc'
p6
(lp7
F0
aF0
aF0
aF-2.1441824798872866
aF0
aF0
aF0
aF0
aF0
aF0
aF0
aF0
aF0
aF-0.9021087814992087
aF0
aF0
aF0
aF0
aF-2.2331826739809797
aF0
aF-1.291662652029693
aF0
aF-0.95296702690222124
aF0
aF0
aF0
aF0
aF0
aF-2.63207433031481
aF0
aF0
aF0
aF0
aF0
aF0
aF0
aF0
aF0
aF0
aF0
aF2.4634341304870624
aF2.3384101517863027
aF3.4683356787194932
aF6.3379982469086933
aF1.9741034159750881
aF6.2267666813042002
aF4.0739487336590994
aF5.8099160074195586
aF3.5060179219434886
aF0.42923565849649653
aF3.5867887580539941
aF6.0618453070710698
aF1.3715365599075415
aF3.2367803633368037
aF1.42515311584494
aF1.6769217991957182
aF3.5161412511985692
aF4.785937589858384
aF4.2969051973997674
aF2.5116881460702452
aF5.1758958057897209
aF4.2135650305891694
aF6.0236168680281068
aF1.5077692739090423
aF2.6345444808320186
aF5.0604754580716573
aF5.2398868007957207
aF6.9598165135617833
aF6.9924285599343667
aF4.3555942416328675
aF6.3913948335185511
aF5.4827869865834531
aF4.1518669326753788
aF3.5500387292925439
aF2.3044059023079164
aF4.1515828473130769
aF2.663727161804482
aF5.9261631361708131
aF5.026720399136094
aF4.562944517607769
aF4.5607944227752935
aF7.8581924090820587
aF3.7315960018845629
aF6.0392546648254939
aF5.8237264359464653
aF4.2347465517443226
aF6.0863634282866572
aF3.1314034562012125
aF4.5390967583739465
aF6.5583732604497884
aF4.7119298521796491
aF5.6293857651395776
aF4.7723290915345542
aF5.1661208935580776
aF2.2637615812901615
aF6.2008848766940625
aF6.5055718124591753
aF4.0954603206379181
aF5.423326047069895
aF5.4806431982267165
aF5.4820254025616117
aF5.3669131609859848
aF5.3376825518847477
aF2.4039221047397956
aF6.4258855780415391
aF3.596481993446452
aF5.3232511607236974
aF4.8321659539349735
aF4.023956122472808
aF7.1245142505106056
aF6.3951107971282983
aF4.7684384284967516
aF5.8088380743234751
aF6.4346465739309968
aF5.6904143017748403
aF5.4723707914466608
aF6.3846110911408216
aF5.6274463352146809
aF5.8524708328907691
aF6.5214151347462543
aF4.5169795638375287
aF5.6426784700463344
aF5.1049362601705246
aF4.9283182050153558
aF5.2707755997207135
aF4.2103576909227645
aF5.7822617716269153
aF6.615620809743902
aF5.6361779684224738
aF5.9416181139016562
aF4.4544522955008299
aF6.2525992088629012
aF6.1184760140493646
aF6.3739230836239313
aF3.7395025056103854
aF5.499530213192652
aF6.6937517757609708
aF6.3983743147254248
aF3.4750070375910176
aF7.2693137263480319
aF7.2186358837127598
aF6.0223323000980562
aF6.0614284402555931
aF6.0451480583674755
aF6.8025680621135658
aF7.0002817488615321
aF5.1865164043834842
aF6.9845779582214504
aF3.9972291697741391
aF6.3687875523089126
aF4.7779772219092616
aF6.0673676698637218
aF6.0241268281971294
aF7.2767851013708951
aF5.7463100788390502
aF7.1091829281354597
aF5.2570030727101367
aF6.6047340874095299
aF6.2093578326592374
aF7.1930127492574387
aF6.2151446695953645
aF6.7759986780223205
aF6.5072681982775435
aF6.5688894385180019
aF5.9988115414244083
aF6.5551888266499896
aF7.1373190765141645
aF6.3488556014150204
aF5.8963517810059658
aF7.1200097242375584
aF5.8216949105506597
aF6.5297944031939403
aF6.2865651541016376
aF6.8237493603082724
aF5.3316156542830564
aF6.6109332884282317
aF5.8523334955512123
aF7.0964199976411813
aF6.4273161967992838
aF6.1594213071629635
aF6.5938870631745861
aF6.3442177783149978
aF5.653541599608916
aF6.5696551357236892
aF6.288138892566562
aF6.9295188100857512
aF5.7263516918668049
aF7.0829047942765051
aF6.370036957782311
aF7.1868174593571119
aF5.331311101153668
aF6.8747232065980084
aF5.5832904103593917
aF6.631277476882623
aF7.0910650779305353
aF6.7723475682851468
aF7.2957322066329544
aF6.4401100480624205
aF5.9004755974600647
aF6.6604238225421399
asS'perpExcOov'
p8
(lp9
F1
aF1
aF1
aF0.22622300000000001
aF1
aF1
aF1
aF1
aF1
aF1
aF1
aF1
aF1
aF0.53510400000000002
aF1
aF1
aF1
aF1
aF0.21268899999999999
aF1
aF0.40848000000000001
aF1
aF0.51656899999999994
aF1
aF1
aF1
aF1
aF1
aF0.16131200000000001
aF1
aF1
aF1
aF1
aF1
aF1
aF1
aF1
aF1
aF1
aF1
aF5.5152799999999997
aF5.0574500000000002
aF11.068099999999999
aF80.896100000000004
aF3.9288400000000001
aF74.8934
aF16.8415
aF56.099499999999999
aF11.361000000000001
aF1.3465199999999999
aF12.0152
aF66.803200000000004
aF2.5874600000000001
aF9.4268800000000006
aF2.6854300000000002
aF3.1974499999999999
aF11.441000000000001
aF27.587399999999999
aF19.656099999999999
aF5.7028699999999999
aF36.149299999999997
aF18.552800000000001
aF65.056299999999993
aF2.8437000000000001
aF6.2097899999999999
aF33.369900000000001
aF37.788800000000002
aF124.48399999999999
aF127.33
aF20.472200000000001
aF83.946299999999994
aF44.7181
aF17.7761
aF11.712999999999999
aF4.9396399999999998
aF17.772600000000001
aF6.3366800000000003
aF60.806899999999999
aF32.598199999999999
aF23.636500000000002
aF23.601299999999998
aF232.03399999999999
aF13.283799999999999
aF65.765299999999996
aF56.639099999999999
aF18.827200000000001
aF67.9482
aF8.7628699999999995
aF23.248999999999999
aF94.246899999999997
aF26.207899999999999
aF49.500999999999998
aF27.328399999999998
aF35.905200000000001
aF4.8024199999999997
aF73.561800000000005
aF90.859899999999996
aF17.0945
aF42.912500000000001
aF44.651699999999998
aF44.694499999999998
aF41.2669
aF40.4392
aF5.2923999999999998
aF85.977400000000003
aF12.0962
aF40.036700000000003
aF28.485700000000001
aF16.267900000000001
aF139.53800000000001
aF84.162800000000004
aF27.254799999999999
aF56.057600000000001
aF86.501099999999994
aF51.639899999999997
aF44.3964
aF83.552499999999995
aF49.4345
aF57.7789
aF91.863200000000006
aF22.895299999999999
aF49.959200000000003
aF34.414299999999997
aF30.448899999999998
aF38.6066
aF18.511600000000001
aF55.034399999999998
aF98.061899999999994
aF49.7346
aF61.461799999999997
aF21.924199999999999
aF76.246499999999997
aF69.477599999999995
aF82.9358
aF13.3568
aF45.240099999999998
aF103.51900000000001
aF84.353399999999993
aF11.119400000000001
aF154.27000000000001
aF148.94499999999999
aF64.998400000000004
aF66.783900000000003
aF66.034499999999994
aF111.629
aF128.02500000000001
aF36.416400000000003
aF126.639
aF15.9693
aF82.641099999999994
aF27.435600000000001
aF67.059399999999997
aF65.079300000000003
aF155.071
aF53.679900000000004
aF138.06299999999999
aF38.239800000000002
aF97.324700000000007
aF73.995099999999994
aF146.32300000000001
aF74.292500000000004
aF109.592
aF90.966800000000006
aF94.936400000000006
aF63.947299999999998
aF94.039100000000005
aF140.78200000000001
aF81.507199999999997
aF59.563299999999998
aF139.10300000000001
aF56.559399999999997
aF92.398300000000006
aF78.062899999999999
aF113.28
aF40.269500000000001
aF97.743799999999993
aF57.773400000000002
aF136.84700000000001
aF86.062700000000007
aF71.477699999999999
aF96.595699999999994
aF81.245599999999996
aF50.336799999999997
aF94.986800000000002
aF78.148099999999999
aF121.89700000000001
aF52.942399999999999
aF135.571
aF82.712699999999998
aF145.696
aF40.261000000000003
aF117.354
aF47.944400000000002
aF99.131900000000002
aF136.34
aF109.315
aF157.12100000000001
aF86.829300000000003
aF59.733800000000002
aF101.155
asS'normalExc'
p10
(lp11
F0
aF0
aF0
aF-0.08934093666197028
aF0
aF0
aF0
aF0
aF0
aF0
aF0
aF0
aF0
aF-0.029100283274168023
aF0
aF0
aF0
aF0
aF-0.093049278082540821
aF0
aF-0.067982244843668049
aF0
aF-0.031765567563407378
aF0
aF0
aF0
aF0
aF0
aF-0.087735811010493672
aF0
aF0
aF0
aF0
aF0
aF0
aF0
aF0
aF0
aF0
aF0
aF0.0769823165777207
aF0.12307421851506857
aF0.072256993306656109
aF0.16251277556176136
aF0.033459379931781157
aF0.27072898614366087
aF0.064665852915223795
aF0.098473152668128117
aF0.10017194062695682
aF0.0056478376117960073
aF0.11208714868918732
aF0.27553842304868498
aF0.026375703075145029
aF0.064735607266736078
aF0.032389843541930453
aF0.041923044979892951
aF0.079912301163603844
aF0.299121099366149
aF0.11017705634358378
aF0.055815292134894334
aF0.11251947403890697
aF0.10533912576472923
aF0.1056774889127738
aF0.041882479830806729
aF0.14636358226844548
aF0.26634081358271883
aF0.080613643089164938
aF0.12654211842839605
aF0.10133954434687488
aF0.090741546700684739
aF0.13315405903163649
aF0.21087642256090205
aF0.090257976797290848
aF0.062281381215658668
aF0.041150105398355653
aF0.13838609491043591
aF0.059193936928988486
aF0.083467086424941037
aF0.093087414798816562
aF0.084498972548292015
aF0.086052724958024407
aF0.1354860760186562
aF0.033617981998960024
aF0.10412508042802576
aF0.073718056151221081
aF0.11763184865956451
aF0.082248154436306176
aF0.071168260368209377
aF0.045390967583739464
aF0.084081708467304977
aF0.065443470169161799
aF0.12509746144754616
aF0.056145048135700634
aF0.037435658648971575
aF0.070742549415317546
aF0.040265486212299105
aF0.073926952414308814
aF0.095243263270649262
aF0.056492979656978075
aF0.074062745921982656
aF0.056515725799604247
aF0.068806578986999808
aF0.061352673010169514
aF0.035879434399101427
aF0.093128776493355644
aF0.039960911038293911
aF0.093390371240766615
aF0.12080414884837434
aF0.031936159702165144
aF0.074213690109485475
aF0.05329258997606915
aF0.070124094536716933
aF0.064542645270260837
aF0.068453686956712737
aF0.039516765984547501
aF0.077075644949952976
aF0.057005456170900193
aF0.068627394331886346
aF0.062929793902051279
aF0.13586281530721364
aF0.035566768219193141
aF0.035713154873710976
aF0.052628208867737364
aF0.088005682232417073
aF0.036350176549798024
aF0.044319554641292259
aF0.039604532682376133
aF0.041347630060899386
aF0.067905758655692455
aF0.050783060802578259
aF0.032995942929635778
aF0.094736351649437903
aF0.047430046620537708
aF0.063739230836239308
aF0.046743781320129817
aF0.073327069509235357
aF0.05188954864930985
aF0.045058974047362144
aF0.036968159974372528
aF0.064330209967681698
aF0.035913611361755027
aF0.045623729546197395
aF0.06061428440255593
aF0.032676475991175541
aF0.065409308289553519
aF0.02509061558731732
aF0.02773538184162291
aF0.039019988593415926
aF0.034758514519775123
aF0.04682932023756553
aF0.021718078281405734
aF0.040181242846779618
aF0.048976640879651458
aF0.028876131354646409
aF0.030243737257047633
aF0.045281419924429682
aF0.030742708027544658
aF0.048209737864303139
aF0.035685964555512859
aF0.041578108377210626
aF0.024565789207886816
aF0.024462089090333285
aF0.030266363712918808
aF0.023714402305119141
aF0.025418692972137322
aF0.023328074116192133
aF0.023870632362923628
aF0.027365756902650949
aF0.049969082889881063
aF0.020637709345616113
aF0.021968660039813809
aF0.022672897233312294
aF0.03191149824417075
aF0.027966185902902757
aF0.026135370854328707
aF0.015446105814084654
aF0.022860677716996923
aF0.024219863473178092
aF0.038953431495753234
aF0.025243529947389196
aF0.034343161787367633
aF0.021289321403741603
aF0.021828345944435969
aF0.022576134487022986
aF0.019712034145976682
aF0.015607024347039981
aF0.024682550395977606
aF0.021594221933769833
aF0.02095406894007339
aF0.018912677524623979
aF0.025880150976474118
aF0.020101529843853827
aF0.020011793585517534
aF0.024290393688214736
aF0.028943122767063411
aF0.017232436560522001
aF0.01447565914014475
aF0.017595929093066724
aF0.019033792249871177
aF0.018656649362863136
asS'normalInc'
p12
(lp13
F0
aF0
aF0
aF0
aF0
aF0
aF0
aF0
aF0
aF0
aF0
aF0
aF0
aF0
aF0
aF0
aF0
aF0
aF0
aF0
aF0
aF0
aF0
aF0
aF0
aF0
aF0
aF0
aF0
aF0
aF0
aF0
aF0
aF0
aF0
aF0
aF0
aF0
aF0
aF0
aF0.0769823165777207
aF0.12307421851506857
aF0.072256993306656109
aF0.16251277556176136
aF0.033459379931781157
aF0.27072898614366087
aF0.064665852915223795
aF0.098473152668128117
aF0.10017194062695682
aF0.0056478376117960073
aF0.11208714868918732
aF0.27553842304868498
aF0.026375703075145029
aF0.081546911130918442
aF0.046526158313668131
aF0.041923044979892951
aF0.079912301163603844
aF0.299121099366149
aF0.11017705634358378
aF0.055815292134894334
aF0.12118533503485
aF0.10533912576472923
aF0.1056774889127738
aF0.041882479830806729
aF0.14636358226844548
aF0.26634081358271883
aF0.080613643089164938
aF0.13238068655517801
aF0.12051906185352723
aF0.090741546700684739
aF0.13315405903163649
aF0.21087642256090205
aF0.090257976797290848
aF0.062281381215658668
aF0.04949856026396883
aF0.13838609491043591
aF0.059193936928988486
aF0.083467086424941037
aF0.093087414798816562
aF0.084498972548292015
aF0.11121327614773455
aF0.1354860760186562
aF0.033617981998960024
aF0.11085230213295509
aF0.082590266277918517
aF0.11763184865956451
aF0.082248154436306176
aF0.0839294504388364
aF0.045390967583739464
aF0.084081708467304977
aF0.074553469272504613
aF0.12509746144754616
aF0.056145048135700634
aF0.037435658648971575
aF0.070742549415317546
aF0.040265486212299105
aF0.08970150344223092
aF0.10867749702663621
aF0.058978576821327088
aF0.074062745921982656
aF0.056515725799604247
aF0.068806578986999808
aF0.061352673010169514
aF0.035879434399101427
aF0.097759791174073601
aF0.039960911038293911
aF0.093390371240766615
aF0.12080414884837434
aF0.033660434750059684
aF0.074213690109485475
aF0.05329258997606915
aF0.070124094536716933
aF0.066735497535376415
aF0.068453686956712737
aF0.040730289210241605
aF0.077075644949952976
aF0.057005456170900193
aF0.068627394331886346
aF0.067807075729045124
aF0.13586281530721364
aF0.038385621833354283
aF0.037628857941606107
aF0.052628208867737364
aF0.088005682232417073
aF0.038734616815379812
aF0.044319554641292259
aF0.050445394382201351
aF0.044722484125252704
aF0.070466512978597698
aF0.052715257114901666
aF0.032995942929635778
aF0.094736351649437903
aF0.04869169782757108
aF0.065359145316883374
aF0.050500963360250686
aF0.076956221137391173
aF0.061292467312295963
aF0.046069884876818269
aF0.036968159974372528
aF0.067132004140782381
aF0.036346796516977822
aF0.045623729546197395
aF0.06061428440255593
aF0.032676475991175541
aF0.067278508613984309
aF0.025321620029664739
aF0.02773538184162291
aF0.039515257691527951
aF0.036548417412358924
aF0.048839263270425724
aF0.022188695014767019
aF0.040181242846779618
aF0.048976640879651458
aF0.029507223221259121
aF0.034397086672495199
aF0.045972092263382475
aF0.030742708027544658
aF0.048209737864303139
aF0.035685964555512859
aF0.041578108377210626
aF0.025792949933177996
aF0.024717623197038009
aF0.033281425064155198
aF0.024207410423130321
aF0.025418692972137322
aF0.023596023660059882
aF0.02586805034742239
aF0.027681792254959849
aF0.049969082889881063
aF0.021590442797499752
aF0.02250284704219542
aF0.022672897233312294
aF0.032892244577062447
aF0.028325524354147643
aF0.026592310848955275
aF0.015446105814084654
aF0.022860677716996923
aF0.024219863473178092
aF0.038953431495753234
aF0.025536233167349653
aF0.034343161787367633
aF0.021289321403741603
aF0.023455936691934222
aF0.022576134487022986
aF0.020552676232949228
aF0.015700638868324349
aF0.025581459442296811
aF0.021791003567356717
aF0.021319977319365063
aF0.019282678714223636
aF0.025880150976474118
aF0.020234601586398716
aF0.020731844545848727
aF0.024562755997660862
aF0.031463199418872143
aF0.01743619183348764
aF0.014839550660872711
aF0.018005743042028517
aF0.019224758438503471
aF0.019399494991604864
as.