(dp1
S'perpIncOov'
p2
(lp3
F106.583
aF78.789900000000003
aF103.16
aF61.869399999999999
aF194.11799999999999
aF128.11000000000001
aF247.84100000000001
aF48.392800000000001
aF125.587
aF100.107
aF127.497
aF111.108
aF59.534300000000002
aF131.779
aF115.429
aF144.751
aF186.429
aF119.434
aF79.721299999999999
aF98.096500000000006
aF111.113
aF135.155
aF85.863100000000003
aF195.46000000000001
aF108.52500000000001
aF194.49000000000001
aF177.05000000000001
aF119.54000000000001
aF135.73400000000001
aF157.84800000000001
aF128.023
aF159.31200000000001
aF119.633
aF156.87700000000001
aF103.967
aF79.302199999999999
aF115.63800000000001
aF99.065600000000003
aF129.464
aF123.14700000000001
aF53.688099999999999
aF98.725300000000004
aF142.54900000000001
aF92.357600000000005
aF107.889
aF153.63200000000001
aF123.866
aF123.06100000000001
aF202.65000000000001
aF92.890000000000001
aF95.816599999999994
aF196.25700000000001
aF102.009
aF180.422
aF215.767
aF88.840800000000002
aF154.672
aF87.283600000000007
aF114.042
aF56.575200000000002
aF129.87
aF139.697
aF133.44399999999999
aF178.376
aF122.09099999999999
aF106.821
aF84.124499999999998
aF137.90100000000001
aF126.34
aF50.18
aF90.960599999999999
aF110.65300000000001
aF145.40600000000001
aF92.928600000000003
aF141.029
aF75.701599999999999
aF104.21299999999999
aF88.718800000000002
aF112.31100000000001
aF174.875
aF233.78200000000001
aF131.16900000000001
aF104.312
aF61.077800000000003
aF137.01400000000001
aF136.71199999999999
aF115.36199999999999
aF146.54300000000001
aF116.63200000000001
aF101.437
aF150.16999999999999
aF111.422
aF137.01900000000001
aF115.67700000000001
aF113.036
aF106.011
aF106.904
aF110.04300000000001
aF127.605
aF258.86799999999999
aF124.515
aF198.86199999999999
aF118.551
aF324.08600000000001
aF91.849400000000003
aF122.407
aF184.85900000000001
aF262.48700000000002
aF102.91
aF95.946299999999994
aF99.831199999999995
aF135.77199999999999
aF109.709
aF78.842299999999994
aF118.499
aF94.164599999999993
aF96.027900000000002
aF101.69
aF103.622
aF124.38500000000001
aF132.56100000000001
aF126.84999999999999
aF67.634299999999996
aF102.62
aF108.593
aF129.36000000000001
aF96.889300000000006
aF122.38200000000001
aF189.334
aF115.289
aF118.666
aF133.79400000000001
aF132.11199999999999
aF79.827299999999994
aF127.764
aF201.45699999999999
aF99.434399999999997
aF101.416
aF86.128600000000006
aF98.695499999999996
aF148.072
aF120.666
aF149.80799999999999
aF110.675
aF117.36
aF135.22
aF104.363
aF146.744
aF155.029
aF132.739
aF111.499
aF67.747299999999996
aF118.875
aF122.31
aF106.039
aF105.11799999999999
aF55.438099999999999
aF152.709
aF97.143600000000006
aF62.1967
aF151.833
aF161.70099999999999
aF123.413
aF129.85499999999999
aF102.06399999999999
aF176.78
aF85.707899999999995
aF130.65299999999999
aF117.483
aF152.45099999999999
aF199.06
aF187.67699999999999
aF126.309
aF163.24100000000001
aF106.196
aF130.245
aF143.56399999999999
aF128.76599999999999
aF97.350499999999997
aF159.24799999999999
aF124.086
aF79.196399999999997
aF71.365799999999993
aF104.79900000000001
aF131.845
aF119.605
aF61.875599999999999
aF137.089
aF111.26300000000001
aF172.33699999999999
aF130.167
aF136.80799999999999
aF114.53100000000001
aF39.455199999999998
aF110.625
aF127.017
aF113.07899999999999
aF66.055199999999999
aF93.468999999999994
aF96.870199999999997
aF121.16
aF182.49600000000001
aF109.949
aF88.2791
aF94.093400000000003
aF120.804
aF145.785
aF127.77
aF73.990700000000004
aF33.913600000000002
aF185.464
aF169.054
aF108.404
aF121.12
aF227.60300000000001
aF257.01400000000001
aF188.381
aF98.5197
aF77.9191
aF105.901
aF73.885400000000004
aF106.221
aF140.221
aF102.85299999999999
aF101.449
aF165.179
aF145.214
aF123.729
aF155.57900000000001
aF121.169
aF87.251499999999993
aF80.304199999999994
aF95.9148
aF92.604600000000005
aF126.77500000000001
aF117.55200000000001
aF218.55799999999999
aF125.931
aF194.00999999999999
aF115.11799999999999
aF163.17599999999999
aF229.297
aF77.6828
aF151.803
aF95.767799999999994
aF90.653499999999994
aF123.34699999999999
aF93.189499999999995
aF112.974
aF68.366600000000005
aF96.243499999999997
aF125.402
aF115.858
aF136.37700000000001
aF236.16399999999999
aF102.84999999999999
aF124.791
aF75.221299999999999
aF149.26499999999999
aF188.56
aF128.54900000000001
aF96.436899999999994
aF108.791
aF74.339100000000002
aF60.1374
aF71.278000000000006
aF126.425
aF134.614
aF138.43000000000001
aF113.244
aF114.761
aF105.496
aF83.1006
aF101.554
aF141.38800000000001
aF143.94200000000001
aF190.11099999999999
aF116.81
aF76.352400000000003
aF84.525700000000001
aF123.065
aF144.441
aF110.307
aF116.057
aF75.581999999999994
aF93.129000000000005
aF155.59700000000001
aF82.158000000000001
aF107.45099999999999
aF67.838700000000003
aF104.399
aF158.34299999999999
aF98.738100000000003
aF126.408
aF215.709
aF192.52799999999999
aF119.934
aF82.683700000000002
aF116.32299999999999
aF187.70400000000001
aF76.148300000000006
aF145.42599999999999
aF96.794799999999995
aF96.3292
aF257.89600000000002
aF120.628
aF82.546899999999994
aF95.317700000000002
aF117.488
aF85.051900000000003
aF106.336
aF101.807
aF145.40000000000001
aF201.16399999999999
aF93.381600000000006
aF133.43799999999999
aF86.680099999999996
aF134.858
aF127.806
aF267.25200000000001
aF99.392099999999999
aF134.51599999999999
aF115.16800000000001
aF265.50200000000001
aF126.851
aF212.00299999999999
aF131.20500000000001
aF91.938100000000006
aF83.990300000000005
aF60.3078
aF98.137699999999995
aF127.901
aF94.577399999999997
aF151.81
aF141.417
aF72.428899999999999
aF119.152
aF69.7029
aF248.24100000000001
aF129.779
aF126.182
aF118.258
aF79.907499999999999
aF81.221699999999998
aF109.916
aF131.232
aF108.06999999999999
aF133.43000000000001
aF115.52500000000001
aF106.01000000000001
aF148.05799999999999
aF106.774
aF159.291
aF123.58499999999999
aF107.29600000000001
aF177.71600000000001
aF156.08199999999999
aF82.817899999999995
aF265.339
aF54.866500000000002
aF118.652
aF138.28899999999999
aF110.188
aF125.54000000000001
aF97.841300000000004
aF98.278099999999995
aF238.846
aF77.185299999999998
aF136.667
aF69.1203
aF121.203
aF125.998
aF155.07400000000001
aF92.637799999999999
aF114.429
aF71.751000000000005
aF137.33000000000001
aF130.82499999999999
aF182.357
aF119.045
aF106.376
aF44.497100000000003
aF107.852
aF143.01900000000001
aF141.02500000000001
aF36.471899999999998
aF103.279
aF143.322
aF121.76600000000001
aF166.167
aF150.66200000000001
aF118.166
aF99.730599999999995
aF154.84899999999999
aF134.411
aF92.541399999999996
aF63.205399999999997
aF134.36500000000001
aF135.06700000000001
aF129.91300000000001
aF133.08000000000001
aF190.858
aF95.677800000000005
aF120.492
aF52.3476
aF59.4572
aF115.128
aF126.062
aF94.617999999999995
aF109.512
aF69.679400000000001
aF49.433399999999999
aF66.657300000000006
aF121.983
aF87.776200000000003
aF143.82900000000001
aF153.13
aF75.188800000000001
aF113.85599999999999
aF120.128
aF129.459
aF102.41500000000001
aF111.88200000000001
aF239.05500000000001
aF121.02200000000001
aF117.59399999999999
aF87.628100000000003
aF78.799800000000005
aF143.173
aF84.229299999999995
aF127.804
aF100.55200000000001
aF104.102
aF118.242
aF49.161799999999999
aF108.29900000000001
aF122.355
aF119.849
aF129.441
aF140.05000000000001
aF84.377200000000002
aF119.61499999999999
aF76.582999999999998
aF135.80600000000001
aF140.15600000000001
aF65.959199999999996
aF117.383
aF139.28299999999999
aF66.374600000000001
aF108.254
aF63.157899999999998
aF100.97
aF88.141999999999996
aF119.608
aF119.509
aF62.395099999999999
aF116.59399999999999
aF129.577
aF93.909000000000006
aF106.773
aF140.953
aF101.77200000000001
aF149.88399999999999
aF149.334
aF234.65899999999999
aF65.558300000000003
aF108.33
aF101.96899999999999
aF133.227
aF110.297
aF251.923
aF126.107
aF174.619
aF93.760900000000007
aF136.81399999999999
aF145.02699999999999
aF153.965
aF70.310900000000004
aF102.173
aF107.17
aF105.363
aF76.573899999999995
aF90.514300000000006
aF93.553399999999996
aF141.40299999999999
aF243.845
aF116.634
aF104.002
aF95.843900000000005
aF87.487300000000005
aF182.881
aF139.53100000000001
aF88.497600000000006
aF126.819
aF141.04499999999999
aF95.390699999999995
aF260.76100000000002
aF128.286
aF313.78500000000003
aF106.79000000000001
aF73.903199999999998
aF115.596
aF108.181
aF124.407
aF88.194000000000003
aF142.56200000000001
aF251.21799999999999
aF90.832800000000006
aF50.192300000000003
aF139.16399999999999
aF107.75700000000001
aF122.352
aF126.876
aF156.84
aF40.708300000000001
aF133.315
aF118.26000000000001
aF155.31
aF104.88500000000001
aF151.839
aF105.24299999999999
aF168.649
aF101.952
aF66.340299999999999
aF147.52699999999999
aF128.583
aF129.489
aF129.595
aF110.926
aF158.43799999999999
aF109.699
aF97.560500000000005
aF108.41
aF76.027199999999993
aF103.21299999999999
aF151.93799999999999
aF91.9619
aF107.372
aF128.654
aF161.71700000000001
aF92.976100000000002
aF108.66500000000001
aF76.5899
aF156.10599999999999
aF157.38900000000001
aF101.20399999999999
aF59.537999999999997
aF193.994
aF101.502
aF104.502
aF70.347399999999993
aF91.196100000000001
aF167.773
aF79.686999999999998
aF115.167
aF135.05500000000001
aF238.386
aF81.246399999999994
aF111.258
aF179.00800000000001
aF65.110600000000005
aF139.541
aF64.728099999999998
aF55.356900000000003
aF131.208
aF133.166
aF94.548199999999994
aF143.101
aF55.195900000000002
aF126.366
aF99.8292
aF117.879
aF141.00999999999999
aF135.059
aF137.99199999999999
aF115
aF374.92200000000003
aF89.889399999999995
aF98.415999999999997
aF156.51900000000001
aF91.9191
aF147.51499999999999
aF147.26499999999999
aF145.494
aF124.34
aF75.380099999999999
aF56.170400000000001
aF148.601
aF127.636
aF72.725099999999998
aF60.458500000000001
aF101.068
aF102.559
aF95.330600000000004
aF97.703100000000006
aF57.016300000000001
aF134.042
aF139.523
aF73.628699999999995
aF111.011
aF66.580399999999997
aF136.17500000000001
aF84.106099999999998
aF144.66800000000001
aF60.7181
aF108.536
aF141.422
aF115.09699999999999
aF106.672
aF114.176
aF129.90700000000001
aF119.36
aF66.4495
aF114.029
aF94.607100000000003
aF79.499600000000001
aF101.348
aF88.773899999999998
aF129.381
aF119.568
aF131.71600000000001
aF75.016400000000004
aF160.45400000000001
aF109.041
aF142.16499999999999
aF136.018
aF119.93300000000001
aF249.648
aF138.27000000000001
aF143.583
aF74.157399999999996
aF180.44499999999999
aF148.62799999999999
aF99.829300000000003
aF49.498899999999999
aF26.185199999999998
aF264.44299999999998
aF96.745199999999997
aF194.44999999999999
aF141.96100000000001
aF97.543400000000005
aF156.21199999999999
aF270.93599999999998
aF126.357
aF113.16800000000001
aF96.914100000000005
aF127.479
aF116.25
aF103.779
aF88.269599999999997
aF109.71899999999999
aF119.363
aF67.986800000000002
aF104.63
aF127.785
aF143.69800000000001
aF165.953
aF121.297
aF106.672
aF167.61799999999999
aF144.07499999999999
aF120.316
aF190.21899999999999
aF190.81800000000001
aF78.478800000000007
aF94.289500000000004
aF118.392
aF78.392600000000002
aF77.3339
aF95.986999999999995
aF60.538499999999999
aF130.88499999999999
aF173.673
aF130.256
aF75.732399999999998
aF126.70699999999999
aF123.54300000000001
aF145.93100000000001
aF133.87
aF131.083
aF68.725399999999993
aF101.63500000000001
aF124.73
aF79.057000000000002
aF94.1267
aF144.10499999999999
aF146.52199999999999
aF93.098600000000005
aF94.6267
aF180.774
aF99.706500000000005
aF137.39500000000001
aF227.19999999999999
aF142.97800000000001
aF79.587699999999998
aF110.425
aF78.796499999999995
aF113.73699999999999
aF123.68600000000001
aF102.944
aF32.973199999999999
aF121.63500000000001
aF258.84100000000001
aF148.05099999999999
aF121.751
aF123.441
aF129.28999999999999
aF182.87200000000001
aF115.60299999999999
aF183.05000000000001
aF153.26400000000001
aF94.6584
aF176.88900000000001
aF83.789599999999993
aF131.06399999999999
aF103.04600000000001
aF133.46700000000001
aF74.915899999999993
aF141.98099999999999
aF105.70099999999999
aF108.521
aF107.158
aF81.7607
aF157.358
aF164.68000000000001
aF138.721
aF87.497399999999999
aF190.30000000000001
aF133.37700000000001
aF135.65899999999999
aF101.881
aF76.328400000000002
aF128.75700000000001
aF87.799800000000005
aF304.947
aF121.325
aF134.20599999999999
aF66.631
aF148.05699999999999
aF114.58199999999999
aF87.9983
aF122.52500000000001
aF287.084
aF147.583
aF97.299899999999994
aF98.5167
aF123.515
aF47.9754
aF147.31399999999999
aF85.520600000000002
aF110.45699999999999
aF117.687
aF124.07299999999999
aF68.595100000000002
aF123.815
aF143.517
aF150.18899999999999
aF28.421199999999999
aF130.34299999999999
aF82.0732
aF40.868099999999998
aF76.045100000000005
aF131.024
aF104.809
aF135.018
aF168.49799999999999
aF130.387
aF112.202
aF98.966800000000006
aF52.5396
aF141.673
aF74.232699999999994
aF85.456599999999995
aF132.215
aF81.003699999999995
aF89.301299999999998
aF95.546400000000006
aF100.167
aF117.071
aF108.193
aF105.535
aF96.664599999999993
aF92.303299999999993
aF104.83199999999999
aF117.256
aF107.057
aF65.045900000000003
aF148.37899999999999
aF61.811300000000003
aF132.971
aF128.16900000000001
aF91.103200000000001
aF134.49199999999999
aF82.632099999999994
aF155.44300000000001
aF178.75200000000001
aF145.239
aF83.858599999999996
aF90.341499999999996
aF146.291
aF104.53100000000001
aF91.980699999999999
aF156.22900000000001
aF106.804
aF304.52300000000002
aF128.45500000000001
aF128.977
aF69.066599999999994
aF141.22399999999999
aF114.845
aF87.313500000000005
aF129.62100000000001
aF89.772400000000005
aF217.529
aF60.186599999999999
aF132.80600000000001
aF67.008600000000001
aF122.773
aF282.459
aF130.97200000000001
aF139.02699999999999
aF66.900099999999995
aF124.003
aF120.169
aF222.54599999999999
aF130.84800000000001
aF100.98699999999999
aF277.48899999999998
aF139.81
aF219.905
aF203.13900000000001
aF144.76300000000001
aF50.668900000000001
aF121.956
aF106.623
aF124.84999999999999
aF109.334
aF159.00899999999999
aF166.56899999999999
aF96.973500000000001
aF91.066400000000002
aF126.31100000000001
aF125.754
aF108.184
aF127.006
aF112.014
aF124.697
aF114.197
aF64.233500000000006
aF115.548
aF128.958
aF130.304
aF131.322
aF131.01400000000001
aF124.751
aF87.624200000000002
aF129.06200000000001
aF119.44799999999999
aF67.189700000000002
aF189.702
aF108.328
aF114.32299999999999
aF72.297600000000003
aF99.578400000000002
aF327.29500000000002
aF77.278700000000001
aF197.167
aF121.378
aF93.580399999999997
aF121.636
aF130.25
aF131.88499999999999
aF63.842700000000001
aF116.413
aF94.600499999999997
aF142.04499999999999
aF137.25899999999999
aF98.8994
aF71.581500000000005
aF119.152
aF100.896
aF174.15799999999999
aF120.142
aF108.026
aF80.448700000000002
aF106.67
aF129.75299999999999
aF61.639099999999999
aF138.05500000000001
aF137.017
aF98.563500000000005
aF107.60899999999999
aF84.247100000000003
aF109.56399999999999
aF129.435
aF121.084
aF125.459
aF75.022099999999995
aF124.364
aF172.86500000000001
aF148.97999999999999
aF148.785
aF101.736
aF107.361
aF62.489800000000002
aF186.381
aF99.922899999999998
aF120.88200000000001
aF78.041300000000007
aF180.42599999999999
aF129.184
aF113.19499999999999
aF71.988799999999998
aF98.658100000000005
aF111.741
aF143.607
aF111.69199999999999
aF81.199799999999996
aF141.005
aF132.82599999999999
aF118.672
aF88.785200000000003
aF82.164000000000001
aF106.89700000000001
aF88.243600000000001
aF78.815299999999993
aF66.156599999999997
aF186.75399999999999
aF84.882300000000001
aF154.50299999999999
aF276.86200000000002
aF92.1464
aF112.694
aF104.875
aF131.905
aF110.813
aF159.27000000000001
aF120.119
aF122.56
aF77.201599999999999
aF131.28399999999999
aF90.358599999999996
aF110.98399999999999
aF100.762
aF108.896
aF92.310599999999994
aF210.001
aF167.654
aF119.523
aF152.44499999999999
aF199.50299999999999
aF118.70999999999999
aF134.12
aF105.61499999999999
aF108.925
aF60.554699999999997
aF159.191
aF114.044
aF118.733
aF93.492500000000007
aF99.8386
aF174.108
aF85.452799999999996
aF99.459100000000007
aF99.7042
aF137.09700000000001
aF135.37799999999999
aF93.668499999999995
aF58.035600000000002
aF113.178
aF88.130799999999994
aF119.33799999999999
aF135.52600000000001
aF100.215
aF155.41399999999999
aF83.301500000000004
aF232.12200000000001
aF73.523300000000006
aF109.34999999999999
aF80.949799999999996
aF165.846
aF128.041
aF94.045000000000002
aF140.488
aF52.340499999999999
aF132.684
aF125.79300000000001
aF66.030699999999996
aF136.477
aF65.260400000000004
aF64.542299999999997
aF110.596
aF262.66500000000002
aF130.994
aF107.18000000000001
aF267.68900000000002
aF133.34
aF131.446
aF98.906300000000002
aF89.854699999999994
asS'entroInc'
p4
(lp5
F6.7358335362064645
aF6.2999387987592641
aF6.6887398680144905
aF5.9511541378704003
aF7.6007900909623469
aF7.0012392836223203
aF7.9532710600773449
aF5.5967205106312843
aF6.9725433227446993
aF6.6453990481863485
aF6.9943194906938224
aF6.7958188871930822
aF5.8956491949418863
aF7.0419766738556779
aF6.8508619172252398
aF7.1774295047599281
aF7.542482485936155
aF6.9000697855802491
aF6.316893331008405
aF6.6161297581135106
aF6.7958838088270035
aF7.0784710745054396
aF6.4239663556522624
aF7.6107295865347062
aF6.7618836123655184
aF7.603552168527095
aF7.4680130335035537
aF6.9013496376508803
aF7.0846383363782675
aF7.302392170993496
aF7.0002592109773714
aF7.3157111301373696
aF6.9024715924331073
aF7.2934900416457138
aF6.6999818672633191
aF6.3092889845879148
aF6.8534717519984723
aF6.6303122711178801
aF7.0164071738498306
aF6.9442376723591357
aF5.7465304442991174
aF6.6253479415472043
aF7.1553141083904634
aF6.5291587786849092
aF6.7534039697588559
aF7.2633349359965083
aF6.9526364259790681
aF6.9432298108878401
aF7.6628463651594787
aF6.5374513876530731
aF6.5822037160161218
aF7.6166003020474395
aF6.6725526329770535
aF7.4952314560605586
aF7.7533304217142565
aF6.473150479114401
aF7.2730682416535686
aF6.4476387015332897
aF6.833421435502939
aF5.8220978744855518
aF7.0209243961587866
aF7.1261572289072452
aF7.060090629276
aF7.4787777074421102
aF6.9318130450228361
aF6.7390514849055396
aF6.3944541198743394
aF7.1074891084816576
aF6.9811676671056828
aF5.649040565634448
aF6.5071698655441894
aF6.7898987554771484
aF7.1839429912994239
aF6.5380507682250864
aF7.1398480464007106
aF6.2422518876699868
aF6.7033914469083156
aF6.4711679467963945
aF6.8113554253339821
aF7.450180247164754
aF7.8690200438939497
aF7.0352829887646342
aF6.7047613240911863
aF5.9325761926106804
aF7.0981795041184972
aF7.0949960719335214
aF6.8500242712992296
aF7.1951802454413372
aF6.8658198608815484
aF6.6644401732794734
aF7.2304528190441903
aF6.799890307167848
aF7.0982321508815174
aF6.8539582324007622
aF6.8206385088760273
aF6.7280701604318951
aF6.7401720247994552
aF6.7819235659312156
aF6.9955410497072741
aF8.0160728271077133
aF6.9601757402775419
aF7.6356238116017199
aF6.8893640220502013
aF8.3402328896442359
aF6.5211983919468857
aF6.9355422525154404
aF7.530281473707177
aF8.0361021630298382
aF6.6852393687941314
aF6.5841552673885317
aF6.6414188628625697
aF7.0850421757918465
aF6.7775380721500191
aF6.3008979584097311
aF6.8887310742051939
aF6.557112893546317
aF6.5853817230521194
aF6.6680340040758903
aF6.6951865240865915
aF6.9586687063492993
aF7.0505125807418327
aF6.9869797091765777
aF6.0796831740876165
aF6.6811681204166922
aF6.7627872985268507
aF7.0152477736989365
aF6.5982654448487503
aF6.9352475711682589
aF7.564789698686698
aF6.849111058336776
aF6.8907628251941553
aF7.0638696094586155
aF7.0456177052179783
aF6.3188103104972164
aF6.9973375758411693
aF7.6543281252678499
aF6.6356731430906519
aF6.6641414683456857
aF6.4284204756779069
aF6.6249124016998833
aF7.2101550466051432
aF6.9148754156491972
aF7.2269708579782801
aF6.7901855632105033
aF6.874796965898665
aF7.0791647420373067
aF6.7054665110905889
aF7.1971577060762693
aF7.276394303614766
aF7.0524485004991782
aF6.8008869608933056
aF6.0820915453504698
aF6.8933015308605636
aF6.9343985524349794
aF6.7284511598318453
aF6.7158659217507006
aF5.792805908503369
aF7.2546412805456573
aF6.6020470464117578
aF5.9587661315144107
aF7.2463415757996108
aF7.3371847906059653
aF6.9473505619581166
aF7.020757755091215
aF6.6733302785173265
aF7.4658112544760789
aF6.4213562836538722
aF7.0295964413781808
aF6.8763082011175598
aF7.2522018034894513
aF7.6370595384108491
aF7.5521080470873594
aF6.980813630109755
aF7.3508596433333029
aF6.7305856160971693
aF7.0250841794480872
aF7.1655502151698682
aF7.0086078973053922
aF6.6051164836497582
aF7.3151314435234873
aF6.9551965423909889
aF6.3073629466545018
aF6.1571609647868817
aF6.7114811404103554
aF7.0426990502302722
aF6.9021338913878783
aF5.9512987046692363
aF7.0989690039106703
aF6.7978301005936901
aF7.4290886649064021
aF7.0242199318976324
aF7.0960087856627734
aF6.8395943338880443
aF5.3021435477199299
aF6.7895336449703603
aF6.988877790507205
aF6.8211872198196275
aF6.0456002327246123
aF6.5464160538772571
aF6.5979810151782541
aF6.920769673020648
aF7.5117210327076211
aF6.7806906725342131
aF6.4640000163925713
aF6.5560216263299544
aF6.9165244150057879
aF7.1876984763882703
aF6.9974053254967696
aF6.2092720425607038
aF5.0837920324938866
aF7.5349953655057895
aF7.40134034213078
aF6.7602741814636884
aF6.9202933002110063
aF7.8303757634851197
aF8.0057031374446943
aF7.5575096526656038
aF6.6223403296144996
aF6.2839051086392974
aF6.7265724022232876
aF6.2072174060983887
aF6.7309252063953915
aF7.1315586184890387
aF6.6844400645515396
aF6.6646108340496681
aF7.3678864714373313
aF7.1820367392303952
aF6.9510398732152971
aF7.281503528758992
aF6.9208768352288352
aF6.4471080287765226
aF6.3274035391768315
aF6.5836815403620914
aF6.5330119539491021
aF6.9861264641792724
aF6.877155274623048
aF7.7718723766335778
aF6.9764896598141428
aF7.5999872059943083
aF6.846969622553253
aF7.3502850704471028
aF7.8410736693622685
aF6.2795232971031814
aF7.2460564920060717
aF6.5814687551370739
aF6.5022908162927164
aF6.9465788171455927
aF6.5420955052250278
aF6.819846976689143
aF6.0952197740495455
aF6.5886172035363062
aF6.9704165472214745
aF6.8562138555730172
aF7.0914565439325852
aF7.8836452519703437
aF6.684397983637572
aF6.9633700797154887
aF6.2330693346256787
aF7.2217321084556101
aF7.5588798534754433
aF7.0061745770707411
aF6.5915133706047735
aF6.7654154008443177
aF6.2160493169396478
aF5.910190590198825
aF6.1553849515204551
aF6.9821379682399218
aF7.0726846493532918
aF7.113012821774368
aF6.8232908038470663
aF6.8424886343494222
aF6.7210444883321623
aF6.3767869884160699
aF6.6661032552730211
aF7.1435158695037657
aF7.1693437988841362
aF7.5706981998586373
aF6.868019977116389
aF6.2546016011390817
aF6.4013181537415598
aF6.9432767037814322
aF7.1743365033354136
aF6.7853805359610124
aF6.8586897315068622
aF6.2399707896152421
aF6.5411585821278422
aF7.2816704343735958
aF6.3603291569572784
aF6.7475350991418876
aF6.0840366185396055
aF6.7059640826983227
aF7.3069092801373081
aF6.6255349787049687
aF6.9819439602130267
aF7.752942560916086
aF7.5889244668735776
aF6.9060968950483632
aF6.3695310440306878
aF6.8619925720997434
aF7.5523155843157816
aF6.2507399239972239
aF7.1841414144499947
aF6.5968576401587171
aF6.5899012793494025
aF8.0106455866904689
aF6.9144210122076943
aF6.3671421314843579
aF6.5746722348479061
aF6.8763695999727847
aF6.4102715599348716
aF6.7324862930299441
aF6.6696929507766596
aF7.1838834590322316
aF7.652228335532083
aF6.5450664028109005
aF7.0600257603807828
aF6.4376289127100526
aF7.0752972969469665
aF6.9978117566312692
aF8.062056934275347
aF6.6350592812447688
aF7.0716339740643521
aF6.8475961022626413
aF8.0525789185224745
aF6.9869910823681751
aF7.7279408699146126
aF7.0356788894392279
aF6.5225909465010572
aF6.3921508162316893
aF5.9142727022129611
aF6.6167355550292148
aF6.9988837338175811
aF6.5634235765153415
aF7.2461230165968384
aF7.143811749395085
aF6.1784935597012938
aF6.8966593575502069
aF6.123146775781394
aF7.9555976034367824
aF7.0199131443989398
aF6.9793623127507649
aF6.885793973085125
aF6.3202590136226702
aF6.3437933186024766
aF6.7802575982685775
aF7.0359757436651291
aF6.7558222793782177
aF7.0599392639830825
aF6.8520612792791722
aF6.72805655144938
aF7.2100186353628679
aF6.738416576148162
aF7.3155209461409694
aF6.9493598380424793
aF6.7454524831316967
aF7.473429764678297
aF7.2861603593258151
aF6.3718707158758008
aF8.0516929308197316
aF5.777853642379231
aF6.8905926086021072
aF7.111542593720853
aF6.7838233058511754
aF6.9720033038083562
aF6.6123716677131421
aF6.618798061388067
aF7.8999369056942843
aF6.2702542061569311
aF7.0945211175483918
aF6.1110375740723812
aF6.9212815984169263
aF6.9772570233968851
aF7.2768130114460075
aF6.5335290869150997
aF6.8383089136932007
aF6.1649270337835267
aF7.1015030091671694
aF7.0314944487273534
aF7.5106217701531914
aF6.8953632171306518
aF6.7330288839727768
aF5.4756394095742387
aF6.7529091197578248
aF7.1600630107987682
aF7.1398071267175016
aF5.1887134535736514
aF6.6904031266902377
aF7.1631162707968086
aF6.9279675440456421
aF7.3764900877464363
aF7.2351717757573599
aF6.88467117717218
aF6.6399643246352387
aF7.2747182560310897
aF7.070507400778733
aF6.5320270195716317
aF5.9819759162709989
aF7.0700135771298296
aF7.0775314236399565
aF7.0214019939024785
aF7.056149961108142
aF7.5763558495712449
aF6.5801123117061966
aF6.9127935524667548
aF5.7100514897804189
aF5.8937796193298659
aF6.8470949402605576
aF6.9779896464596574
aF6.5640427609094552
aF6.7749451545047226
aF6.1226602960234606
aF5.6274142324888201
aF6.0586909761594097
aF6.9305362922791183
aF6.4557579094022799
aF7.1682107830625306
aF7.2586131415303319
aF6.2324458713135931
aF6.8310665106050728
aF6.908428650168787
aF7.0163514547734618
aF6.6782832219170913
aF6.8058341385145891
aF7.9011987707364941
aF6.919125521620539
aF6.8776706411813695
aF6.4533216728182357
aF6.3001200629018275
aF7.1616156402065823
aF6.3962502713103593
aF6.997789180127362
aF6.6517979672050229
aF6.701853975629775
aF6.8855987669905003
aF5.6194658341034849
aF6.7588761113756135
aF6.9349292476923479
aF6.9050740612059958
aF7.0161508482784622
aF7.1297981731871447
aF6.3987813083851508
aF6.9022545079786077
aF6.2589522711416308
aF7.0854034099982002
aF7.1308896964352479
aF6.0435019957392759
aF6.8750796749553498
aF7.1218753722482271
aF6.052559356570554
aF6.7582765234892817
aF5.9808912972768775
aF6.6577828958176459
aF6.4617577275742546
aF6.9021700774239445
aF6.9009754587459851
aF5.9633608309737349
aF6.865349738236227
aF7.0176658514333896
aF6.553191523620078
aF6.7384030644149977
aF7.1390703738842909
aF6.6691968846114005
aF7.227702574710511
aF7.2223988619249333
aF7.8744219836434324
aF6.0347065391147234
aF6.7592890158950718
aF6.6719868091884562
aF7.0577426807328631
aF6.7852497409580321
aF7.9768390326534462
aF6.9785045493821345
aF7.4480667345063338
aF6.5509145129762896
aF7.0960720566734867
aF7.1801777047729844
aF7.2664586181930026
aF6.1356764564037167
aF6.6748701931692951
aF6.7437572997826676
aF6.7192245189129336
aF6.2587808322461242
aF6.5000738308327062
aF6.5477181809991096
aF7.143668918403014
aF7.9298205802368411
aF6.8658445999355191
aF6.7004674620097271
aF6.5826147091511986
aF6.451001699754408
aF7.5147613871705961
aF7.1244418751103398
aF6.4675664256191814
aF6.986627095759169
aF7.1400117135283363
aF6.5757767141800025
aF8.0265843027718109
aF7.0032199258092316
aF8.2936325779543871
aF6.738632746670322
aF6.2075649291394353
aF6.8529476665059956
aF6.7573033283777839
aF6.9589238535484235
aF6.4626086048120372
aF7.1554456714346433
aF7.9727960281299817
aF6.505141448048299
aF5.6493941522134499
aF7.1206422419195246
aF6.7516377810126542
aF6.9348938740812711
aF6.9872753830231238
aF7.2931497367418645
aF5.347251069920202
aF7.0586953048462187
aF6.8858183719899175
aF7.2790069138073594
aF6.7126645571753292
aF7.2463985857988638
aF6.7175804686613567
aF7.3978799537321986
aF6.6717462668632228
aF6.0518136310942996
aF7.204835206631377
aF7.0065561058705494
aF7.016685736956914
aF7.0178662473926572
aF6.7934537489147226
aF7.3077745847672775
aF6.7774065641793086
aF6.6082252468885363
aF6.7603540302764733
aF6.2484437540312019
aF6.6894808839307975
aF7.2473389256804506
aF6.522964368384307
aF6.7464740124484903
aF7.007352502582564
aF7.337327535417157
aF6.5387880063469144
aF6.7637435261156789
aF6.2590822496925211
aF7.2863821787490446
aF7.2981909034282202
aF6.6611225021994338
aF5.8957388542774822
aF7.5998682220628675
aF6.6653643443935966
aF6.7073867432050056
aF6.1364251981441518
aF6.5109002237623956
aF7.390366748816442
aF6.3162724795136436
aF6.8475835753341157
aF7.077403241999793
aF7.8971557010628448
aF6.3442319840116808
aF6.7977652664862953
aF7.4838802538141058
aF6.0248205280256091
aF7.124545267427842
aF6.0163202511506952
aF5.7906912488473532
aF7.0357118762586532
aF7.0570819696854086
aF6.5629780874273624
aF7.1608899435304307
aF5.78648920121418
aF6.9814645343838269
aF6.6413899598844939
aF6.8811629166220927
aF7.1396536675678659
aF7.077445970478613
aF7.108440819858763
aF6.8454900509443757
aF8.5504466736020301
aF6.4900790941747113
aF6.6208209759415233
aF7.2901939877758934
aF6.5222927671980493
aF7.2047178515395585
aF7.2022707801867218
aF7.1848158491025931
aF6.9581466737627204
aF6.2361118037846763
aF5.8117381715436327
aF7.2153000141989239
aF6.995891491419127
aF6.1843814699792548
aF5.9178732804456642
aF6.6591824753531341
aF6.6803102899361155
aF6.5748674714805517
aF6.6103324327583497
aF5.8333025153479356
aF7.066541307605184
aF7.1243591559210051
aF6.2021963241703828
aF6.7945588290453127
aF6.0570256327774166
aF7.0893180569530809
aF6.3941385341383539
aF7.1766020283905361
aF5.9240547413149018
aF6.7620298352748707
aF7.143862757036926
aF6.8467064199301166
aF6.7370377271149424
aF6.8351156152582186
aF7.0213353618476173
aF6.8991756304805136
aF6.0541864388548117
aF6.8332569688627087
aF6.5638765527693828
aF6.312875696423121
aF6.6631738087368948
aF6.4720636737677744
aF7.015481958431355
aF6.9016875222999055
aF7.0412867951915068
aF6.2291341253252046
aF7.3260159451671614
aF6.7687268878487679
aF7.1514225173087693
aF7.0876537735472755
aF6.9060848659235488
aF7.96375153865527
aF7.11134436328308
aF7.1657411362368961
aF6.2125187580409129
aF7.4954153575311029
aF7.215562120293626
aF6.641391405047151
aF5.6293245598335862
aF4.7106797188805176
aF8.0468129764644409
aF6.5961181788009133
aF7.6032554245468464
aF7.1493508319373866
aF6.6079723551189478
aF7.2873614734435934
aF8.081808290848107
aF6.9813617795465275
aF6.8223222613031584
aF6.5986346730171856
aF6.9941157969282983
aF6.8610869059953945
aF6.6973707292223814
aF6.4638447549502418
aF6.7776695681342956
aF6.8992118907916096
aF6.0871827614984886
aF6.7091527569025056
aF6.9975746857177636
aF7.1668961721673208
aF7.3746308996127645
aF6.9224000589582522
aF6.7370377271149424
aF7.389033273873717
aF7.1706762094993213
aF6.9106846991694564
aF7.5715175465765077
aF7.5760534580043304
aF6.2942310767186616
aF6.55902521741712
aF6.8874277880535617
aF6.2926455700547157
aF6.2730290658399674
aF6.5847671225386737
aF5.9197810239449096
aF7.032155957297678
aF7.4402296732770612
aF7.0252060188687357
aF6.2428387440941995
aF6.9853524189600167
aF6.9488694590299787
aF7.1891425760849392
aF7.0646888815763011
aF7.0343367860438626
aF6.1027714935166344
aF6.6672534977025064
aF6.9626646930005638
aF6.3048213046965316
aF6.5565321110801262
aF7.1709765832336743
aF7.1949734886064327
aF6.5406875678460441
aF6.5641754087126918
aF7.4980433854017443
aF6.6396156537946123
aF7.1021856931559402
aF7.8278190246173205
aF7.1596493666201111
aF6.3144735794231508
aF6.7869230221527914
aF6.3000596440514407
aF6.829557846230415
aF6.9505384008924151
aF6.6857159359906513
aF5.0432220000972201
aF6.9264146082022826
aF8.015922345790452
aF7.2099504249046369
aF6.9277898116849386
aF6.9476778441679903
aF7.0144668832653174
aF7.5146903870400674
aF6.8530350273102316
aF7.5160939634171839
aF7.2598750536291634
aF6.5646586314621187
aF7.4667005253165302
aF6.3886992820155708
aF7.0341276575333334
aF6.6871446937575127
aF7.0603392663574445
aF6.2272000407640462
aF7.1495540699287048
aF6.7238452153904626
aF6.7618304367238196
aF6.7435957498171124
aF6.3533356429511247
aF7.2979067161513766
aF7.3635215435465442
aF7.1160423934603818
aF6.4511682425427672
aF7.5721317513866602
aF7.0593660943273173
aF7.0838409530203972
aF6.6707412151586825
aF6.2541480446831743
aF7.0085070577269999
aF6.4561457483229754
aF8.2524147128390055
aF6.9227330498768351
aF7.0683053618846916
aF6.0581216406653295
aF7.2100088912091369
aF6.8402366147564413
aF6.4594037481229849
aF6.9369323365223945
aF8.165329117101825
aF7.2053827375402548
aF6.6043664171642709
aF6.6222963977813665
aF6.9485424470626036
aF5.5842229299815065
aF7.2027507333242875
aF6.4182000697183108
aF6.7873410393894273
aF6.8788111552542475
aF6.9550453890131241
aF6.100033617959153
aF6.9520422952373062
aF7.1650778281604346
aF7.2306353419971465
aF4.8288955642288043
aF7.0261692955752491
aF6.3588392993621339
aF5.3529032674288199
aF6.2487833851323451
aF7.0336872878705972
aF6.7116187968969383
aF7.0770079435667999
aF7.3965876571034848
aF7.026656225214353
aF6.8099545819813736
aF6.6288727260548885
aF5.7153333117233327
aF7.1464210258170233
aF6.2139829385476109
aF6.4171200135829984
aF7.0467420519304405
aF6.3399159022641109
aF6.4806092723604207
aF6.5781296112089835
aF6.6462634809638743
aF6.8712399356592497
aF6.7574633507511583
aF6.7215777285408063
aF6.5949157451390521
aF6.5283103224824517
aF6.7119353569789224
aF6.8735179372383879
aF6.7422353202493674
aF6.0233862181473636
aF7.2131431123285354
aF5.9497987026563157
aF7.0549678285977944
aF7.0019035519308144
aF6.5094298244695787
aF7.0713765491470761
aF6.3686304275557051
aF7.2802418396304676
aF7.4818155736178635
aF7.1822850918114405
aF6.3898868398115054
aF6.4973169628867868
aF7.1926972056300489
aF6.7077870451329709
aF6.5232592719777447
aF7.2875184683048264
aF6.7388218693104847
aF8.2504073858302238
aF7.0051192367656032
aF7.0109700077924311
aF6.1099162995145821
aF7.141841474833587
aF6.843544237328798
aF6.4481328286653454
aF7.0181556590893805
aF6.4882000598597305
aF7.7650639372520596
aF5.9113704146722075
aF7.0531765169919813
aF6.066274360325508
aF6.9398495106701272
aF8.1418976598178467
aF7.0331146062791889
aF7.1192212812372588
aF6.0639364622473169
aF6.9542312138769367
aF6.9089209617436342
aF7.7979597600682782
aF7.0317480628642794
aF6.6580257773790983
aF8.1162867721924528
aF7.1273237438675316
aF7.7807365970289837
aF7.6663234343579338
aF7.1775491006378518
aF5.6630286037997015
aF6.930216927468547
aF6.7363748699617307
aF6.9640520110408506
aF6.7725983007910893
aF7.3129646149567016
aF7.379976116842303
aF6.5995186500029224
aF6.5088469480925442
aF6.9808364738282398
aF6.9744604799716008
aF6.7573433356351762
aF6.9887528439829953
aF6.8075352476675999
aF6.9622829465446703
aF6.8353809408084718
aF6.0052540040529765
aF6.8523484784417752
aF7.0107574642769999
aF7.0257375614136084
aF7.0369648168368624
aF7.0335771744487587
aF6.962907569980616
aF6.4532574624123198
aF7.0119204771626515
aF6.9002388877360881
aF6.0701681835782519
aF7.5675910787237521
aF6.7592623804596679
aF6.8369718702113529
aF6.1758758509770644
aF6.6377609296264328
aF8.3544477526514331
aF6.2719989199186035
aF7.6232742966614415
aF6.9233631437642833
aF6.5481344902534966
aF6.9264264690080575
aF7.0251395622785084
aF7.0431366781230267
aF5.9964497613950032
aF6.863108364758828
aF6.5637759036699421
aF7.150204239167997
aF7.1007569388570992
aF6.6278898633980354
aF6.1615148708278467
aF6.8966593575502069
aF6.6567251700212484
aF7.4442529348511863
aF6.9085967754494737
aF6.7552347758364917
aF6.3299972029870277
aF6.7370106776818082
aF7.0196240850830272
aF5.945773891927991
aF7.1090993293818086
aF7.0982110924068502
aF6.6229815820787508
aF6.7496549341411622
aF6.3965551207946003
aF6.775630032296311
aF7.0160839732475822
aF6.9198644301522592
aF6.97107215824707
aF6.2292437420134137
aF6.9584251146489855
aF7.4335019856613238
aF7.2189748571232721
aF7.217085275922055
aF6.6686864671141644
aF6.7463262042824077
aF5.9655488176167806
aF7.5421109864466276
aF6.6427434428791283
aF6.917455625064262
aF6.286165905227076
aF7.4952634406089773
aF7.0132835868184236
aF6.8226664232579708
aF6.1697005647570897
aF6.6243655984474961
aF6.8040148262996309
aF7.1659822635815935
aF6.8033820454826799
aF6.3434042688573768
aF7.1396025108903469
aF7.0533937641675646
aF6.8908357690147595
aF6.4722473022496043
aF6.3604345131512057
aF6.7400775550328049
aF6.4634197434345664
aF6.3004038145627508
aF6.0478131865733511
aF7.5449953335569067
aF6.4073918434307817
aF7.2714910411283418
aF8.1130232435747729
aF6.5258558982517565
aF6.8162668960508306
aF6.7125270004398239
aF7.0433554422981128
aF6.7919833305062971
aF7.3153307370701626
aF6.9083205592842063
aF6.9373443921502318
aF6.2705588424862286
aF7.036547290870689
aF6.4975900129323909
aF6.7942078953189124
aF6.6548078529405199
aF6.7668071513029222
aF6.5284244165328351
aF7.7142523876261517
aF7.3893430940893712
aF6.9011444547849718
aF7.2521450223559087
aF7.6402666307214986
aF6.8912976609191325
aF7.0673805780190602
aF6.7226709381907588
aF6.7671913030278059
aF5.9201670350471325
aF7.3146149639577995
aF6.8334467363989315
aF6.8915771552486706
aF6.5467787310449026
aF6.6415257988469545
aF7.4438386839479112
aF6.4170558598131491
aF6.6360314712179482
aF6.6395823737490156
aF7.0990531917271911
aF7.0808494983353212
aF6.5494920570267166
aF5.8588662397433131
aF6.822449738266906
aF6.4615743960054628
aF6.8989096936818015
aF7.0824258418909283
aF6.646954654455377
aF7.2799726601922874
aF6.3802705691465817
aF7.8587394543216735
aF6.2001296165032924
aF6.7728094101607317
aF6.3389556110005696
aF7.3737004063037057
aF7.0004620392607597
aF6.5552793382960459
aF7.134303095453312
aF5.7098558011623997
aF7.0518506003293773
aF6.9749078326098397
aF6.0450650351159787
aF7.0925140289652271
aF6.0281359250423581
aF6.0121730848515185
aF6.7891553973679581
aF8.0370801645498275
aF7.033356922388716
aF6.7438919109365685
aF8.0644140460806213
aF7.058965822002305
aF7.038326430110545
aF6.6279905136400261
aF6.4895220631673993
asS'entroExc'
p6
(lp7
F6.6188934764161385
aF6.2217340415197233
aF6.6887398680144905
aF5.7780823876398202
aF7.4500069896087879
aF6.9588426752432397
aF7.6012656638876779
aF5.4038675842084176
aF6.6766482321982181
aF6.6453990481863485
aF6.9943194906938224
aF6.6564820693818909
aF5.8956491949418863
aF6.5820651864542068
aF6.5785055377372048
aF7.0404979582722174
aF7.4433994480856418
aF6.9000697855802491
aF5.9978975441241991
aF6.5348755663744447
aF6.5634144240141055
aF6.9058442623622245
aF6.3659444409971808
aF6.9741851170770515
aF6.5871534321635581
aF7.2559727419996083
aF7.3072736821879278
aF6.7148087457732801
aF6.9354361741643133
aF7.1689929598909137
aF6.89020346667564
aF7.2268167650498674
aF6.8257347557977655
aF7.167939930711996
aF6.6378768292264949
aF6.2564879993338876
aF6.6407264773516479
aF6.2976389788626506
aF6.8233927178793827
aF6.6646961568648697
aF5.699920809499722
aF6.5850661907009069
aF7.055000377321198
aF6.4499459319880463
aF6.6670973457440157
aF7.2176378710719309
aF6.8540829445462812
aF6.9029900508899624
aF7.2793691444647051
aF6.5374513876530731
aF6.5019374735958353
aF7.3002884899743155
aF6.5773094797398812
aF7.1317643782772935
aF7.395876828546462
aF6.4325018133699929
aF7.1397355144790247
aF6.3665775049613282
aF6.833421435502939
aF5.8220978744855518
aF6.2052849794027667
aF7.0348319695218811
aF6.8867574162049365
aF6.9822634889446551
aF6.6789169866798392
aF6.711632561823218
aF6.1834229931912894
aF6.8810527634051191
aF6.7937918632950103
aF5.4994281624143815
aF6.489196092260376
aF6.7898987554771484
aF7.0947111180662112
aF6.3984598271223829
aF7.0190457926448246
aF6.1710126238795535
aF6.6385126626011086
aF6.4711679467963945
aF6.8113554253339821
aF7.3107127444668389
aF7.0703893278913981
aF6.9388033000159917
aF6.5408177319050376
aF5.8801957289430984
aF7.0981795041184972
aF7.0213131504787683
aF6.6383533684748883
aF6.9011444547849718
aF6.562353866200338
aF6.620420725593144
aF6.7125545128361948
aF6.799890307167848
aF7.0064775640712051
aF6.740239499417048
aF6.7641019481246722
aF6.6937657122177834
aF6.7401720247994552
aF6.4605247016999172
aF6.8115224076435288
aF6.8710181001294703
aF6.9154372430474274
aF6.8503743914398401
aF6.7485685723918225
aF7.5326754064370167
aF6.4611683646062286
aF6.8121131129833064
aF7.3412119051816749
aF7.655938519786389
aF6.6122669725950018
aF6.5108480178042978
aF6.6227210161407069
aF6.936425935583685
aF6.7775380721500191
aF6.2576801238433895
aF6.8497241006784559
aF6.4142894708886153
aF6.417217926995086
aF6.6680340040758903
aF6.5212627899467934
aF6.9586687063492993
aF6.9748160792742455
aF6.9241949217094758
aF6.0796831740876165
aF6.5701471551312638
aF6.7154403986033744
aF7.0152477736989365
aF6.5653092782930429
aF6.8773516264492631
aF7.406136962191133
aF6.7717139446283419
aF6.8152295709491106
aF7.0120210784447288
aF6.9147558496716472
aF6.3188103104972164
aF6.9281334078298524
aF7.3123656699960389
aF6.6356731430906519
aF6.4265012701984681
aF6.3462743721974855
aF6.3198075789106536
aF7.0603068378637666
aF6.9148754156491972
aF7.0883642439918724
aF6.5825258963760334
aF6.8413441921807063
aF7.0508608028431974
aF6.7054665110905889
aF7.1399912561527534
aF7.2118882945460046
aF6.9474908348537348
aF6.7371188723715409
aF6.0820915453504698
aF6.8723362881046421
aF6.8683287136710751
aF6.6364433660624895
aF6.5788315633530452
aF5.7133081484324002
aF7.2037003739996237
aF6.6020470464117578
aF5.9237481977421691
aF7.0213131504787683
aF6.3311820945626121
aF6.8524733298122955
aF6.8952177829409722
aF6.5608310989762542
aF7.0708615614719568
aF6.4213562836538722
aF6.9298146637817197
aF6.8763082011175598
aF7.0740986362900422
aF7.2830420378330354
aF7.4011611184641053
aF6.9257027813513359
aF7.1178404683077883
aF6.7305856160971693
aF6.974793140028539
aF7.092651445103777
aF6.7520795309485964
aF6.5063893100134527
aF7.1242557502642798
aF6.8234946247128576
aF6.2196273987849695
aF6.1002376143457377
aF6.6660180156372926
aF6.9727271128691894
aF6.9021338913878783
aF5.8288067293431238
aF7.0425130181698865
aF6.5803233977993756
aF6.89415081734428
aF6.7656408229808616
aF7.0073637162986859
aF6.728110986609213
aF5.3021435477199299
aF6.7601677095049038
aF6.9192208859251618
aF6.7630529808827653
aF5.7676706868617584
aF6.4597283242639589
aF6.5328608288984462
aF6.8626249605556628
aF7.3917934919552399
aF6.7041111405324099
aF6.377703348933351
aF6.4601658946764315
aF6.7760908247371932
aF6.967399198924614
aF6.9445890863621624
aF6.0362703385784009
aF5.0837920324938866
aF6.9314821435317944
aF6.9561496065724748
aF6.7218511086242216
aF6.9202933002110063
aF7.0112608060805943
aF7.7355424853608232
aF7.3722991863885694
aF6.6223403296144996
aF6.256153952370572
aF6.4881968457390258
aF6.0763303424526596
aF6.5843176522807028
aF7.0591930172203297
aF6.4762050665143365
aF6.5695412184214721
aF7.2076781489039945
aF6.9876392061290176
aF6.9076478117531348
aF7.2177929474620974
aF6.7320113584993866
aF6.1466878029403906
aF6.274667944507847
aF6.4848116184438602
aF6.3763407461860613
aF6.8852082755453843
aF6.831243896855197
aF7.3423236170035091
aF6.8732964517352446
aF6.7704062162988397
aF6.6251082647462756
aF7.0849146597679393
aF7.4936553389636602
aF6.0891866801727952
aF7.0909380931688331
aF6.4661001236447282
aF6.4293481537237271
aF6.8024646662763244
aF6.4023776950090054
aF6.819846976689143
aF5.9729407394631586
aF6.470693034722621
aF6.9129491978527957
aF6.8261035347490582
aF7.0421299354357503
aF7.6734998909451759
aF6.3572458392833999
aF6.8902156289497904
aF6.1253576731413313
aF7.1269109260548893
aF7.1212537576058672
aF6.9477245927091316
aF6.5348708986744732
aF6.6747995908407773
aF6.2160493169396478
aF5.8595099388913345
aF6.1553849515204551
aF6.9821379682399218
aF6.9778408625069686
aF7.0502513589968494
aF6.6249898730984711
aF6.7907459773838363
aF6.5837642658145974
aF6.290440992403628
aF6.6317838424135784
aF6.9709801606357269
aF7.1306941067785763
aF6.8679952753375719
aF6.8146914048945062
aF6.1411997892915577
aF6.4013181537415598
aF6.9218885303526552
aF6.4558400873703565
aF6.6508937756167272
aF6.7910065609841554
aF6.2010241152730714
aF6.4452598969247061
aF7.1427810086939436
aF6.2942825488876277
aF6.7475350991418876
aF6.0236013446743071
aF6.5107341073379281
aF7.0064663434650942
aF6.4165965705706984
aF6.8820316083520998
aF7.5797006049708786
aF7.2803346484823912
aF6.8095945126214188
aF6.3695310440306878
aF6.7971816283696382
aF7.3004166278368743
aF6.165503988375475
aF7.0969891746449845
aF6.4770976725048914
aF6.1986807647026048
aF7.4715614198729208
aF6.9144210122076943
aF6.2965656972095418
aF6.5346125957361068
aF6.7866094297214863
aF6.4102715599348716
aF6.5814762873727259
aF6.5737380630589017
aF7.0537195736044911
aF7.2329772708465141
aF6.4552828290049717
aF6.8136529459579727
aF6.322061538006996
aF6.9820466735947999
aF6.9472570391167423
aF7.7678004374117942
aF6.5751322851517848
aF7.0331696816961999
aF6.6847486204216251
aF7.7957799328103707
aF6.8257601918555046
aF7.4410269213210514
aF6.8741944878930239
aF6.4377770358285913
aF6.3143140520301841
aF5.9142727022129611
aF6.4709012346026098
aF6.9016392579089914
aF6.5304484760548283
aF7.1851727751412495
aF7.0554342901448637
aF6.0851654305690239
aF6.8348123262957703
aF6.0197352685970769
aF7.4672876330987963
aF6.8610000314203372
aF6.963219780314934
aF6.8319658872154472
aF6.1958967731467016
aF6.2755825948287507
aF6.7802575982685775
aF6.9686898300578433
aF6.7019232663444495
aF7.000405700931231
aF6.7536045362799957
aF6.541576788278384
aF6.9895250674175262
aF6.738416576148162
aF7.1129502893908976
aF6.8559025152433346
aF6.7454524831316967
aF7.1990833695104097
aF6.7947927374473389
aF6.1517837420400587
aF7.5292821773375955
aF5.5177008790870552
aF6.8385610471519973
aF7.020224374290394
aF6.7058120651353095
aF6.9720033038083562
aF6.426622029115534
aF6.5154349256936515
aF7.5716161402747186
aF6.1597926421753781
aF6.9883552148531862
aF6.1110375740723812
aF6.8861233234888415
aF6.9772570233968851
aF6.5584895936156613
aF6.5335290869150997
aF6.813845309571791
aF6.1260002451658648
aF7.0046699215314225
aF6.9334428087492217
aF7.0985164102085374
aF6.8184543583046526
aF6.7330288839727768
aF5.2846362774381053
aF6.725673000366422
aF7.0028262646473385
aF7.0830750501471123
aF5.0728946926209106
aF6.1045673048283406
aF6.8889136838143052
aF6.8783942976717585
aF6.9890140834659888
aF6.8580556153550418
aF6.6801274076508799
aF6.6399643246352387
aF7.0661322553386245
aF6.8273617600691807
aF6.3464445885205647
aF5.9626924524392466
aF6.9904670744319981
aF6.9579842250918631
aF6.9436517920693763
aF6.9703014970175907
aF7.2728816806310927
aF6.5376796785262288
aF6.8827897566521958
aF5.621735417119794
aF5.8937796193298659
aF6.7650838337039261
aF6.9541497710865317
aF6.4733063660959287
aF6.672793040904633
aF6.1226602960234606
aF5.528865078679253
aF6.0193149498856178
aF6.8607890285275746
aF6.4557579094022799
aF6.9591093868095744
aF7.0658953825842952
aF6.1334299519049704
aF6.7005506904145893
aF6.7356034078385418
aF6.9900585686090864
aF6.6293172733146735
aF6.5319210055419088
aF7.3476567988631665
aF6.7361312949078194
aF6.7668866393629354
aF6.4099933476893574
aF6.2170775186942713
aF7.0455631029735866
aF6.3246000150478503
aF6.9402959763355705
aF6.6517979672050229
aF6.5849474725695423
aF6.7797324854139456
aF5.5165856805974451
aF6.5481483651599204
aF6.8945267702573947
aF6.862389397253815
aF6.9557777539920567
aF6.8586773005353887
aF6.3633638441898777
aF6.1992168916597183
aF6.2102778056962862
aF7.0241866812657605
aF6.8941750753275812
aF6.0435019957392759
aF6.8750796749553498
aF6.8959569212950367
aF5.9877619757219129
aF6.5554112603556485
aF5.9808912972768775
aF6.5622210508028855
aF6.4617577275742546
aF6.8041439311482934
aF6.8366689712680451
aF5.851399254763626
aF6.8324216950341672
aF7.0176658514333896
aF6.553191523620078
aF6.6990379585309627
aF7.081382239506965
aF6.5535018166269126
aF7.174935666514858
aF6.7955721583367641
aF7.0337533518898203
aF6.0115336557843699
aF6.6598104166213234
aF6.6311552240879887
aF7.0135627536390013
aF6.6654354099641466
aF7.6010353278288694
aF6.8823618186821944
aF7.3274089287791657
aF6.5509145129762896
aF6.871868284484778
aF7.1167702081495046
aF7.207463414209708
aF6.0471391844192555
aF6.6748701931692951
aF6.646983446166101
aF6.5673720363759269
aF6.145565377074961
aF6.4623190356236941
aF6.3978628447828969
aF7.0845745619255132
aF7.7018262584120558
aF6.7665024064947641
aF6.6120339618228927
aF6.5535540376014758
aF6.0932960691635945
aF6.9307964631972414
aF7.0304905815003185
aF6.3763355363176917
aF6.986627095759169
aF7.1029730042413979
aF6.37577449706873
aF7.6243787592484287
aF6.8521736683691854
aF7.8537399602019198
aF6.6503050289200285
aF6.2075649291394353
aF6.8079344598978873
aF6.717361120339044
aF6.8681434796667258
aF6.4626086048120372
aF7.1280768320061441
aF7.3942740386450252
aF6.3911559293441185
aF5.6143623777556924
aF7.1206422419195246
aF6.6619490737192004
aF6.696494661940096
aF6.9003717398120932
aF7.2053729620245885
aF5.347251069920202
aF7.0197686219804973
aF6.7964290352423076
aF7.2481647793006925
aF6.5094440766486814
aF7.0438803410142912
aF6.6525438573976814
aF7.0036134795840264
aF6.5806188664529843
aF6.0518136310942996
aF7.149655678188779
aF6.9038457026101883
aF6.9255247697475699
aF6.9419631262729382
aF6.6814914323246271
aF7.2669364233027851
aF6.4849485331325933
aF6.5231463372983551
aF6.7019371240880403
aF6.2307352395193636
aF6.3759951174768279
aF7.2473389256804506
aF6.4715354084368117
aF6.6689275201023088
aF6.9590746011405153
aF7.1905062194442904
aF6.4893470436100298
aF6.7180327692778272
aF6.2159328705528996
aF7.0418781399559247
aF7.2008789930779091
aF6.6010561338869689
aF5.6895759301277362
aF7.278365821301076
aF6.6653643443935966
aF6.6575828450009622
aF6.1364251981441518
aF6.4122886896946172
aF6.918565128989437
aF6.2863507564042447
aF6.6959798981600702
aF6.9665919677548205
aF7.5038972748191934
aF6.2844030840935234
aF6.5918260005160434
aF7.2314228078580935
aF5.949336490440186
aF6.9664189308681497
aF5.9501860998219831
aF5.7906912488473532
aF6.9783558185242223
aF6.8451010981156166
aF6.4635734158950795
aF7.0889260101771923
aF5.7199993128596534
aF6.9282518702876024
aF6.5632679760971282
aF6.6678069912250235
aF7.1086394496259775
aF6.9976537136841985
aF7.0232331704717081
aF6.8454900509443757
aF7.7387813451174834
aF6.4900790941747113
aF6.5678085670378712
aF7.1957412932464493
aF6.4099543258282594
aF6.9053147932401746
aF6.8566745159913625
aF6.8898142197565768
aF6.9129731418064724
aF6.0558919267478055
aF5.8117381715436327
aF7.0970840156511716
aF6.904773089664328
aF6.1843814699792548
aF5.835292504380047
aF6.6306675652319571
aF6.6283099222520185
aF6.4637630316897479
aF6.580002233134258
aF5.7319869290673013
aF7.0311746108217026
aF6.9963096491565082
aF5.9908868071390788
aF6.741588329479014
aF5.9912746677164623
aF6.9145525647653239
aF6.3268500994965224
aF7.0818508890629444
aF5.8912903690379759
aF6.5176237250306155
aF6.854581685350297
aF6.7526415625825074
aF6.7370377271149424
aF6.6750819794264791
aF6.9804366565236737
aF6.800395191857743
aF6.0152522347156667
aF6.6387964521887604
aF6.2321292406389013
aF6.1645389171052489
aF6.5342157149692586
aF6.3962639737933635
aF6.9748734257928211
aF6.7478841469276221
aF6.9871616694840455
aF6.112939867063468
aF7.0236323912148784
aF6.7441476375315128
aF7.0763987582705186
aF6.9832672616258682
aF6.8633190287318797
aF6.9566839767976898
aF6.8010551591934156
aF6.9814074492666425
aF6.1622039928405199
aF7.0655723115936215
aF7.1285924190548622
aF6.5784964804183064
aF5.5105189185814147
aF4.5395248679217657
aF7.751724803061772
aF6.5742892521544514
aF7.346885993531755
aF7.084861524764678
aF6.6079723551189478
aF7.1771205028465168
aF7.4985221452922772
aF6.9813617795465275
aF6.7371864899324416
aF6.3314365131696455
aF6.9336906549522341
aF6.768568110020472
aF6.6973707292223814
aF6.3960669880879699
aF6.5952350994519024
aF6.769851064141978
aF6.043377316891247
aF6.6854075869575871
aF6.9698066765664777
aF6.9147319352869818
aF7.1723674992848263
aF6.8688348986369796
aF6.6992184594241406
aF6.8870377914191963
aF7.1706762094993213
aF6.8823740472430721
aF7.1052799745614106
aF7.2759289301233085
aF6.0966329382915312
aF6.55902521741712
aF6.7922957571349158
aF6.1477808702060583
aF6.1901683931604561
aF6.4070671753200239
aF5.8699158112924392
aF6.9827654625836466
aF7.1956330378517572
aF6.8304835164576465
aF6.2428387440941995
aF6.9126977623438277
aF6.8810038037200121
aF7.1327927372610995
aF7.0106791508774
aF6.9766844026528263
aF6.1027714935166344
aF6.4960132750599211
aF6.9103848959538219
aF5.9225142359317164
aF6.4685295570436452
aF7.09773719544439
aF7.0569194533936495
aF6.4994026485918548
aF6.4939690995191821
aF7.4135263867968932
aF6.6076927915786809
aF6.9659112362398981
aF7.543712395164925
aF6.7370783003137493
aF6.1824281234956144
aF6.670627925992993
aF6.1887233426258836
aF6.7657071169065919
aF6.8884753819149038
aF6.6857159359906513
aF4.6922765375078033
aF6.8750428030025894
aF7.6107074432913944
aF6.9814873677982616
aF6.9277898116849386
aF6.8588761832267551
aF6.9764094639451795
aF7.4717564906964453
aF6.6792689579521429
aF7.1763028237326187
aF6.7577300152697024
aF6.496823425560641
aF7.2567087675843798
aF6.3183692691495041
aF6.9354951075445328
aF6.6525008357518685
aF6.4806221965940329
aF6.0212909387679527
aF7.074269934512591
aF6.7238452153904626
aF6.5792721845963724
aF6.7020618377907768
aF6.1922178417035205
aF6.7625481425665308
aF7.2002905102564716
aF6.799993887663712
aF6.3391088728781435
aF7.1669664488539828
aF6.8443479881666951
aF7.0055908672044165
aF6.5425103445418538
aF6.1760434628256924
aF6.9235414222707012
aF6.3474459757931028
aF7.9531022397282971
aF6.8235073625609237
aF7.0439131408439497
aF6.0581216406653295
aF7.0428303525374423
aF6.517848877360537
aF6.4000631009542701
aF6.8730503168452213
aF7.5310538925654766
aF7.1084512747388544
aF6.5334792508452768
aF6.4585034048807008
aF6.6566250747189182
aF5.4965741969354625
aF6.8432552799596396
aF6.3475894805586446
aF6.7456676020526789
aF6.7711328783767319
aF6.8162284899002614
aF6.100033617959153
aF6.8259763802415812
aF7.0529266422906698
aF7.2006240133269692
aF4.6521480098560879
aF6.9492314215538205
aF6.3156513607257105
aF5.1316553292445519
aF6.0600625197795166
aF6.9840082364451712
aF6.6421296938553382
aF6.8221947730745116
aF7.172517518006523
aF6.6793674945224906
aF6.6635865664773926
aF6.5873979973089964
aF5.5878210121311991
aF7.0221680414229013
aF6.173451283765762
aF6.1989635817724613
aF6.9604537898658929
aF6.209285691326718
aF6.1720614127124813
aF6.4689172355457307
aF6.5241984832103723
aF6.7971946006710313
aF6.7184164283279069
aF6.668431190630991
aF6.4875940715301201
aF6.513763909570315
aF6.6334995071545437
aF6.7826575551203065
aF6.5240997301619004
aF5.9591998256240322
aF6.9787790891508115
aF5.9064673429831043
aF6.977737849242815
aF6.9035926753717414
aF6.4464133956735612
aF6.9876960452022647
aF6.3686304275557051
aF7.115886385388821
aF7.4036597057789866
aF7.0450934383449475
aF6.3898868398115054
aF6.4083348363700168
aF6.9170259104937033
aF6.6658901467399572
aF6.3546267037079076
aF7.0273310150170909
aF6.5988534854383962
aF7.8111498821099072
aF6.9002026532283978
aF6.9183385254881635
aF6.0545164105917229
aF7.0076328193405049
aF6.7561826745014928
aF6.3610875498820638
aF6.960337942383144
aF6.3926282557228431
aF7.4653868219728974
aF5.8886848094345305
aF6.9097491070185608
aF6.0338414325431673
aF6.9398495106701272
aF7.4514254391744821
aF6.9685861612790374
aF7.0218239254662542
aF5.9964090850501339
aF6.9237672100908272
aF6.8654734695754129
aF7.1737770597721457
aF6.9653687286473724
aF6.5741984113028122
aF7.526287954425964
aF6.895557106580636
aF7.4793680065492589
aF7.309449068570494
aF7.0915834830709068
aF5.5075155864792285
aF6.8629224592333724
aF6.7164696746775174
aF6.9206386861777274
aF6.4428871135614934
aF7.1593264399577725
aF7.080113992308231
aF6.5995186500029224
aF6.4713549411851341
aF6.9129851136342921
aF6.8458788989391097
aF6.7266950044996161
aF6.9253111268258047
aF6.7420601222301668
aF6.6804931490413377
aF6.7434880397891854
aF6.0052540040529765
aF6.7889075261916005
aF6.8828875532249612
aF6.9916578894882146
aF6.947455767908437
aF6.8978938474804066
aF6.8316746012530167
aF6.4084961878116991
aF6.8068782387036704
aF6.8437828975975679
aF6.0701681835782519
aF7.3183801160456756
aF6.6821940344350246
aF6.8369718702113529
aF6.1363657232828537
aF6.6377609296264328
aF8.0994109351497556
aF6.1858388009091589
aF7.2894195200499983
aF6.8007963844548884
aF6.4888507718071633
aF6.8627985089063106
aF6.9208411153772014
aF6.9501300970254798
aF5.9369629504159533
aF6.767442933189475
aF6.5637759036699421
aF6.9789620866431425
aF7.0358328214773929
aF6.5904508201383569
aF5.8722279218262416
aF6.8136272955380939
aF6.6162327027138215
aF7.3780346921024194
aF6.8470072190084412
aF6.72591834739411
aF6.2692594851570185
aF6.6208634868541605
aF6.9421039239413016
aF5.945773891927991
aF7.0787379091818599
aF7.0544035340167062
aF6.381795562921738
aF6.6573398888529347
aF6.3554303874083962
aF6.5403156058109797
aF6.9129013087532369
aF6.9198644301522592
aF6.87140012899743
aF6.1046700348281195
aF6.8362018774333198
aF6.9477012186279135
aF7.1378723474923182
aF6.65520869700463
aF6.5688955170800778
aF6.672326330090792
aF5.9655488176167806
aF7.377505547629263
aF6.3022020511684742
aF6.8791543593165354
aF6.2017945872616416
aF7.3264384758484491
aF6.9052305415973834
aF6.7609793597916452
aF6.1697005647570897
aF6.6243655984474961
aF6.6927479969071078
aF7.0863485656158209
aF6.7828016876985666
aF6.2294533367019431
aF7.0211576613211832
aF6.9639017826705434
aF6.8361387450442788
aF6.3888318550486982
aF6.3604345131512057
aF6.7058949857917618
aF6.3504990150916791
aF6.1905931327109336
aF6.0478131865733511
aF7.3635303041165026
aF6.1488121127531459
aF7.1997606704003578
aF7.4119939240145527
aF6.4574990808224522
aF6.7077870451329709
aF6.6260477452805349
aF6.6610654798069477
aF6.7418309850210472
aF7.0141544087046652
aF6.9083205592842063
aF6.8560270594379675
aF6.0722430301048833
aF7.0085854891193033
aF6.4618952109638137
aF6.6774800533406227
aF6.5093981524563675
aF6.7668071513029222
aF6.4034500931010507
aF7.1907531184432072
aF7.0783429763285968
aF6.8668708967454206
aF7.1603151746655671
aF7.3859141555890329
aF6.8154345337952318
aF6.9976085553763188
aF6.5530640076414333
aF6.6835140007899358
aF5.8945388961397409
aF7.1735672124936301
aF6.7076628253860537
aF6.8391155857039507
aF6.5467787310449026
aF6.5426496295016277
aF6.7590359594020972
aF6.4073187569826882
aF6.5901723324390824
aF6.6040386965617488
aF6.9765354840235556
aF7.0808494983353212
aF6.398969375909326
aF5.8380996094526152
aF6.6474728173561219
aF6.3500657884682603
aF6.8614839803043051
aF7.0119092988093783
aF6.4510759043615336
aF7.0952282149596995
aF6.3802705691465817
aF7.1543118114364894
aF6.0992804742957079
aF6.3567477419049236
aF6.2826659034176737
aF7.0092351852501924
aF6.9550221332416227
aF6.2978975478877679
aF7.0877598361279812
aF5.7098558011623997
aF6.8540205898210962
aF6.8460544733631892
aF5.9594363311077547
aF6.9662112592050756
aF5.9415289136075282
aF5.8098079931591018
aF6.7488905426459151
aF7.1472354578475095
aF6.9593180832122785
aF6.668941698435642
aF7.4458260043818498
aF7.058965822002305
aF6.9905805277467961
aF6.5852344832094474
aF6.3249995668173549
asS'perpExcOov'
p8
(lp9
F98.284599999999998
aF74.632599999999996
aF103.16
aF54.8752
aF174.85400000000001
aF124.40000000000001
aF194.18199999999999
aF42.337600000000002
aF102.29900000000001
aF100.107
aF127.497
aF100.879
aF59.534300000000002
aF95.807400000000001
aF95.571299999999994
aF131.64400000000001
aF174.05500000000001
aF119.434
aF63.906799999999997
aF92.724299999999999
aF94.576800000000006
aF119.913
aF82.478399999999993
aF125.73
aF96.145899999999997
aF152.84999999999999
aF158.38300000000001
aF105.041
aF122.398
aF143.90700000000001
aF118.62
aF149.792
aF113.43600000000001
aF143.80199999999999
aF99.586399999999998
aF76.452299999999994
aF99.783299999999997
aF78.664400000000001
aF113.252
aF101.455
aF51.981299999999997
aF96.006900000000002
aF132.97399999999999
aF87.423299999999998
aF101.624
aF148.84200000000001
aF115.687
aF119.676
aF155.34899999999999
aF92.890000000000001
aF90.631299999999996
aF157.61799999999999
aF95.492099999999994
aF140.24100000000001
aF168.41499999999999
aF86.372600000000006
aF141.018
aF82.514600000000002
aF114.042
aF56.575200000000002
aF73.786500000000004
aF131.12799999999999
aF118.337
aF126.43600000000001
aF102.45999999999999
aF104.81
aF72.6768
aF117.87
aF110.952
aF45.236899999999999
aF89.834400000000002
aF110.65300000000001
aF136.685
aF84.358400000000003
aF129.70099999999999
aF72.054299999999998
aF99.630300000000005
aF88.718800000000002
aF112.31100000000001
aF158.761
aF134.40000000000001
aF122.684
aF93.106999999999999
aF58.899999999999999
aF137.01400000000001
aF129.905
aF99.619299999999996
aF119.523
aF94.507300000000001
aF98.3887
aF104.877
aF111.422
aF128.57599999999999
aF106.90900000000001
aF108.69199999999999
aF103.52
aF106.904
aF88.066699999999997
aF112.324
aF117.053
aF120.71299999999999
aF115.39
aF107.52800000000001
aF185.166
aF88.105999999999995
aF112.37
aF162.15299999999999
aF201.68199999999999
aF97.834199999999996
aF91.192800000000005
aF98.545699999999997
aF122.482
aF109.709
aF76.515500000000003
aF115.33799999999999
aF85.289100000000005
aF85.462400000000002
aF101.69
aF91.853499999999997
aF124.38500000000001
aF125.785
aF121.44799999999999
aF67.634299999999996
aF95.019199999999998
aF105.087
aF129.36000000000001
aF94.701099999999997
aF117.568
aF169.61699999999999
aF109.267
aF112.613
aF129.071
aF120.65600000000001
aF79.827299999999994
aF121.78
aF158.94300000000001
aF99.434399999999997
aF86.014099999999999
aF81.361500000000007
aF79.882499999999993
aF133.464
aF120.666
aF136.08500000000001
aF95.837999999999994
aF114.67
aF132.59299999999999
aF104.363
aF141.04300000000001
aF148.25
aF123.425
aF106.678
aF67.747299999999996
aF117.16
aF116.83499999999999
aF99.487499999999997
aF95.5929
aF52.465899999999998
aF147.411
aF97.143600000000006
aF60.705199999999998
aF129.905
aF80.514799999999994
aF115.55800000000001
aF119.033
aF94.407600000000002
aF134.44399999999999
aF85.707899999999995
aF121.922
aF117.483
aF134.74600000000001
aF155.745
aF169.03299999999999
aF121.575
aF138.89400000000001
aF106.196
aF125.783
aF136.49000000000001
aF107.79000000000001
aF90.9114
aF139.51300000000001
aF113.26000000000001
aF74.523700000000005
aF68.604799999999997
aF101.548
aF125.60299999999999
aF119.605
aF56.838900000000002
aF131.828
aF95.691800000000001
aF118.94499999999999
aF108.80800000000001
aF128.655
aF106.014
aF39.455199999999998
aF108.396
aF121.03
aF108.613
aF54.480600000000003
aF88.018100000000004
aF92.594899999999996
aF116.374
aF167.93899999999999
aF104.265
aF83.153400000000005
aF88.044799999999995
aF109.599
aF125.14
aF123.17700000000001
aF65.629400000000004
aF33.913600000000002
aF122.063
aF124.16800000000001
aF105.55500000000001
aF121.12
aF129.00299999999999
aF213.12299999999999
aF165.685
aF98.5197
aF76.434600000000003
aF89.772199999999998
aF67.4773
aF95.957099999999997
aF133.36099999999999
aF89.0291
aF94.979299999999995
aF147.81800000000001
aF126.908
aF120.063
aF148.858
aF106.301
aF70.849599999999995
aF77.421800000000005
aF89.561800000000005
aF83.0749
aF118.20999999999999
aF113.87
aF162.27799999999999
aF117.238
aF109.16800000000001
aF98.7089
aF135.75999999999999
aF180.22499999999999
aF68.081299999999999
aF136.328
aF88.407700000000006
aF86.183999999999997
aF111.621
aF84.587800000000001
aF112.974
aF62.8108
aF88.689599999999999
aF120.505
aF113.465
aF131.79300000000001
aF204.15199999999999
aF81.982600000000005
aF118.621
aF69.809799999999996
aF139.77000000000001
aF139.22300000000001
aF123.44499999999999
aF92.724000000000004
aF102.16800000000001
aF74.339100000000002
aF58.061500000000002
aF71.278000000000006
aF126.425
aF126.04900000000001
aF132.53700000000001
aF98.700800000000001
aF110.718
aF95.920299999999997
aF78.272900000000007
aF99.166700000000006
aF125.45099999999999
aF140.137
aF116.80800000000001
aF112.571
aF70.580600000000004
aF84.525700000000001
aF121.254
aF87.781199999999998
aF100.489
aF110.738
aF73.568899999999999
aF87.139799999999994
aF141.316
aF78.4816
aF107.45099999999999
aF65.055599999999998
aF91.185599999999994
aF128.57499999999999
aF85.425600000000003
aF117.95
aF191.30099999999999
aF155.453
aF112.17400000000001
aF82.683700000000002
aF111.21299999999999
aF157.63200000000001
aF71.779700000000005
aF136.90100000000001
aF89.084199999999996
aF73.4495
aF177.48599999999999
aF120.628
aF78.605900000000005
aF92.707400000000007
aF110.401
aF85.051900000000003
aF95.768299999999996
aF95.256
aF132.85599999999999
aF150.43299999999999
aF87.747299999999996
aF112.48999999999999
aF80.007400000000004
aF126.417
aF123.405
aF217.94200000000001
aF95.348100000000002
aF130.977
aF102.875
aF222.21000000000001
aF113.438
aF173.76900000000001
aF117.31100000000001
aF86.688999999999993
aF79.578900000000004
aF60.3078
aF88.702399999999997
aF119.56399999999999
aF92.440200000000004
aF145.53
aF133.01400000000001
aF67.891800000000003
aF114.152
aF64.881500000000003
aF176.96100000000001
aF116.24299999999999
aF124.77800000000001
aF113.92700000000001
aF73.307900000000004
aF77.4709
aF109.916
aF125.252
aF104.107
aF128.036
aF107.904
aF93.156000000000006
aF127.074
aF106.774
aF138.42400000000001
aF115.833
aF107.29600000000001
aF146.94
aF111.029
aF71.100300000000004
aF184.73099999999999
aF45.813499999999998
aF114.449
aF129.80699999999999
aF104.38800000000001
aF125.54000000000001
aF86.021299999999997
aF91.483199999999997
aF190.232
aF71.496099999999998
aF126.971
aF69.1203
aF118.285
aF125.998
aF94.254499999999993
aF92.637799999999999
aF112.505
aF69.840900000000005
aF128.41499999999999
aF122.229
aF137.04599999999999
aF112.86499999999999
aF106.376
aF38.979300000000002
aF105.83499999999999
aF128.251
aF135.58699999999999
aF33.6584
aF68.811000000000007
aF118.514
aF117.65300000000001
aF127.029
aF116.006
aF102.54600000000001
aF99.730599999999995
aF134.00399999999999
aF113.56399999999999
aF81.371099999999998
aF62.366199999999999
aF127.157
aF124.32599999999999
aF123.09699999999999
aF125.392
aF154.65199999999999
aF92.904700000000005
aF118.012
aF49.239199999999997
aF59.4572
aF108.76600000000001
aF123.996
aF88.850399999999993
aF102.026
aF69.679400000000001
aF46.169400000000003
aF64.8626
aF116.226
aF87.776200000000003
aF124.423
aF133.982
aF70.201499999999996
aF104.008
aF106.566
aF127.121
aF98.997299999999996
aF92.534599999999998
aF162.87899999999999
aF106.605
aF108.902
aF85.035499999999999
aF74.392099999999999
aF132.107
aF80.148300000000006
aF122.81100000000001
aF100.55200000000001
aF95.998999999999995
aF109.876
aF45.778100000000002
aF93.581299999999999
aF118.976
aF116.355
aF124.136
aF116.056
aF82.331000000000003
aF73.476799999999997
aF74.042299999999997
aF130.16399999999999
aF118.947
aF65.959199999999996
aF117.383
aF119.09399999999999
aF63.459400000000002
aF94.053600000000003
aF63.157899999999998
aF94.498599999999996
aF88.141999999999996
aF111.751
aF114.29900000000001
aF57.735999999999997
aF113.96299999999999
aF129.577
aF93.909000000000006
aF103.899
aF135.428
aF93.929199999999994
aF144.501
aF111.089
aF131.03
aF64.5137
aF101.11199999999999
aF99.123500000000007
aF129.209
aF101.50700000000001
aF194.15100000000001
aF117.977
aF160.60900000000001
aF93.760900000000007
aF117.122
aF138.791
aF147.79599999999999
aF66.125699999999995
aF102.173
aF100.217
aF94.836600000000004
aF70.794499999999999
aF88.176299999999998
aF84.323499999999996
aF135.72800000000001
aF208.19999999999999
aF108.873
aF97.818399999999997
aF93.932599999999994
aF68.275499999999994
aF122.005
aF130.73400000000001
aF83.074600000000004
aF126.819
aF137.47
aF83.042299999999997
aF197.31800000000001
aF115.53400000000001
aF231.31899999999999
aF100.44799999999999
aF73.903199999999998
aF112.045
aF105.227
aF116.81999999999999
aF88.194000000000003
aF139.88300000000001
aF168.22800000000001
aF83.932400000000001
aF48.988199999999999
aF139.16399999999999
aF101.262
aF103.71599999999999
aF119.459
aF147.58199999999999
aF40.708300000000001
aF129.76599999999999
aF111.155
aF152.02500000000001
aF91.104100000000003
aF131.953
aF100.604
aF128.321
aF95.711399999999998
aF66.340299999999999
aF141.99100000000001
aF119.747
aF121.56
aF122.953
aF102.643
aF154.01599999999999
aF89.570300000000003
aF91.973500000000001
aF104.108
aF75.099699999999999
aF83.055000000000007
aF151.93799999999999
aF88.741399999999999
aF101.753
aF124.42
aF146.06899999999999
aF89.843800000000002
aF105.276
aF74.333100000000002
aF131.77000000000001
aF147.12299999999999
aF97.076899999999995
aF51.609900000000003
aF155.24100000000001
aF101.502
aF100.956
aF70.347399999999993
aF85.170900000000003
aF120.97499999999999
aF78.051299999999998
aF103.679
aF125.06999999999999
aF181.50899999999999
aF77.945999999999998
aF96.457800000000006
aF150.27099999999999
aF61.791499999999999
aF125.05500000000001
aF61.8279
aF55.356900000000003
aF126.09399999999999
aF114.96899999999999
aF88.253
aF136.13800000000001
aF52.709800000000001
aF121.79000000000001
aF94.5672
aF101.67400000000001
aF138.011
aF127.792
aF130.078
aF115
aF213.602
aF89.889399999999995
aF94.865300000000005
aF146.59999999999999
aF85.033199999999994
aF119.869
aF115.895
aF118.58799999999999
aF120.50700000000001
aF66.528099999999995
aF56.170400000000001
aF136.91
aF119.824
aF72.725099999999998
aF57.094999999999999
aF99.090000000000003
aF98.928200000000004
aF88.264600000000002
aF95.670500000000004
aF53.1496
aF130.79599999999999
aF127.673
aF63.597000000000001
aF107.009
aF63.614100000000001
aF120.639
aF80.273399999999995
aF135.47200000000001
aF59.354700000000001
aF91.622100000000003
aF115.727
aF107.83199999999999
aF106.672
aF102.188
aF126.276
aF111.461
aF64.680199999999999
aF99.649900000000002
aF75.172300000000007
aF71.731700000000004
aF92.681899999999999
aF84.230099999999993
aF125.79000000000001
aF107.477
aF126.866
aF69.211500000000001
aF130.114
aF107.199
aF134.96100000000001
aF126.524
aF116.43000000000001
aF124.214
aF111.512
aF126.361
aF71.615700000000004
aF133.952
aF139.93299999999999
aF95.570700000000002
aF45.585999999999999
aF23.2559
aF215.52699999999999
aF95.292400000000001
aF162.792
aF135.755
aF97.543400000000005
aF144.72
aF180.834
aF126.357
aF106.68300000000001
aF80.528999999999996
aF122.25
aF109.029
aF103.779
aF84.218599999999995
aF96.686000000000007
aF109.126
aF65.953500000000005
aF102.922
aF125.349
aF120.654
aF144.244
aF116.876
aF103.91200000000001
aF118.36
aF144.07499999999999
aF117.97799999999999
aF137.69
aF154.97900000000001
aF68.433599999999998
aF94.289500000000004
aF110.837
aF70.903300000000002
aF73.017399999999995
aF84.863200000000006
aF58.4818
aF126.48
aF146.589
aF113.81
aF75.732399999999998
aF120.48399999999999
aF117.866
aF140.34100000000001
aF128.95099999999999
aF125.94799999999999
aF68.725399999999993
aF90.259900000000002
aF120.291
aF60.653300000000002
aF88.556700000000006
aF136.97200000000001
aF133.15100000000001
aF90.472200000000001
aF90.132099999999994
aF170.488
aF97.524500000000003
aF125.011
aF186.58799999999999
aF106.675
aF72.6267
aF101.873
aF72.944299999999998
aF108.813
aF118.47799999999999
aF102.944
aF25.853300000000001
aF117.38
aF195.45699999999999
aF126.36799999999999
aF121.751
aF116.072
aF125.92400000000001
aF177.50999999999999
aF102.485
aF144.63800000000001
aF108.21299999999999
aF90.310599999999994
aF152.928
aF79.802899999999994
aF122.40300000000001
aF100.601
aF89.302099999999996
aF64.951499999999996
aF134.762
aF105.70099999999999
aF95.622100000000003
aF104.117
aF73.121200000000002
aF108.575
aF147.06299999999999
aF111.43000000000001
aF80.958399999999997
aF143.70500000000001
aF114.90900000000001
aF128.49700000000001
aF93.216300000000004
aF72.305999999999997
aF121.393
aF81.427599999999998
aF247.81200000000001
aF113.261
aF131.95599999999999
aF66.631
aF131.857
aF91.636399999999995
aF84.452200000000005
aF117.218
aF184.958
aF137.99299999999999
aF92.634600000000006
aF87.943399999999997
aF100.889
aF45.147500000000001
aF114.822
aF81.435699999999997
aF107.312
aF109.223
aF112.691
aF68.595100000000002
aF113.455
aF132.78299999999999
aF147.09700000000001
aF25.144100000000002
aF123.574
aF79.652699999999996
aF35.057600000000001
aF66.720699999999994
aF126.589
aF99.880399999999995
aF113.158
aF144.25899999999999
aF102.492
aF101.377
aF96.162199999999999
aF48.095199999999998
aF129.982
aF72.176199999999994
aF73.463899999999995
aF124.539
aF73.991399999999999
aF72.106700000000004
aF88.580500000000001
aF92.040599999999998
aF111.214
aF105.304
aF101.718
aF89.734700000000004
aF91.377300000000005
aF99.284700000000001
aF110.099
aF92.034300000000002
aF62.215400000000002
aF126.131
aF59.982399999999998
aF126.04000000000001
aF119.726
aF87.209500000000006
aF126.913
aF82.632099999999994
aF138.70599999999999
aF169.32599999999999
aF132.06399999999999
aF83.858599999999996
aF84.937799999999996
aF120.846
aF101.539
aF81.8339
aF130.44800000000001
aF96.928799999999995
aF224.59
aF119.44499999999999
aF120.956
aF66.464699999999993
aF128.679
aF108.09699999999999
aF82.2012
aF124.529
aF84.018100000000004
aF176.72800000000001
aF59.247599999999998
aF120.238
aF65.519000000000005
aF122.773
aF175.02600000000001
aF125.24299999999999
aF129.95099999999999
aF63.840899999999998
aF121.41200000000001
aF116.604
aF144.38499999999999
aF124.964
aF95.2864
aF184.34800000000001
aF119.06100000000001
aF178.44900000000001
aF158.62200000000001
aF136.38900000000001
aF45.491199999999999
aF116.398
aF105.16200000000001
aF121.149
aF86.996600000000001
aF142.946
aF135.309
aF96.973500000000001
aF88.7303
aF120.508
aF115.03100000000001
aF105.91
aF121.542
aF107.044
aF102.572
aF107.15000000000001
aF64.233500000000006
aF110.577
aF118.02
aF127.262
aF123.422
aF119.254
aF113.904
aF84.947299999999998
aF111.96299999999999
aF114.864
aF67.189700000000002
aF159.607
aF102.693
aF114.32299999999999
aF70.344499999999996
aF99.578400000000002
aF274.262
aF72.798599999999993
aF156.435
aF111.492
aF89.812899999999999
aF116.38800000000001
aF121.166
aF123.651
aF61.263800000000003
aF108.944
aF94.600499999999997
aF126.14700000000001
aF131.21899999999999
aF96.365899999999996
aF58.575600000000001
aF112.488
aF98.103499999999997
aF166.345
aF115.121
aF105.85299999999999
aF77.132099999999994
aF98.418899999999994
aF122.965
aF61.639099999999999
aF135.18000000000001
aF132.91900000000001
aF83.389600000000002
aF100.93899999999999
aF81.879499999999993
aF93.074600000000004
aF120.501
aF121.084
aF117.084
aF68.815899999999999
aF114.262
aF123.443
aF140.83600000000001
aF100.79000000000001
aF94.936800000000005
aF101.99299999999999
aF62.489800000000002
aF166.28399999999999
aF78.913600000000002
aF117.715
aF73.608199999999997
aF160.501
aF119.86199999999999
aF108.45699999999999
aF71.988799999999998
aF98.658100000000005
aF103.447
aF135.89500000000001
aF110.11
aF75.033000000000001
aF129.89099999999999
aF124.837
aF114.25700000000001
aF83.797300000000007
aF82.164000000000001
aF104.39400000000001
aF81.600099999999998
aF73.038899999999998
aF66.156599999999997
aF164.68100000000001
aF70.953999999999994
aF147.00899999999999
aF170.30699999999999
aF87.882199999999997
aF104.53100000000001
aF98.773200000000003
aF101.2
aF107.027
aF129.262
aF120.119
aF115.843
aF67.2864
aF128.76400000000001
aF88.150400000000005
aF102.358
aF91.101200000000006
aF108.896
aF84.650700000000001
aF146.09399999999999
aF135.143
aF116.717
aF143.04400000000001
aF167.256
aF112.629
aF127.788
aF93.900700000000001
aF102.78700000000001
aF59.488500000000002
aF144.364
aF104.52200000000001
aF114.49299999999999
aF93.492500000000007
aF93.225300000000004
aF108.31100000000001
aF84.878
aF96.347300000000004
aF97.277799999999999
aF125.935
aF135.37799999999999
aF84.388199999999998
aF57.206200000000003
aF100.251
aF81.575599999999994
aF116.282
aF129.06100000000001
aF87.491799999999998
aF136.73400000000001
aF83.301500000000004
aF142.44999999999999
aF68.559299999999993
aF81.954300000000003
aF77.852199999999996
aF128.822
aF124.071
aF78.6785
aF136.02799999999999
aF52.340499999999999
aF115.682
aF115.045
aF62.2256
aF125.03700000000001
aF61.457999999999998
aF56.095300000000002
aF107.55200000000001
aF141.75299999999999
aF124.441
aF101.754
aF174.34800000000001
aF133.34
aF127.167
aF96.018100000000004
aF80.170500000000004
asS'normalExc'
p10
(lp11
F0.18631838633714448
aF0.16037740887671867
aF0.28783753462148576
aF0.2311232955055928
aF0.37343510715965927
aF0.23326093644360302
aF0.44868852521379332
aF0.21861708210622324
aF0.29740154972494809
aF0.37502156417673771
aF0.40115173472067422
aF0.38177542973587048
aF0.34038546497472982
aF0.30556470517550349
aF0.30184253514230708
aF0.31580949450863777
aF0.38854228846871458
aF0.26597814388606816
aF0.29549520288276421
aF0.2846636507475474
aF0.34983116423463839
aF0.32025085925195518
aF0.33504970742090423
aF0.36911301832967841
aF0.2768787106057195
aF0.37222354783057776
aF0.18669212146114628
aF0.33871729485347857
aF0.18542356304194479
aF0.40138654693381659
aF0.31515057108036193
aF0.34413413166904128
aF0.31252892514018271
aF0.34017537491544525
aF0.38008372157957127
aF0.3213742017261435
aF0.20885266186702259
aF0.2640107599796726
aF0.33616443106697935
aF0.12922291584194828
aF0.28288232002317587
aF0.21132483070869804
aF0.30082622686679622
aF0.30371609206621886
aF0.29996689094500467
aF0.33470994163276691
aF0.34142619070460545
aF0.13324348761034621
aF0.37691144713970398
aF0.34265555802416903
aF0.28403845734185507
aF0.21804052368867008
aF0.34569571134242
aF0.32518046531964184
aF0.22463376110106839
aF0.2783615773610858
aF0.23733283903108704
aF0.16207762621481545
aF0.34917152418742697
aF0.40368985417745312
aF0.33953808740876534
aF0.31747752246366712
aF0.19152061292128869
aF0.2219109008321378
aF0.10286218478880244
aF0.26761031526183748
aF0.28311948982601542
aF0.3229438077059324
aF0.20300336002183536
aF0.28100765213351142
aF0.20943790329665571
aF0.28952225572995915
aF0.19616921066168924
aF0.28249890254681342
aF0.24466855562842343
aF0.17858882152194464
aF0.17857339954274062
aF0.3813172281147299
aF0.20371013713943917
aF0.22318235647652274
aF0.36757203834468483
aF0.10903277481690893
aF0.30138497223725835
aF0.2829110489160821
aF0.35535344497959631
aF0.20110204650056501
aF0.3904913746161699
aF0.27451278700765658
aF0.16949575624307714
aF0.33480906718259729
aF0.29436498827592866
aF0.36769595638735525
aF0.21841982171677621
aF0.25734353991448256
aF0.18832817135950611
aF0.29935430315952516
aF0.33827953699320251
aF0.27472945567932244
aF0.35604397986853831
aF0.32176490318511347
aF0.31730202202990798
aF0.304235807611347
aF0.33127420221210119
aF0.33754725618513715
aF0.081024553323049003
aF0.3214834943099909
aF0.2592272042772189
aF0.34763826032049144
aF0.28721852346342619
aF0.19394366563530424
aF0.21966179038150976
aF0.19753962050836896
aF0.37422693616894998
aF0.081948656634436373
aF0.30632897432471279
aF0.25256240127338964
aF0.16357897334765584
aF0.2932598001861938
aF0.26296269597117816
aF0.35236588707065536
aF0.29500328775252466
aF0.081824328187892786
aF0.33724014496536248
aF0.28620010528615353
aF0.23742667222532687
aF0.3188748988044971
aF0.28226469243996283
aF0.22600379733096881
aF0.35674106470284833
aF0.31202410812417647
aF0.17406418147481648
aF0.084933382832943577
aF0.20634168479023635
aF0.40535187041375004
aF0.30921772688978333
aF0.33000244303155629
aF0.28932909828419273
aF0.35217010024574014
aF0.36161254291332617
aF0.38109873611801837
aF0.36507977534470132
aF0.33192464170964703
aF0.26791498559778376
aF0.33723301747412138
aF0.30383476238264723
aF0.15991677050329978
aF0.43465083606432603
aF0.27813457059405866
aF0.17294149155550606
aF0.29358507193820038
aF0.2663080062999913
aF0.46241285738034688
aF0.16113432101822825
aF0.28276461828577965
aF0.2034532250998469
aF0.25944379056928984
aF0.1539086538479148
aF0.35795474946230704
aF0.27556411953919463
aF0.1705072910371086
aF0.30214921000346001
aF0.44880559923207441
aF0.20171790522718866
aF0.25968892540416116
aF0.15563782162128018
aF0.29960201974634471
aF0.28241092644662857
aF0.20207749926573546
aF0.30039291850839883
aF0.31510539782431074
aF0.21476519296329022
aF0.29966425447863726
aF0.26500465206452206
aF0.22275906119844766
aF0.31870246585027406
aF0.32555546413990499
aF0.25968041949754156
aF0.29666934257982763
aF0.50049148538565025
aF0.33435788943474137
aF0.32905813048861654
aF0.21295598612812894
aF0.31842981146073163
aF0.31114307556896054
aF0.094088686246325909
aF0.22104519146869256
aF0.26331864722344112
aF0.09071457343191254
aF0.25032729955499805
aF0.29778196061498252
aF0.33998624357786111
aF0.094763350429282023
aF0.24230699848557072
aF0.41786745053315805
aF0.2748399006864003
aF0.24539947580898477
aF0.25802656516199513
aF0.38365974711701972
aF0.24057285430667821
aF0.097461972598404986
aF0.27126907003598844
aF0.34241822126880511
aF0.19557902290294002
aF0.091767890665210142
aF0.087781771873092024
aF0.28711218278375128
aF0.28660050666080894
aF0.25809362079924764
aF0.20188308021355239
aF0.30996427081334516
aF0.23958707185763251
aF0.31984409967228766
aF0.32917046499892472
aF0.27571108457991078
aF0.32548961160816131
aF0.2932149812086764
aF0.3344142821812513
aF0.38107286435945747
aF0.23331517264310633
aF0.32003914871939665
aF0.092448422094844801
aF0.19151466557083832
aF0.10557296574847939
aF0.2242526411853209
aF0.3361269698259009
aF0.26676813671171684
aF0.19875645289850491
aF0.22554269612016564
aF0.25745014842037134
aF0.30856123471566177
aF0.35138275383899775
aF0.22142822324538236
aF0.33943055345844775
aF0.24578987302416913
aF0.18823007936699229
aF0.36514534553603789
aF0.26756914707891089
aF0.34759754234029555
aF0.38268598532798037
aF0.30334286915555631
aF0.39855758813991632
aF0.42768550021984791
aF0.35512857892798128
aF0.25909723894162467
aF0.31291651702217466
aF0.090491392365640647
aF0.40872048977008529
aF0.30114251524843227
aF0.36195989500610964
aF0.20332126733008599
aF0.092779924450751394
aF0.097901022625229553
aF0.29763225793602122
aF0.10001169155893369
aF0.27422851397195919
aF0.28631595287436779
aF0.24576585241963966
aF0.080561949766629268
aF0.35154459089376983
aF0.26896604232900467
aF0.083070865495849314
aF0.25691228502811142
aF0.25903246057077423
aF0.32099540644948327
aF0.20716496061100176
aF0.25804716092376662
aF0.3347678921678765
aF0.088249362334301015
aF0.092256755539327898
aF0.3224994611063402
aF0.35020598395100622
aF0.076810263059074305
aF0.087082132450055721
aF0.26234931417609303
aF0.27196383836075733
aF0.16243924007889465
aF0.31646051766380079
aF0.24558443133515562
aF0.21577976555897169
aF0.31966657389752945
aF0.16738885782265814
aF0.2713591990342813
aF0.24907792934571524
aF0.19719314136430124
aF0.15590504922250242
aF0.19442029072078457
aF0.33860029313737539
aF0.15458023787936662
aF0.27969432846997017
aF0.22670122717278365
aF0.18106341075275548
aF0.30844248211219111
aF0.27663912164321763
aF0.2921259726366901
aF0.16462057756268972
aF0.29896751106262953
aF0.17409068598092672
aF0.28716063647370094
aF0.115655877575132
aF0.13941641802484597
aF0.12235937009984305
aF0.15320018296374496
aF0.25887688816406235
aF0.21015495985705862
aF0.37172407408558539
aF0.39722310834363073
aF0.25900610364364596
aF0.28879180492950174
aF0.34190444367993045
aF0.41292189023608383
aF0.29915801306239664
aF0.30419631932172558
aF0.28844804376454092
aF0.33117527898384225
aF0.11244021658893888
aF0.20619051804718305
aF0.34749192905208098
aF0.27905870920384818
aF0.11620801781488566
aF0.31738372165310463
aF0.33863654125761633
aF0.21440996189059891
aF0.16304264927857623
aF0.27224044421136451
aF0.16768328445185596
aF0.22175002657054205
aF0.27810014167732344
aF0.19151231657760839
aF0.39855596890432632
aF0.29102233423250207
aF0.19884596889687242
aF0.15597173804114112
aF0.27210201983561783
aF0.15485142304198776
aF0.22712246593224089
aF0.14500825000985715
aF0.20207546263988338
aF0.30061123394683903
aF0.12494162645458512
aF0.3538290601494592
aF0.20497797512188617
aF0.18431145299742763
aF0.16265614207200702
aF0.28673868758372867
aF0.28129248380263078
aF0.1238890428025553
aF0.16833902900520667
aF0.27478996034716596
aF0.14744596242778032
aF0.14848058707538042
aF0.3678697403903961
aF0.32420221867924814
aF0.33493574794807873
aF0.33178037690271051
aF0.29928105849319997
aF0.3542437341019764
aF0.25518379765405169
aF0.22388633353293153
aF0.21762385464432341
aF0.15483042029295457
aF0.25628591059865719
aF0.21312584773485674
aF0.17776609315094141
aF0.20497028489722849
aF0.35431114168471223
aF0.32295811897468596
aF0.40414297128766347
aF0.20408303500092753
aF0.38944581029750291
aF0.34377272183465785
aF0.16967896117131162
aF0.43105637846374484
aF0.31964122460858413
aF0.29073822845351527
aF0.1745992276161569
aF0.15262625204813102
aF0.29521164009987227
aF0.25453469301659376
aF0.28462457708537536
aF0.13455146416689889
aF0.36196987528509417
aF0.21087994511025751
aF0.18625028782424721
aF0.21725289790596919
aF0.22309589405113825
aF0.099373054965198812
aF0.29894194707309657
aF0.19763442941387552
aF0.10442205665992058
aF0.20874357128751994
aF0.19797501278213289
aF0.11225915847754493
aF0.43687757818661532
aF0.32052626815928381
aF0.34352185124924545
aF0.36221072436383739
aF0.10793198018558316
aF0.11534419179415749
aF0.24298334901454846
aF0.11458732935338457
aF0.28818649872977975
aF0.28245531938994034
aF0.1079171843886786
aF0.27597472632977033
aF0.38429392165992166
aF0.46740712729828299
aF0.21544415953873791
aF0.26340720541804608
aF0.30860277243989004
aF0.28609364136598092
aF0.39939831928658021
aF0.26417939222149434
aF0.089060272574434149
aF0.11032831331716948
aF0.32319213845314998
aF0.31763843260846236
aF0.29065209827125921
aF0.20988165220706514
aF0.23514323157008152
aF0.28616836725642142
aF0.28278750065723002
aF0.23136476810425788
aF0.27627082206519554
aF0.29604552901505771
aF0.29287527369164434
aF0.35814161944655354
aF0.2910628044226804
aF0.22119369160738611
aF0.28070195298482786
aF0.22762733540084368
aF0.27412520978247051
aF0.27885787712623028
aF0.35048138977600524
aF0.21746002086041066
aF0.28188436035819786
aF0.2442047267284809
aF0.29891564488205591
aF0.21603781429346874
aF0.40775491326092189
aF0.29962270904033728
aF0.2424248553048623
aF0.30504352116690825
aF0.062006741977267431
aF0.064515428156058527
aF0.2702040247786035
aF0.27000375680281552
aF0.22993706107279036
aF0.25505618023433124
aF0.3326534430956618
aF0.29674952453591263
aF0.31698660478309892
aF0.27390181459989621
aF0.41973626906553257
aF0.27151490157397101
aF0.29258242200779488
aF0.29977626494658255
aF0.26655815777150993
aF0.38227661773897897
aF0.39445577600271736
aF0.25301917168636462
aF0.39160133265480263
aF0.31939813523228777
aF0.1910770180365009
aF0.28845597337386908
aF0.33532103415038661
aF0.14141849353061001
aF0.46514133590501489
aF0.20661915532104461
aF0.2514484070597684
aF0.35277225100163651
aF0.49064472064359071
aF0.1537406248918709
aF0.23950385328153184
aF0.44266977991177431
aF0.24542386730302779
aF0.30401335627715181
aF0.29824695817430408
aF0.28634033936140163
aF0.2964413925255463
aF0.32318739462055474
aF0.25019694844344126
aF0.32802601263982589
aF0.2904596403340724
aF0.15627802656644371
aF0.18721570014910577
aF0.39666423311444288
aF0.37080204774233411
aF0.31849046911147538
aF0.24577747852567711
aF0.26076899867740616
aF0.31214737383229796
aF0.18823419755760082
aF0.30572188876214579
aF0.25359849735217976
aF0.32219739846583556
aF0.30746714869885644
aF0.32276569024070179
aF0.26835183154412406
aF0.19053722161499237
aF0.29830694958782367
aF0.29037763968882213
aF0.33870739880552769
aF0.29862312633667232
aF0.21526105788675096
aF0.26102230308222091
aF0.26903192314995744
aF0.31849392965261597
aF0.16012956562127451
aF0.21920402328499142
aF0.37899354542183539
aF0.21368211616885324
aF0.26658324329561645
aF0.15797315893936426
aF0.35327247438535792
aF0.26837083823136298
aF0.22492789514535425
aF0.33402626394135537
aF0.22241588407229398
aF0.26798957160021886
aF0.30567837022529493
aF0.26891314708926073
aF0.30653983437748261
aF0.13632916594531902
aF0.33466605851233217
aF0.19197598142819511
aF0.15527006753478123
aF0.15850746584744949
aF0.25588415572321177
aF0.24780280064158849
aF0.24386241916775042
aF0.31419678306994009
aF0.21186194388736018
aF0.21905966778587707
aF0.18470054047806589
aF0.28457458897346932
aF0.38303376422376595
aF0.166265068386136
aF0.21057438011234611
aF0.11863399508799048
aF0.31000473581904536
aF0.13841627463195644
aF0.30104224672866631
aF0.15573937508277697
aF0.30275398813978566
aF0.20072258409964355
aF0.24087595937859863
aF0.21628522388355539
aF0.24328893787967146
aF0.26704218363154808
aF0.35137378354195414
aF0.45115895330604716
aF0.21106305312477239
aF0.21081823932390883
aF0.17844842480759765
aF0.10489392456286346
aF0.30909253655166269
aF0.3151340643324903
aF0.32111799692032306
aF0.15852882418598283
aF0.28629477056358127
aF0.25391149396896229
aF0.38175740579319789
aF0.33632440325567625
aF0.26106452314100448
aF0.19070532565246115
aF0.18977596938914384
aF0.10029787239997592
aF0.30254798947274686
aF0.31487559900030798
aF0.10497351318617579
aF0.22947928332292555
aF0.28693672703044337
aF0.29748730219050729
aF0.44081074969895162
aF0.21233834407507915
aF0.28063773124369934
aF0.36685341868852328
aF0.34064081018943021
aF0.32555418399341274
aF0.34226650976818651
aF0.27712649178148063
aF0.29688267127939927
aF0.3039167546368719
aF0.2651890729628647
aF0.33183332964316337
aF0.19606674041378788
aF0.21466144725280217
aF0.30974214014459672
aF0.2228505932134256
aF0.2754742453544734
aF0.15634610723925491
aF0.25297574651921967
aF0.35947057649951791
aF0.33246009638361845
aF0.27158575715419064
aF0.29758993365343439
aF0.22634151922307827
aF0.21757488029787556
aF0.34646192962880823
aF0.23775748860607568
aF0.08764382834590384
aF0.20857643312215457
aF0.26003193729750684
aF0.29229926793552119
aF0.24873047433580556
aF0.11601677447040894
aF0.22685354352390766
aF0.20711285972375262
aF0.27122292629511913
aF0.10052788704836002
aF0.090396202383115548
aF0.24349320731177865
aF0.14889968051471666
aF0.10258550878465258
aF0.15829624100854825
aF0.28899804197407031
aF0.23517156952122575
aF0.17578523189134176
aF0.1134913699478623
aF0.24365197480105755
aF0.09571454341758967
aF0.34013307274874699
aF0.32783508516507404
aF0.18647610827614056
aF0.098454392484772335
aF0.2111300266665869
aF0.32462385078269718
aF0.5699137574756008
aF0.20743023770603619
aF0.21679716905396321
aF0.33973330345333835
aF0.23872356553641347
aF0.35205608573761904
aF0.28548243089228065
aF0.23224068314130289
aF0.36820408766635299
aF0.21144562902676919
aF0.20435187794655477
aF0.31822895754794345
aF0.3095036127534303
aF0.46265060423403626
aF0.24912148948041307
aF0.35586411252656736
aF0.31603139855198481
aF0.20122213971002548
aF0.2998022080419957
aF0.28915488883407603
aF0.27382695582217276
aF0.30729644416955437
aF0.27730467255575947
aF0.28540373537630154
aF0.31496197609666982
aF0.20372220779307779
aF0.24155359481776817
aF0.25068652208045639
aF0.31333641326631489
aF0.33225350844341062
aF0.35376299543003653
aF0.21121519080343715
aF0.21888442949462641
aF0.60820881792168602
aF0.19497514457833512
aF0.63298865004558724
aF0.19729632423345683
aF0.23059583574397524
aF0.23854944082490584
aF0.34616744560375101
aF0.17044322026983202
aF0.28614063519610966
aF0.28973759296865598
aF0.27701845448266899
aF0.15475281879207192
aF0.42400674299957791
aF0.39175509715472656
aF0.52574186412474244
aF0.11106258073176833
aF0.30834515340464019
aF0.2812898867039762
aF0.37964956119477772
aF0.22184565739945461
aF0.3427657959282025
aF0.29712073138073564
aF0.11375986143289808
aF0.36313264667094797
aF0.097985531790105745
aF0.33201814197220564
aF0.14947209658962748
aF0.28695563698847193
aF0.37245467167473606
aF0.32827646612458034
aF0.24047856268236462
aF0.23508811741817662
aF0.36252768215069325
aF0.21927322177759673
aF0.24631383227851694
aF0.22826418844665555
aF0.27704530572810099
aF0.22008846896458509
aF0.287519407274822
aF0.3563498567258318
aF0.081155024067108755
aF0.24171363278845989
aF0.17757034961462367
aF0.33825416821712612
aF0.39283891986544189
aF0.21528805882524943
aF0.31942784610149372
aF0.25317081053480045
aF0.29067787092449138
aF0.30379712333528947
aF0.24290158936888206
aF0.20946599420078027
aF0.37776916905456098
aF0.21179221909435977
aF0.3625241367007716
aF0.30145358788071963
aF0.29956686700935709
aF0.30848007958285784
aF0.084644437263636574
aF0.19724892422309431
aF0.23060337073288939
aF0.32548089558451626
aF0.1938858614082801
aF0.32239183309547276
aF0.33498783150377981
aF0.25306956789442553
aF0.27745525786901515
aF0.32278393504026565
aF0.3335731102957829
aF0.33435860946533791
aF0.071059692924522605
aF0.16185631782539256
aF0.26075565537449941
aF0.26775084827831658
aF0.38761048608183551
aF0.19830415471219334
aF0.27253718181687747
aF0.24078871787474257
aF0.2214989385908141
aF0.31072625334598275
aF0.19332097589968586
aF0.24964042916931406
aF0.29980652169033883
aF0.1596296765914221
aF0.28460282628775607
aF0.24533825702891304
aF0.18239040352587307
aF0.24104072390691708
aF0.30332195745713769
aF0.27017134999505393
aF0.31181859521073263
aF0.15080511518575118
aF0.32870772635278683
aF0.26471891122283903
aF0.1581885127154011
aF0.33210934479352949
aF0.27023460381754205
aF0.20600057636321409
aF0.13854200110176326
aF0.10957672944486337
aF0.21763066205992279
aF0.24048624543193151
aF0.24816592650726568
aF0.24668250394326099
aF0.29330906249218852
aF0.24777050631994341
aF0.40800730772868959
aF0.10024115065400765
aF0.30647349120532646
aF0.21412576643783832
aF0.28431927332415519
aF0.28506349404204073
aF0.26504854333813943
aF0.12712229953727994
aF0.1380864506455525
aF0.27465312806705588
aF0.16253766113763857
aF0.067370853719815035
aF0.30247118982154686
aF0.21983330092926906
aF0.33259111849228756
aF0.23913589016132863
aF0.17643473344213942
aF0.29577312416272256
aF0.16311819016236459
aF0.1269030352635388
aF0.31672789726957506
aF0.31920192575252182
aF0.15479150385605966
aF0.065090385023299377
aF0.22517036535355531
aF0.24400034544787286
aF0.13011769986575555
aF0.47468968531960354
aF0.31696677211112145
aF0.35786939950268137
aF0.18190353039456755
aF0.32997233752986532
aF0.29879015238644724
aF0.25240586028098227
aF0.32071278921739899
aF0.11385733595757976
aF0.15298511713170496
aF0.10150881068663109
aF0.20386935243329388
aF0.22700000156287597
aF0.1203781104696629
aF0.22722195194400946
aF0.17026078637847339
aF0.15010033552986074
aF0.21529019499506541
aF0.10363200787033877
aF0.11013591001548036
aF0.20096145784068659
aF0.20174301735787151
aF0.19358761280614262
aF0.16526421236849309
aF0.30059825036954479
aF0.31686684123362524
aF0.16384205658636894
aF0.24521272805526481
aF0.18047070578875429
aF0.14062940844506044
aF0.18968581085784153
aF0.32018133962747364
aF0.29098245308527293
aF0.21999716162064048
aF0.29566051387429049
aF0.062955406148323637
aF0.32186075255024277
aF0.15178689255967387
aF0.22096556929298927
aF0.26810166395675034
aF0.2383591492995914
aF0.22615529774277512
aF0.32232627810107223
aF0.29076342508087077
aF0.24527448233144009
aF0.14857019142731168
aF0.30737022696512245
aF0.2832435110320532
aF0.22803833741534055
aF0.31378034487473139
aF0.18570979869673482
aF0.055075648554038133
aF0.27455791298322091
aF0.28129950695684408
aF0.16749162039087104
aF0.31389965528487379
aF0.17216096819701723
aF0.32591417158956554
aF0.29571562042601096
aF0.27789823071633746
aF0.17893986360060316
aF0.13223696876292926
aF0.31122408730959628
aF0.23584435259574402
aF0.36323028178289535
aF0.39429979479158023
aF0.21956238187493074
aF0.31430396873907046
aF0.34487960931501244
aF0.28831161202573113
aF0.25798390473834026
aF0.3822348346391698
aF0.078782917188224638
aF0.29111137463014486
aF0.36720848878479279
aF0.15940668572459851
aF0.12294263690233839
aF0.24908652216388363
aF0.34158025901215394
aF0.34566334692220901
aF0.22131904971998786
aF0.31690208687499988
aF0.24783021027173457
aF0.07323035443827737
aF0.30761590094019348
aF0.31940709109202486
aF0.29294071786297221
aF0.30848344038587228
aF0.39664560235387353
aF0.28117288632075738
aF0.2764335412525285
aF0.23219479574655624
aF0.30063792419974433
aF0.31852557326334002
aF0.27110395384789121
aF0.20358354966215342
aF0.10741639426852255
aF0.19685276972054144
aF0.23420440001159795
aF0.11300440428158426
aF0.25995420736491531
aF0.25292983217902032
aF0.53229726385786613
aF0.33730376618326074
aF0.2307348392609031
aF0.17079833131697583
aF0.48643638231108999
aF0.22017470281862697
aF0.33317716692943261
aF0.14670170646743083
aF0.19350239794669469
aF0.23900466658764744
aF0.39045899911109266
aF0.30182073896919098
aF0.32573739973463706
aF0.2704110942451351
aF0.35877723575085929
aF0.2665734684051283
aF0.26787975553936783
aF0.23747188545879278
aF0.2559215702558712
aF0.29016742558153685
aF0.20363406889816912
aF0.22123059774200207
aF0.18938095689318196
aF0.31881434634165379
aF0.12095139200255219
aF0.22562619939510795
aF0.22616219608380589
aF0.29214443279308561
aF0.29407294869597311
aF0.34289471622639184
aF0.099978405773256146
aF0.16539891792007819
aF0.36499664614137517
aF0.27805889534420669
aF0.32070282970723812
aF0.35578709372186645
aF0.26428784362156232
aF0.46069270568358761
aF0.32644194209697058
aF0.33686456075441562
aF0.1982891466182661
aF0.33400735279546023
aF0.45751470568748054
aF0.19015197775978607
aF0.27687045019011469
aF0.16074568240723916
aF0.18515535064678496
aF0.29087559976791644
aF0.17366115062512677
aF0.32407128782701999
aF0.10756405658162276
aF0.3022498978082368
aF0.34174561924963703
aF0.28464095642858472
aF0.17315462008407295
aF0.32801996353390739
aF0.28647408100757016
aF0.1950564747863569
aF0.14182260894043802
aF0.24686122220176868
aF0.15337677089807325
aF0.22308732829674552
aF0.38471084741055678
aF0.22271224579478141
aF0.4617741675938839
aF0.2653394802146028
aF0.30472087421090632
aF0.13550035423908929
aF0.14673841455468165
aF0.20759617778112632
aF0.27427591157826131
aF0.25208491743773331
aF0.32360979105089444
aF0.17948520969941212
aF0.24671085578096691
aF0.23296131968825867
aF0.31683389206983636
aF0.16249741304183801
aF0.26098259601671436
aF0.23007853873788503
aF0.33958753741567105
aF0.37706534025307303
aF0.20786292248985128
aF0.29197509378136305
aF0.15916964181079418
aF0.28356330352608627
aF0.37390430630220339
aF0.21768718451736035
aF0.32728234029005199
aF0.26680404004844921
aF0.19417190147905022
aF0.41586819269855452
aF0.14270261907592269
aF0.19711306982576615
aF0.12445892695234134
aF0.22614646942277686
aF0.17181038915858007
aF0.30900193475458987
aF0.14014259361935855
aF0.30471172377805666
aF0.085652130931376982
aF0.29310760197966568
aF0.095743412290257901
aF0.28767730410221237
aF0.29113170297149737
asS'normalInc'
p12
(lp13
F0.18961018780153369
aF0.16239329001921229
aF0.28783753462148576
aF0.238046165514816
aF0.38099318109037766
aF0.23468207398529797
aF0.46946674677155159
aF0.22641907639887007
aF0.31058176462082171
aF0.37502156417673771
aF0.40115173472067422
aF0.38976694431420633
aF0.34038546497472982
aF0.32691555997163524
aF0.31433910287722244
aF0.3219517138139868
aF0.39371438094384997
aF0.26597814388606816
aF0.31121099730416746
aF0.28820313893275495
aF0.36222182407785286
aF0.32825623597614445
aF0.33810349240275067
aF0.40280252419714685
aF0.2842231678885877
aF0.39005399619294645
aF0.19079882004731688
aF0.3481270381043356
aF0.18941258346352011
aF0.40885546886019208
aF0.32018440365658613
aF0.34836719667320809
aF0.31604246352547238
aF0.34613371949846283
aF0.38363984571280974
aF0.32408640615907353
aF0.21554355887372176
aF0.27795714988992826
aF0.34567357079581112
aF0.13464299334898333
aF0.28519551735839344
aF0.21261753361125424
aF0.30510361873165054
aF0.30744607933958445
aF0.30385000953936836
aF0.33682909227552732
aF0.34633548929619129
aF0.13402020696285769
aF0.39676714497954851
aF0.34265555802416903
aF0.2875449044226322
aF0.22748793021898089
aF0.35070158033949833
aF0.34175313755232745
aF0.23549064080767021
aF0.28012061716278763
aF0.24176496885045065
aF0.16414124773018657
aF0.34917152418742697
aF0.40368985417745312
aF0.38416789063291867
aF0.32159897372414231
aF0.19634100678747488
aF0.23769115857766562
aF0.10675704396095823
aF0.26870357931981609
aF0.29278194134998575
aF0.3335709919459563
aF0.20860228305712394
aF0.28865248881785238
aF0.21001800433496168
aF0.28952225572995915
aF0.19863647759429895
aF0.28866199315493646
aF0.24887945748264453
aF0.18065048253965069
aF0.18031861351773343
aF0.3813172281147299
aF0.20371013713943917
aF0.22744003790814168
aF0.40909087225213525
aF0.11054880686492964
aF0.30893909421477261
aF0.28543120514931175
aF0.35535344497959631
aF0.20321244750093642
aF0.40294260419407235
aF0.28620890276090866
aF0.1773338276594135
aF0.3370352263390356
aF0.31707633140819119
aF0.36769595638735525
aF0.22128017776723641
aF0.26168534131533039
aF0.18990227937604928
aF0.30088844472227266
aF0.33827953699320251
aF0.28839672561530516
aF0.3656627883770236
aF0.37538700372373207
aF0.31935476506477056
aF0.33910995869684379
aF0.33818557901154339
aF0.37373477230131447
aF0.081777343821109891
aF0.32730847554831449
aF0.2659034828393691
aF0.36490060212648856
aF0.29038824180310729
aF0.19612732537718885
aF0.22028195881034643
aF0.20177200127113284
aF0.37422693616894998
aF0.082514624120033214
aF0.30807341921275921
aF0.25818606804867728
aF0.16786557564575405
aF0.2932598001861938
aF0.26997597783021959
aF0.35236588707065536
aF0.29820490863406418
aF0.082566266147901413
aF0.33724014496536248
aF0.29103625449307724
aF0.23910063792552944
aF0.3188748988044971
aF0.28368158870829302
aF0.22790637612397907
aF0.36438309811708103
aF0.3155903788753821
aF0.17599333645593943
aF0.085561400216899439
aF0.21024670419153435
aF0.40535187041375004
aF0.31230646006856044
aF0.34543499259999549
aF0.28932909828419273
aF0.36519270288522249
aF0.36629325156659709
aF0.39949724918928659
aF0.37282824175549834
aF0.33192464170964703
aF0.27315382317888032
aF0.34787174448510255
aF0.30532045222197052
aF0.16055871688048803
aF0.43465083606432603
aF0.28036145931582879
aF0.17448834932243529
aF0.29802034282253137
aF0.26882866132204153
aF0.46241285738034688
aF0.16162588895303742
aF0.28548467050184384
aF0.20627390499480749
aF0.26484789812829207
aF0.15605021402961169
aF0.36048602345947134
aF0.27556411953919463
aF0.17151523614650702
aF0.31183289160002559
aF0.52011923957335915
aF0.2045108291250381
aF0.2644170342890787
aF0.15830655778805727
aF0.31633657531549675
aF0.28241092644662857
aF0.20498719498882123
aF0.30039291850839883
aF0.32303874343335243
aF0.22520459952294225
aF0.3057759169742531
aF0.26711341008681705
aF0.23005160068441072
aF0.31870246585027406
aF0.32790284883671367
aF0.2623494331010065
aF0.30794055190894171
aF0.50808588335767368
aF0.34331612959058844
aF0.33540936093525231
aF0.21595999407218969
aF0.32140118616686769
aF0.31326511250820721
aF0.095032874589544389
aF0.22104519146869256
aF0.26885227061092198
aF0.091441782689593715
aF0.25860164448519113
aF0.32088775642285111
aF0.35298033271273038
aF0.095962132754857404
aF0.24632197316628301
aF0.41786745053315805
aF0.27603379573955722
aF0.24786995162594871
aF0.26024452471866083
aF0.40214734550313863
aF0.24380127406360552
aF0.098433482933162245
aF0.27356744160205015
aF0.34797375731432173
aF0.19781307745981117
aF0.093009601467813424
aF0.089084274952103013
aF0.29306254497355255
aF0.29566240805836908
aF0.26005652086802483
aF0.20766912274032995
aF0.30996427081334516
aF0.26044754046823765
aF0.3403139915018929
aF0.33105205097113222
aF0.27571108457991078
aF0.36351606886344001
aF0.30345539429851559
aF0.3428155995405418
aF0.38107286435945747
aF0.23435011613477505
aF0.33179734779790288
aF0.094439805351633141
aF0.19577896419359805
aF0.10665522134419306
aF0.23146322945691752
aF0.3409911545172174
aF0.2726977127561781
aF0.20428589753519413
aF0.22695949714984989
aF0.25972262959712789
aF0.31721786964858184
aF0.36855663506536096
aF0.22328922196796222
aF0.34460564169411062
aF0.25182910426908878
aF0.1909890138677246
aF0.36759941190406714
aF0.28322277408288205
aF0.35281624718829901
aF0.42957667523765042
aF0.31350120289781908
aF0.41348584005586114
aF0.4475137116468525
aF0.36622923585291062
aF0.26476514187910666
aF0.31849959641313386
aF0.091518041248374107
aF0.41737946989211372
aF0.30771428823618585
aF0.36195989500610964
aF0.20748369407504613
aF0.094470778183843127
aF0.098714873864365296
aF0.29894513031312364
aF0.100712223585446
aF0.28173849649506238
aF0.30105014442739036
aF0.24837518526478064
aF0.081978595442657523
aF0.35622177489690665
aF0.28549495184865448
aF0.083769726068738615
aF0.25913913038112457
aF0.26254903599935187
aF0.32099540644948327
aF0.20895679222172564
aF0.25804716092376662
aF0.3347678921678765
aF0.089448859983427872
aF0.093078026815190618
aF0.3321525993795007
aF0.35287440773761547
aF0.07841185898181012
aF0.088277468909036538
aF0.26370696916614528
aF0.27869509746016163
aF0.16331969105896715
aF0.34883935928245247
aF0.24750625967702602
aF0.2197642990726166
aF0.31966657389752945
aF0.16790607821785186
aF0.30155985600636198
aF0.25411449810189896
aF0.1991584843356286
aF0.15688423960581568
aF0.19731306006680127
aF0.345184283349531
aF0.15620226553815614
aF0.27969432846997017
aF0.22897573870929158
aF0.18649275322583994
aF0.3216687449068002
aF0.28564709605271921
aF0.29636701578016694
aF0.16838315240991875
aF0.31163977606117782
aF0.17655781760298758
aF0.28716063647370094
aF0.1167586532523763
aF0.14422694487650206
aF0.12405094558373077
aF0.15508150738953508
aF0.26366345914391004
aF0.22341857749954583
aF0.39854451381742673
aF0.39722310834363073
aF0.26190923022559892
aF0.29056220758374174
aF0.34642649572848122
aF0.41292189023608383
aF0.3060221042286338
aF0.30863658198273719
aF0.29377084086876964
aF0.35037146654427492
aF0.11400409608923084
aF0.21364609857667236
aF0.35384408645036369
aF0.28278575369404374
aF0.1170536556659794
aF0.32940671617358147
aF0.34172293858086328
aF0.21558256653886548
aF0.16701453907957661
aF0.28120825378857611
aF0.17164412170900442
aF0.23030034850820086
aF0.28463310128848535
aF0.19403537825254563
aF0.40346898189624963
aF0.29102233423250207
aF0.20332734879934689
aF0.15816938838993058
aF0.27347598235480591
aF0.15616499362957395
aF0.22996743700734168
aF0.14723224027545934
aF0.203904008451677
aF0.30577535818020002
aF0.13311196150872043
aF0.36202437820122196
aF0.20545316673100214
aF0.18576361667659291
aF0.16592092891334412
aF0.28985531510292206
aF0.28129248380263078
aF0.12508524863667733
aF0.1696928653828936
aF0.27712685711133028
aF0.14959548852914342
aF0.15271330123734236
aF0.37947466501909832
aF0.32420221867924814
aF0.34447442763379443
aF0.33630309374614242
aF0.29928105849319997
aF0.36774343767164047
aF0.27363749604342974
aF0.23189611861261672
aF0.23272344039535567
aF0.16213048286676443
aF0.25823587580539681
aF0.21589816267695877
aF0.17983411315347295
aF0.20497028489722849
aF0.36455185075720437
aF0.3280816393928781
aF0.4216674372951662
aF0.20774278988844647
aF0.39536220474654621
aF0.34377272183465785
aF0.17054528599387525
aF0.43105637846374484
aF0.35465016586905734
aF0.29073822845351527
aF0.17522608751541313
aF0.15359609364349691
aF0.29929266817644345
aF0.25813428196108085
aF0.30114849659342613
aF0.13606913943737126
aF0.36196987528509417
aF0.21850179984276172
aF0.18700452239312798
aF0.2221309482056254
aF0.22488278650310878
aF0.10164183143219298
aF0.32763045069792274
aF0.20550096313884014
aF0.10517463642165684
aF0.22031646611299543
aF0.20886141861833471
aF0.11569650480899175
aF0.43687757818661532
aF0.32998792129232751
aF0.35575583614048739
aF0.3728024731520953
aF0.10828103431721905
aF0.11665672598765824
aF0.24715811827656692
aF0.11587039887523436
aF0.29173589588256732
aF0.2942412794919545
aF0.108617617955961
aF0.2771777689377149
aF0.39033108410001072
aF0.46740712729828299
aF0.21805592524028156
aF0.26431020508820824
aF0.31292846033677579
aF0.29047337710391397
aF0.39939831928658021
aF0.26888825293465418
aF0.089642870372030461
aF0.11144991870923138
aF0.32319213845314998
aF0.32718256190292655
aF0.29857944759911093
aF0.21326990721661798
aF0.23972343895132156
aF0.29351100820834952
aF0.28385119697543815
aF0.23307369149354967
aF0.28785611318500715
aF0.31834837063942861
aF0.3008315444182843
aF0.36400493058719346
aF0.29303024231830554
aF0.22414821274026669
aF0.2853255967410519
aF0.23020608455099037
aF0.2763960548017938
aF0.27885787712623028
aF0.35670369509234739
aF0.2208556834252067
aF0.28714129063059463
aF0.25206354555923832
aF0.30066731443092198
aF0.21738158844708508
aF0.41129404672589187
aF0.31146667935440325
aF0.24377415323014812
aF0.33963774068570418
aF0.062492733927093334
aF0.065077688762687921
aF0.27948160224775337
aF0.27000375680281552
aF0.22993706107279036
aF0.26341207598632449
aF0.33625329758725298
aF0.30593280350787028
aF0.31698660478309892
aF0.27789048894558205
aF0.41973626906553257
aF0.27542657065784609
aF0.29533448561306547
aF0.30551223025547419
aF0.26784280308860758
aF0.38227661773897897
aF0.39445577600271736
aF0.25450597121575685
aF0.39479149377539524
aF0.32503676782960622
aF0.19248226317564354
aF0.30657375792192093
aF0.37539833866685401
aF0.14196362467999413
aF0.4720892226563656
aF0.20789142046019135
aF0.25303233418525167
aF0.35911349784408331
aF0.51490274548073467
aF0.1558882951082923
aF0.24344767703710951
aF0.44266977991177431
aF0.25343114488119595
aF0.30672199029199776
aF0.30068819708509775
aF0.29053270069673909
aF0.2964413925255463
aF0.32789270039888768
aF0.25598206729065759
aF0.33406900657941291
aF0.29215659218322199
aF0.15993848268788396
aF0.18877731704311856
aF0.40840653809338201
aF0.37624596640845176
aF0.32275016092828956
aF0.24686733885745638
aF0.27607738646156327
aF0.33844783127559319
aF0.19074964739103292
aF0.31009607510033982
aF0.25359849735217976
aF0.32387750843776675
aF0.31711211206086437
aF0.33979240860991849
aF0.27426725952269843
aF0.20120932402992209
aF0.30226898921330886
aF0.29037763968882213
aF0.3409468895368114
aF0.300398774068518
aF0.21810629246505905
aF0.26102230308222091
aF0.2700648934278268
aF0.34341263578367487
aF0.16298545770073583
aF0.22057178428566671
aF0.37899354542183539
aF0.21655888279658353
aF0.2760737660810556
aF0.15996268117947474
aF0.3575760848384697
aF0.26837083823136298
aF0.2261751865182581
aF0.33841951016450755
aF0.22336230027858212
aF0.27635602638121848
aF0.31446691347271205
aF0.27154209628310749
aF0.32379640914967478
aF0.13821703131859345
aF0.33466605851233217
aF0.19345761139812903
aF0.15758006285300385
aF0.16059390613565341
aF0.25868198188725017
aF0.25195525311396905
aF0.24523285813528553
aF0.32836642097352092
aF0.21462517841216744
aF0.22096908409727797
aF0.18522548209019776
aF0.29856614346715826
aF0.38303376422376595
aF0.16758636835639507
aF0.21302294541860595
aF0.11945700686050344
aF0.31633465222294088
aF0.13947083895564993
aF0.3030905947214097
aF0.15682047706414645
aF0.31326603782165724
aF0.20343512768327601
aF0.24306781228822288
aF0.2241223623194977
aF0.25403557792601067
aF0.26704218363154808
aF0.35400233275486154
aF0.45115895330604716
aF0.21430889130531353
aF0.22519468659985226
aF0.17929780222277955
aF0.10726882785092691
aF0.3140089918275612
aF0.33164936586933697
aF0.32417511089639711
aF0.16348152009837988
aF0.29628965656146589
aF0.25713307418802062
aF0.39042267565877103
aF0.34006252650212648
aF0.26106452314100448
aF0.19227275872019761
aF0.19565300097969077
aF0.10184037473108402
aF0.30561933530416269
aF0.31853574689158953
aF0.10577976567248222
aF0.23221075443100464
aF0.29611810420686024
aF0.29878520681634479
aF0.44583718941387129
aF0.21491448681934203
aF0.28063773124369934
aF0.40533004534413519
aF0.34064081018943021
aF0.32818191154454279
aF0.34675916629617132
aF0.28198330613093187
aF0.30975501416290657
aF0.31923503973031198
aF0.27654369097048476
aF0.33400172856693905
aF0.20190157436984377
aF0.21466144725280217
aF0.31490150930364302
aF0.22579142698450372
aF0.2754742453544734
aF0.15855870975420419
aF0.25406365819686999
aF0.36229069239163031
aF0.33817469213541262
aF0.27283761846634452
aF0.30284997680643211
aF0.22748001347517019
aF0.22155703053187017
aF0.35868227452538604
aF0.2396256140880221
aF0.088605671461932475
aF0.21384820778174851
aF0.26279747492562677
aF0.29621006598752253
aF0.25011378721757843
aF0.12036731843668623
aF0.23642734965809653
aF0.20999795904736004
aF0.27122292629511913
aF0.10293802123344066
aF0.090925837966903192
aF0.24703011437987391
aF0.14986344567886983
aF0.10559039546632611
aF0.16672263116305686
aF0.29595217744990493
aF0.23981287287524933
aF0.17786839604652496
aF0.11415213003903138
aF0.24920549281123081
aF0.09645598349577407
aF0.3465982942228315
aF0.34194914077630711
aF0.18715572610034117
aF0.09949820288471653
aF0.21428601743994696
aF0.32664660547222679
aF0.65241594675490211
aF0.21689396970869931
aF0.2225213760690728
aF0.34250724625267909
aF0.25324661618566563
aF0.35635121313388401
aF0.2882118381401641
aF0.23724774394503345
aF0.38208657924432932
aF0.21949481885595956
aF0.2050303972484398
aF0.32933355027619859
aF0.31232084121783305
aF0.46265060423403626
aF0.25294800943169687
aF0.38354564796986595
aF0.31603139855198481
aF0.20376492253289652
aF0.31245440760846466
aF0.29167479144876696
aF0.27756986567346614
aF0.30729644416955437
aF0.28024321142367731
aF0.29329844694278884
aF0.3209803864287486
aF0.20519888902954495
aF0.24241154268185106
aF0.25168526795136242
aF0.32476306556138229
aF0.34162317953114457
aF0.35652174154136085
aF0.2124075692711257
aF0.23483889324431564
aF0.60820881792168602
aF0.1957771750135546
aF0.67452439421991661
aF0.20543459313793658
aF0.23806968374060841
aF0.23854944082490584
aF0.35101582284109556
aF0.17445949971552413
aF0.28997087114566628
aF0.29777346235615265
aF0.27937173936536908
aF0.15584741638660479
aF0.43841973796329847
aF0.40292319860266462
aF0.52574186412474244
aF0.11222988385182235
aF0.31138628613677805
aF0.28351210741925686
aF0.38257435209146562
aF0.22367889653653905
aF0.3427657959282025
aF0.30495307685772294
aF0.11462049981372976
aF0.38657339703323718
aF0.099318597826228663
aF0.33544413602966211
aF0.15239620904722251
aF0.28877841070217164
aF0.37648127966122918
aF0.33201894172686175
aF0.24164035459136168
aF0.23968715757848014
aF0.37618097544499191
aF0.23302673851120442
aF0.2515746491670901
aF0.23224372471216995
aF0.28202940308702279
aF0.22216553334474964
aF0.29010986763662411
aF0.3563498567258318
aF0.087224783007150627
aF0.24351976927568234
aF0.18702468121808566
aF0.34932323950217953
aF0.39283891986544189
aF0.21807538676262336
aF0.32117037562824235
aF0.25462557011513021
aF0.29824006843411421
aF0.31818162929978255
aF0.2609508200477646
aF0.21165308901854368
aF0.38870090331143786
aF0.21414968648180233
aF0.36767974267854658
aF0.30302345093698657
aF0.32636429803876371
aF0.31902912244036619
aF0.085545220430827865
aF0.19724892422309431
aF0.23700203415864893
aF0.32749796066249476
aF0.19893065545165403
aF0.34791405168272449
aF0.34258202645995178
aF0.26483167534877822
aF0.28235996323540541
aF0.34103166253090983
aF0.34405245158087144
aF0.33809328229735491
aF0.072452437575981632
aF0.16390321404638517
aF0.26395564633381563
aF0.27233607143949473
aF0.40219808343639452
aF0.20118784267549514
aF0.27348094518359922
aF0.24078871787474257
aF0.22675674930289555
aF0.32609548568790908
aF0.19511342569904244
aF0.25196072861035351
aF0.32505661969459343
aF0.16180640081171854
aF0.28769071975268223
aF0.25156023832591612
aF0.19038889025756353
aF0.24488437511692379
aF0.31925631327911563
aF0.27317673625319838
aF0.31374495053307216
aF0.15320330101952406
aF0.33540207167210007
aF0.26471891122283903
aF0.16111002584208059
aF0.33739033788279377
aF0.27136090891251902
aF0.21382708961997832
aF0.14007585806821621
aF0.11032604139971151
aF0.22701366465404352
aF0.24797540452810168
aF0.24993119473256034
aF0.24926326444104699
aF0.30426433636427602
aF0.25551088083640255
aF0.42922134335860529
aF0.10244298267745189
aF0.30840307021675711
aF0.2190120483751338
aF0.28935012960997769
aF0.28693507196504198
aF0.27437623880020828
aF0.12869822585298815
aF0.14099149690564336
aF0.28838332761370272
aF0.16528172532353519
aF0.068631333934989935
aF0.30576616398227052
aF0.22111095526031635
aF0.3352418268796295
aF0.24309181953500822
aF0.17682874411251717
aF0.29927040584999681
aF0.16530331906915624
aF0.13114608328947933
aF0.32013936554251649
aF0.32992148666278714
aF0.15592709403855895
aF0.065810808920007194
aF0.22837691258685405
aF0.24638555245390181
aF0.13167591227603664
aF0.47468968531960354
aF0.32428774591373866
aF0.36164720596632505
aF0.18544580365533012
aF0.32997233752986532
aF0.30293896542766408
aF0.26246524870948329
aF0.32272855468118378
aF0.11687876520497915
aF0.15864940246739828
aF0.10366191564826392
aF0.21533387995951989
aF0.23045150376126058
aF0.12198988514196472
aF0.22930107272672165
aF0.17352158382778957
aF0.15204122442001483
aF0.21823623132858513
aF0.10449285200209571
aF0.11178247652918531
aF0.20902849460705158
aF0.20252021338709453
aF0.19760595985140936
aF0.16615253572346955
aF0.30059825036954479
aF0.34622870673181483
aF0.16535921844566992
aF0.24861399125518072
aF0.18250304101638612
aF0.14124816622551628
aF0.19088621936836753
aF0.34803997692382938
aF0.29375548955427744
aF0.22280233746857517
aF0.31883785637066436
aF0.065071400919522487
aF0.3348295917946647
aF0.1591976906251529
aF0.22364415887325009
aF0.27567191919359607
aF0.24069638278815048
aF0.22682554053164702
aF0.32434823822031261
aF0.30564308266241791
aF0.25053803947682873
aF0.15486254396460514
aF0.30737022696512245
aF0.28488449159464124
aF0.23027654726472685
aF0.31967387197863117
aF0.1865559341914716
aF0.055580188155772328
aF0.27722426621450447
aF0.29316499792206291
aF0.16977401353864913
aF0.31389965528487379
aF0.17376977723154799
aF0.33196898736412084
aF0.2971570369664977
aF0.28147859267347447
aF0.18245965624418833
aF0.13477717317827351
aF0.31339788696963
aF0.24294864509052941
aF0.36622665462422932
aF0.39429979479158023
aF0.22703908459975561
aF0.31792895880892996
aF0.34487960931501244
aF0.29016795975996729
aF0.25798390473834026
aF0.39427076620816748
aF0.079880253497707998
aF0.30444425013262799
aF0.37382647172633909
aF0.16086306396587655
aF0.12408249102824251
aF0.25284030540679298
aF0.34615128309625437
aF0.34912680296067167
aF0.2244476438751222
aF0.31690208687499988
aF0.25391119740717721
aF0.07390609763001367
aF0.30936340582824651
aF0.33514222673416344
aF0.29651054503379493
aF0.31037141140895674
aF0.40020551713849961
aF0.28370206626724032
aF0.27763843903936286
aF0.23444434085137139
aF0.30591189645749989
aF0.32208244219495868
aF0.27110395384789121
aF0.20445674002128117
aF0.10808344569835444
aF0.2042923900312856
aF0.23745203197192108
aF0.11373563343748129
aF0.26930711613955832
aF0.25670508844968243
aF0.53229726385786613
aF0.34219647366905476
aF0.23544328281961266
aF0.17385200429780248
aF0.5204492392552108
aF0.22267638960798425
aF0.36130617914387542
aF0.14893031592269493
aF0.19564844902325176
aF0.23900466658764744
aF0.39917084276528331
aF0.31812971377850385
aF0.32755101723172275
aF0.27408985852746054
aF0.36704462984448188
aF0.27074480995017763
aF0.27032388598289131
aF0.23747188545879278
aF0.2559215702558712
aF0.29499145443371666
aF0.20592243134436061
aF0.22190185499880513
aF0.1928451672185604
aF0.32419264990845093
aF0.12250571888321943
aF0.22743147019152488
aF0.22911507090572836
aF0.29214443279308561
aF0.29557195351964183
aF0.34899186245209718
aF0.10175185407991481
aF0.16539891792007819
aF0.37399153370239546
aF0.28975227496813416
aF0.32389795436783808
aF0.3894375778934801
aF0.26708550191761626
aF0.46814313243316108
aF0.330702469200085
aF0.35619779515750105
aF0.19976421560312638
aF0.34834908271762677
aF0.45751470568748054
aF0.19240731478038633
aF0.28591287289645573
aF0.1613870013882005
aF0.18617812854072943
aF0.2959603444281515
aF0.17754046716203331
aF0.32407128782701999
aF0.10966335383566858
aF0.32425421335168131
aF0.35676084642728262
aF0.28606164111703758
aF0.17537529920242506
aF0.33931615353289019
aF0.28966284608445775
aF0.19700135133492447
aF0.14549327313001956
aF0.24995191387961149
aF0.15404361884988119
aF0.22747370471231784
aF0.39192504947408902
aF0.22442062955066452
aF0.4617741675938839
aF0.26934943839139397
aF0.33559416533393066
aF0.1357062720235529
aF0.14775952553293786
aF0.20871348370063955
aF0.27909257968549689
aF0.25208491743773331
aF0.33122205023253759
aF0.1801236542690185
aF0.25320485840209944
aF0.23705217374139956
aF0.31856205094434797
aF0.16413159787496912
aF0.26890700203237416
aF0.23606928783168238
aF0.33958753741567105
aF0.41419193689142114
aF0.21129985206182408
aF0.31108543912462761
aF0.1605957263314958
aF0.29830798812730797
aF0.37634717078387309
aF0.22658360064258085
aF0.32943150831900747
aF0.26680404004844921
aF0.19977635346553252
aF0.42369547684324488
aF0.14475305466263516
aF0.20068688143563129
aF0.12627310910418471
aF0.23402351993366166
aF0.17283543472947707
aF0.34747327624373064
aF0.14163354356972541
aF0.30813628639704704
aF0.092767981329840057
aF0.29310760197966568
aF0.096397343047086803
aF0.28954510996390836
aF0.29870446468215339
as.