(dp1
S'perplexity'
p2
(lp3
F117.11
aF79.950000000000003
aF119.48
aF85.659999999999997
aF173.03
aF132.34999999999999
aF229.47999999999999
aF132.27000000000001
aF115.87
aF124.90000000000001
aF113.98999999999999
aF133.47999999999999
aF93.010000000000005
aF136.44
aF144.87
aF152.38999999999999
aF175.83000000000001
aF120.44
aF100
aF151.21000000000001
aF114.62
aF138.88
aF160.24000000000001
aF153.53
aF99.760000000000005
aF207.28999999999999
aF182.47
aF152.96000000000001
aF115.77
aF173
aF119.67
aF127
aF125.03
aF163.25
aF126.75
aF124.88
aF113.40000000000001
aF92.400000000000006
aF137.91999999999999
aF99.920000000000002
aF54.630000000000003
aF111.12
aF132.65000000000001
aF100.42
aF128.34
aF147.25999999999999
aF164.56999999999999
aF121.76000000000001
aF218.19999999999999
aF118.5
aF116.7
aF149.78
aF126.41
aF125.41
aF118.79000000000001
aF81.980000000000004
aF111.84999999999999
aF86.459999999999994
aF115.84
aF110.54000000000001
aF108.66
aF151.31
aF147.19
aF145.19
aF106.73999999999999
aF109.13
aF92.290000000000006
aF176.09999999999999
aF134
aF241.44
aF113.98999999999999
aF120.78
aF127.75
aF111.92
aF155.88
aF105.53
aF102.90000000000001
aF129.08000000000001
aF123.03
aF150.93000000000001
aF164.53
aF126.20999999999999
aF113.84999999999999
aF107.02
aF135.84999999999999
aF120.08
aF115.62
aF195.72999999999999
aF80.489999999999995
aF133.75999999999999
aF124.54000000000001
aF118.91
aF119.8
aF135.88
aF109.16
aF125.72
aF114.09
aF82.040000000000006
aF111.83
aF164.63999999999999
aF131.49000000000001
aF128.84999999999999
aF153.78999999999999
aF159.62
aF86.069999999999993
aF129.27000000000001
aF218.59999999999999
aF123.58
aF98.090000000000003
aF115.20999999999999
aF138.34999999999999
aF121.55
aF178.30000000000001
aF83.519999999999996
aF131.06
aF113.52
aF81.170000000000002
aF140.06999999999999
aF99.680000000000007
aF137.06999999999999
aF109.66
aF119.59
aF76.409999999999997
aF131.49000000000001
aF92.409999999999997
aF124.09999999999999
aF85.609999999999999
aF132.93000000000001
aF171.52000000000001
aF117.59
aF107.68000000000001
aF128.87
aF115.83
aF79.370000000000005
aF119.34
aF160.56
aF104.89
aF93.209999999999994
aF109.44
aF111.02
aF169.66
aF159.52000000000001
aF139.21000000000001
aF125.23
aF189.94
aF134.50999999999999
aF101.37
aF161.03999999999999
aF143.65000000000001
aF141.78999999999999
aF111.02
aF108.31
aF118.51000000000001
aF105.15000000000001
aF108.18000000000001
aF134.90000000000001
aF48.890000000000001
aF203.34
aF145.44
aF58.770000000000003
aF143.18000000000001
aF174.05000000000001
aF126.83
aF117.55
aF106.23
aF193.11000000000001
aF122.81999999999999
aF122.55
aF111.38
aF123.61
aF179.41999999999999
aF161.91
aF127.56999999999999
aF154.93000000000001
aF126.84
aF119.55
aF157.69999999999999
aF143.93000000000001
aF96.75
aF109.78
aF115.19
aF89.959999999999994
aF93.239999999999995
aF123.73999999999999
aF128.72
aF116.76000000000001
aF96.530000000000001
aF123.84
aF134.50999999999999
aF147.22999999999999
aF137.16999999999999
aF121.51000000000001
aF139.53999999999999
aF102.63
aF116.61
aF114.22
aF101.68000000000001
aF110.73999999999999
aF119.52
aF91.170000000000002
aF142.94999999999999
aF170.94999999999999
aF115
aF86.790000000000006
aF92.280000000000001
aF121.83
aF158.50999999999999
aF137.34999999999999
aF111.81999999999999
aF41.340000000000003
aF118.31999999999999
aF122.98
aF108.22
aF128.31999999999999
aF193.97
aF274.44999999999999
aF165.22
aF114.08
aF96.840000000000003
aF116.39
aF69.329999999999998
aF106.56
aF137.78
aF110.13
aF112.47
aF156.05000000000001
aF123.25
aF133.93000000000001
aF165.97999999999999
aF121.95999999999999
aF79.730000000000004
aF88.879999999999995
aF135.41999999999999
aF100.95999999999999
aF120.01000000000001
aF127.25
aF139.06999999999999
aF132.81
aF161.31
aF147.72999999999999
aF119.04000000000001
aF278.05000000000001
aF104.3
aF122.91
aF126.92
aF84.730000000000004
aF174.59999999999999
aF97.540000000000006
aF128.25999999999999
aF81.379999999999995
aF88.519999999999996
aF114.69
aF112.63
aF128.66999999999999
aF264.08999999999997
aF102.65000000000001
aF137.99000000000001
aF75.609999999999999
aF129.97
aF152.30000000000001
aF123.45
aF90.780000000000001
aF111.75
aF129.19999999999999
aF93.829999999999998
aF108.52
aF133.06
aF124.29000000000001
aF123.51000000000001
aF180.88999999999999
aF175.77000000000001
aF83.849999999999994
aF77.489999999999995
aF98.030000000000001
aF120.34
aF142.21000000000001
aF117.83
aF132.80000000000001
aF109.61
aF103.88
aF117.05
aF144.34999999999999
aF90.840000000000003
aF112.92
aF77.819999999999993
aF84.170000000000002
aF153.09999999999999
aF100.77
aF105.97
aF77.079999999999998
aF97.069999999999993
aF164.09
aF85.450000000000003
aF151.56999999999999
aF157.06999999999999
aF176.05000000000001
aF113.93000000000001
aF96.569999999999993
aF124.08
aF143.43000000000001
aF77.480000000000004
aF139.08000000000001
aF100.65000000000001
aF178.58000000000001
aF237.71000000000001
aF143.56999999999999
aF110.06999999999999
aF125.23
aF113.34
aF135.18000000000001
aF166.77000000000001
aF100.56
aF138.55000000000001
aF147.72999999999999
aF77.109999999999999
aF162.37
aF131.86000000000001
aF131.18000000000001
aF118.81
aF198.24000000000001
aF159.25999999999999
aF133.74000000000001
aF100.37
aF163.00999999999999
aF106.48999999999999
aF193.19
aF117.34999999999999
aF110.93000000000001
aF110.87
aF91.060000000000002
aF81.680000000000007
aF116.11
aF105.12
aF132.56999999999999
aF139.34999999999999
aF89.780000000000001
aF118.19
aF93.25
aF129.47999999999999
aF147.50999999999999
aF126.84
aF117.48
aF78.219999999999999
aF99.609999999999999
aF108.70999999999999
aF123.59999999999999
aF117.81999999999999
aF141.55000000000001
aF121.48
aF102.34
aF171.63
aF113.91
aF129.84999999999999
aF116.43000000000001
aF122.62
aF161.41
aF185.75
aF77.969999999999999
aF181.69999999999999
aF112.68000000000001
aF113.48
aF119.91
aF103.65000000000001
aF121.61
aF105.48
aF103.23999999999999
aF183.06999999999999
aF74.280000000000001
aF263.35000000000002
aF112.41
aF111
aF117.81999999999999
aF105.51000000000001
aF111.41
aF115.95999999999999
aF75.769999999999996
aF116.94
aF141.33000000000001
aF218.69
aF105.22
aF143.90000000000001
aF109.97
aF120.97
aF113.84
aF134.53
aF97.879999999999995
aF108.73999999999999
aF113.88
aF111.98999999999999
aF136.25
aF104.61
aF103.03
aF108.68000000000001
aF117.23
aF165.19999999999999
aF99.859999999999999
aF64.530000000000001
aF121.7
aF127.61
aF121
aF151.22999999999999
aF150.12
aF92.400000000000006
aF108.61
aF99.780000000000001
aF173.15000000000001
aF120.68000000000001
aF130.81999999999999
aF128.97
aF122.48
aF129.06999999999999
aF99.409999999999997
aF65.900000000000006
aF112.37
aF114.05
aF188.34999999999999
aF164.94999999999999
aF91.730000000000004
aF114.33
aF121.40000000000001
aF124.87
aF101.34
aF85.239999999999995
aF169.84999999999999
aF110.75
aF115.76000000000001
aF99.180000000000007
aF81.340000000000003
aF168.65000000000001
aF109.48999999999999
aF143.50999999999999
aF92.859999999999999
aF177
aF106.26000000000001
aF82.530000000000001
aF109.87
aF128.52000000000001
aF119.84
aF147.56
aF173.11000000000001
aF97.900000000000006
aF169.33000000000001
aF75.849999999999994
aF126.92
aF104.25
aF93.5
aF121.27
aF113.19
aF77.019999999999996
aF99.599999999999994
aF107.31
aF99.870000000000005
aF111.13
aF123.83
aF130.31
aF91.150000000000006
aF156.74000000000001
aF131.27000000000001
aF114.03
aF113.5
aF147.83000000000001
aF117.59999999999999
aF147.74000000000001
aF161.66
aF155.72999999999999
aF71.019999999999996
aF106.14
aF100.64
aF132.84
aF135.94
aF215.21000000000001
aF122.12
aF176.13999999999999
aF95.25
aF102.83
aF127.23999999999999
aF146.03999999999999
aF113.55
aF147.43000000000001
aF113.23999999999999
aF107.44
aF139.49000000000001
aF106.52
aF76.400000000000006
aF134.66
aF242.28
aF150.81999999999999
aF119.22
aF107.95
aF84.060000000000002
aF119.65000000000001
aF122.03
aF137.93000000000001
aF207.16999999999999
aF160.06999999999999
aF119.5
aF198.31999999999999
aF124.76000000000001
aF134.63
aF111.83
aF103.45
aF137.86000000000001
aF143.61000000000001
aF116.62
aF120.54000000000001
aF149.08000000000001
aF166.58000000000001
aF79.760000000000005
aF68.530000000000001
aF121.81
aF89.760000000000005
aF151.96000000000001
aF117.68000000000001
aF171.52000000000001
aF84.069999999999993
aF172.15000000000001
aF97.980000000000004
aF135.33000000000001
aF118.86
aF99.640000000000001
aF105.31999999999999
aF162.62
aF103.54000000000001
aF119.70999999999999
aF138.41
aF121.02
aF111.3
aF122.78
aF126.48999999999999
aF152.38
aF109.19
aF138.25999999999999
aF124.65000000000001
aF82.530000000000001
aF87.709999999999994
aF202.11000000000001
aF97.189999999999998
aF103.53
aF127.23
aF139.41
aF88.010000000000005
aF150.43000000000001
aF84.719999999999999
aF179.53
aF154.59
aF102.91
aF137.5
aF176.5
aF117.64
aF166.93000000000001
aF113.48999999999999
aF85.700000000000003
aF132.50999999999999
aF84.310000000000002
aF95.200000000000003
aF125.33
aF199.22999999999999
aF83.150000000000006
aF103.03
aF207.90000000000001
aF74.75
aF187.31
aF98.390000000000001
aF87.5
aF108.75
aF130.69999999999999
aF92.969999999999999
aF155.27000000000001
aF79.239999999999995
aF116.09
aF118.34999999999999
aF110.09
aF141.71000000000001
aF160.13999999999999
aF125.23999999999999
aF132.86000000000001
aF136.21000000000001
aF116.63
aF118.14
aF141.06
aF121.09
aF125.88
aF185.06
aF112.15000000000001
aF123.86
aF87.650000000000006
aF76.200000000000003
aF141.05000000000001
aF117.29000000000001
aF101.22
aF63.020000000000003
aF105.42
aF132.47
aF101.97
aF123.20999999999999
aF111.63
aF128.84999999999999
aF123.40000000000001
aF134.49000000000001
aF130.99000000000001
aF62.100000000000001
aF127.65000000000001
aF117.56999999999999
aF128.13
aF81.430000000000007
aF106.36
aF115.18000000000001
aF105.55
aF122.06999999999999
aF98.340000000000003
aF119.34999999999999
aF117.01000000000001
aF72.640000000000001
aF98.640000000000001
aF75.969999999999999
aF102.43000000000001
aF95.650000000000006
aF86.150000000000006
aF122.16
aF118.93000000000001
aF120.22
aF75.840000000000003
aF145.81
aF118.68000000000001
aF129.91999999999999
aF117.73
aF117.34999999999999
aF204.63
aF110.01000000000001
aF134.68000000000001
aF124.87
aF120.39
aF147.31999999999999
aF117.7
aF57.009999999999998
aF149.06
aF186.27000000000001
aF104.08
aF182.22
aF137.03
aF86.790000000000006
aF148.88999999999999
aF91.280000000000001
aF122.56
aF118.27
aF93.459999999999994
aF128.03
aF153.99000000000001
aF98.420000000000002
aF123.43000000000001
aF140.31
aF126.87
aF75.040000000000006
aF114.73
aF125.19
aF121.89
aF170.41
aF115.23999999999999
aF116.19
aF110.64
aF119.37
aF112.29000000000001
aF184.34999999999999
aF168.69999999999999
aF94.030000000000001
aF110.16
aF139.36000000000001
aF91.810000000000002
aF89.879999999999995
aF120.81999999999999
aF68.989999999999995
aF122.45999999999999
aF151.34
aF112.81
aF93.170000000000002
aF120.45999999999999
aF129.19999999999999
aF139.91999999999999
aF144.12
aF123.11
aF110.89
aF99
aF120.67
aF139.96000000000001
aF88.069999999999993
aF143.94999999999999
aF132.28999999999999
aF101.41
aF118.67
aF157.19999999999999
aF116.47
aF127.45999999999999
aF257.06
aF113.16
aF78.299999999999997
aF113.36
aF107.27
aF116.67
aF145.09999999999999
aF132.78
aF112.20999999999999
aF131.13999999999999
aF186.33000000000001
aF172.41999999999999
aF125.40000000000001
aF128.91
aF146.91
aF208.63
aF124.64
aF158.55000000000001
aF113.89
aF98.659999999999997
aF129.28999999999999
aF93.700000000000003
aF145.44999999999999
aF119.31999999999999
aF118.83
aF108.65000000000001
aF135.59
aF105.52
aF113.04000000000001
aF170.00999999999999
aF90.469999999999999
aF126.55
aF191.86000000000001
aF133.13
aF113.95
aF166.06999999999999
aF117.59
aF156.24000000000001
aF93.379999999999995
aF71.180000000000007
aF120.09
aF97.640000000000001
aF196.71000000000001
aF108.87
aF146.38
aF81.650000000000006
aF135.81999999999999
aF120.95999999999999
aF85.150000000000006
aF147.99000000000001
aF194.13
aF148.03
aF116.43000000000001
aF91.230000000000004
aF110.12
aF55.350000000000001
aF151.88999999999999
aF104.20999999999999
aF117.91
aF100.81
aF111.44
aF86.739999999999995
aF108
aF124.69
aF150.59
aF112.45
aF133.33000000000001
aF76.840000000000003
aF146.71000000000001
aF87.870000000000005
aF126.52
aF93.640000000000001
aF108.45999999999999
aF174.53
aF154.21000000000001
aF108.97
aF94.019999999999996
aF58.049999999999997
aF133.44
aF126.09
aF102.33
aF125.25
aF84
aF80.239999999999995
aF90.349999999999994
aF95.219999999999999
aF117.89
aF101.62
aF88.719999999999999
aF90.170000000000002
aF117
aF118.27
aF106.95
aF108.56999999999999
aF60.049999999999997
aF200.25999999999999
aF65.810000000000002
aF119.73
aF144.18000000000001
aF114.73999999999999
aF122.29000000000001
aF121.56999999999999
aF176.94999999999999
aF161.22
aF139.58000000000001
aF83.430000000000007
aF105.04000000000001
aF136.43000000000001
aF112.06
aF88.200000000000003
aF163.80000000000001
aF95.480000000000004
aF179.53999999999999
aF124.87
aF127.26000000000001
aF81.909999999999997
aF138.53999999999999
aF115.84999999999999
aF105.94
aF124.34999999999999
aF82.159999999999997
aF161.97999999999999
aF69.870000000000005
aF119.69
aF72.25
aF111.90000000000001
aF155.43000000000001
aF120.7
aF143.56
aF66.620000000000005
aF128.12
aF134.09999999999999
aF135.81999999999999
aF129.72999999999999
aF99.790000000000006
aF203.37
aF121.18000000000001
aF161.44999999999999
aF144.78999999999999
aF127.27
aF93.129999999999995
aF112.13
aF113.65000000000001
aF135.19
aF86.659999999999997
aF161.16999999999999
aF128.5
aF110.26000000000001
aF119
aF111.69
aF107.66
aF106.53
aF116.59
aF119.39
aF106.66
aF110.81
aF66.290000000000006
aF108.06999999999999
aF119.95999999999999
aF136.05000000000001
aF143.11000000000001
aF117.97
aF118.48
aF88.200000000000003
aF106.78
aF129.66999999999999
aF77.030000000000001
aF173.16999999999999
aF120.33
aF118.31999999999999
aF94.560000000000002
aF108.47
aF288.04000000000002
aF67.349999999999994
aF155.68000000000001
aF135.93000000000001
aF108.61
aF117.04000000000001
aF133.94999999999999
aF136.84999999999999
aF148.5
aF136.78
aF120.95999999999999
aF135.15000000000001
aF127.42
aF115.42
aF101.81999999999999
aF137.53
aF141.21000000000001
aF197.05000000000001
aF111.73999999999999
aF105.61
aF86.409999999999997
aF106.19
aF115.18000000000001
aF100.76000000000001
aF133.62
aF132.97
aF84.519999999999996
aF123.27
aF87.409999999999997
aF137.65000000000001
aF132.68000000000001
aF137.97
aF105.09
aF83.909999999999997
aF118.34
aF122.84
aF152.72999999999999
aF145.53999999999999
aF93.180000000000007
aF107.97
aF61.359999999999999
aF179.59
aF76.909999999999997
aF125.34
aF94.120000000000005
aF175.84
aF122.75
aF99.950000000000003
aF83.829999999999998
aF108.51000000000001
aF123.93000000000001
aF135.94
aF132.99000000000001
aF87.620000000000005
aF148.00999999999999
aF121.81
aF112.02
aF124.72
aF96.329999999999998
aF102.63
aF78.409999999999997
aF76.829999999999998
aF65.900000000000006
aF165.38999999999999
aF98.319999999999993
aF168.24000000000001
aF177.16999999999999
aF121.08
aF132.80000000000001
aF97.709999999999994
aF123.16
aF113.34
aF119.65000000000001
aF185.13999999999999
aF123.15000000000001
aF87.739999999999995
aF126.78
aF103.72
aF113.94
aF81.959999999999994
aF109.73999999999999
aF83.810000000000002
aF137.49000000000001
aF126.66
aF120.65000000000001
aF129.75
aF200.58000000000001
aF139.77000000000001
aF130.22
aF102.64
aF93.540000000000006
aF68.519999999999996
aF179.18000000000001
aF160.09
aF114.09999999999999
aF132.50999999999999
aF113.5
aF135.43000000000001
aF87.390000000000001
aF101.26000000000001
aF99.209999999999994
aF125.26000000000001
aF140.34999999999999
aF99.930000000000007
aF64.790000000000006
aF132.88999999999999
aF105.47
aF119.75
aF129.38999999999999
aF97.099999999999994
aF142.91
aF101.52
aF319.56999999999999
aF74.780000000000001
aF118.98
aF82.980000000000004
aF134.80000000000001
aF150.71000000000001
aF90.879999999999995
aF146.33000000000001
aF59.350000000000001
aF129.94999999999999
aF130.86000000000001
aF73.370000000000005
aF131.91999999999999
aF66.489999999999995
aF60.219999999999999
aF106.34999999999999
aF175.15000000000001
aF120.13
aF117.62
aF135.15000000000001
aF133.46000000000001
aF124.27
aF114.84
aF98.560000000000002
asS'Entropy'
p4
(lp5
F6.8700000000000001
aF6.3200000000000003
aF6.9000000000000004
aF6.4199999999999999
aF7.4299999999999997
aF7.0499999999999998
aF7.8399999999999999
aF7.0499999999999998
aF6.8600000000000003
aF6.96
aF6.8300000000000001
aF7.0599999999999996
aF6.54
aF7.0899999999999999
aF7.1799999999999997
aF7.25
aF7.46
aF6.9100000000000001
aF6.6399999999999997
aF7.2400000000000002
aF6.8399999999999999
aF7.1200000000000001
aF7.3200000000000003
aF7.2599999999999998
aF6.6399999999999997
aF7.7000000000000002
aF7.5099999999999998
aF7.2599999999999998
aF6.8600000000000003
aF7.4299999999999997
aF6.9000000000000004
aF6.9900000000000002
aF6.9699999999999998
aF7.3499999999999996
aF6.9900000000000002
aF6.96
aF6.8300000000000001
aF6.5300000000000002
aF7.1100000000000003
aF6.6399999999999997
aF5.7699999999999996
aF6.7999999999999998
aF7.0499999999999998
aF6.6500000000000004
aF7
aF7.2000000000000002
aF7.3600000000000003
aF6.9299999999999997
aF7.7699999999999996
aF6.8899999999999997
aF6.8700000000000001
aF7.2300000000000004
aF6.9800000000000004
aF6.9699999999999998
aF6.8899999999999997
aF6.3600000000000003
aF6.8099999999999996
aF6.4299999999999997
aF6.8600000000000003
aF6.79
aF6.7599999999999998
aF7.2400000000000002
aF7.2000000000000002
aF7.1799999999999997
aF6.7400000000000002
aF6.7699999999999996
aF6.5300000000000002
aF7.46
aF7.0700000000000003
aF7.9199999999999999
aF6.8300000000000001
aF6.9199999999999999
aF7
aF6.8099999999999996
aF7.2800000000000002
aF6.7199999999999998
aF6.6900000000000004
aF7.0099999999999998
aF6.9400000000000004
aF7.2400000000000002
aF7.3600000000000003
aF6.9800000000000004
aF6.8300000000000001
aF6.7400000000000002
aF7.0899999999999999
aF6.9100000000000001
aF6.8499999999999996
aF7.6100000000000003
aF6.3300000000000001
aF7.0599999999999996
aF6.96
aF6.8899999999999997
aF6.9000000000000004
aF7.0899999999999999
aF6.7699999999999996
aF6.9699999999999998
aF6.8300000000000001
aF6.3600000000000003
aF6.8099999999999996
aF7.3600000000000003
aF7.04
aF7.0099999999999998
aF7.2599999999999998
aF7.3200000000000003
aF6.4299999999999997
aF7.0099999999999998
aF7.7699999999999996
aF6.9500000000000002
aF6.6200000000000001
aF6.8499999999999996
aF7.1100000000000003
aF6.9299999999999997
aF7.4800000000000004
aF6.3799999999999999
aF7.0300000000000002
aF6.8300000000000001
aF6.3399999999999999
aF7.1299999999999999
aF6.6399999999999997
aF7.0999999999999996
aF6.7800000000000002
aF6.9000000000000004
aF6.2599999999999998
aF7.04
aF6.5300000000000002
aF6.96
aF6.4199999999999999
aF7.0499999999999998
aF7.4199999999999999
aF6.8799999999999999
aF6.75
aF7.0099999999999998
aF6.8600000000000003
aF6.3099999999999996
aF6.9000000000000004
aF7.3300000000000001
aF6.71
aF6.54
aF6.7699999999999996
aF6.79
aF7.4100000000000001
aF7.3200000000000003
aF7.1200000000000001
aF6.9699999999999998
aF7.5700000000000003
aF7.0700000000000003
aF6.6600000000000001
aF7.3300000000000001
aF7.1699999999999999
aF7.1500000000000004
aF6.79
aF6.7599999999999998
aF6.8899999999999997
aF6.7199999999999998
aF6.7599999999999998
aF7.0800000000000001
aF5.6100000000000003
aF7.6699999999999999
aF7.1799999999999997
aF5.8799999999999999
aF7.1600000000000001
aF7.4400000000000004
aF6.9900000000000002
aF6.8799999999999999
aF6.7300000000000004
aF7.5899999999999999
aF6.9400000000000004
aF6.9400000000000004
aF6.7999999999999998
aF6.9500000000000002
aF7.4900000000000002
aF7.3399999999999999
aF7
aF7.2800000000000002
aF6.9900000000000002
aF6.9000000000000004
aF7.2999999999999998
aF7.1699999999999999
aF6.5999999999999996
aF6.7800000000000002
aF6.8499999999999996
aF6.4900000000000002
aF6.54
aF6.9500000000000002
aF7.0099999999999998
aF6.8700000000000001
aF6.5899999999999999
aF6.9500000000000002
aF7.0700000000000003
aF7.2000000000000002
aF7.0999999999999996
aF6.9199999999999999
aF7.1200000000000001
aF6.6799999999999997
aF6.8700000000000001
aF6.8399999999999999
aF6.6699999999999999
aF6.79
aF6.9000000000000004
aF6.5099999999999998
aF7.1600000000000001
aF7.4199999999999999
aF6.8499999999999996
aF6.4400000000000004
aF6.5300000000000002
aF6.9299999999999997
aF7.3099999999999996
aF7.0999999999999996
aF6.8099999999999996
aF5.3700000000000001
aF6.8899999999999997
aF6.9400000000000004
aF6.7599999999999998
aF7
aF7.5999999999999996
aF8.0999999999999996
aF7.3700000000000001
aF6.8300000000000001
aF6.5999999999999996
aF6.8600000000000003
aF6.1200000000000001
aF6.7400000000000002
aF7.1100000000000003
aF6.7800000000000002
aF6.8099999999999996
aF7.29
aF6.9500000000000002
aF7.0700000000000003
aF7.3700000000000001
aF6.9299999999999997
aF6.3200000000000003
aF6.4699999999999998
aF7.0800000000000001
aF6.6600000000000001
aF6.9100000000000001
aF6.9900000000000002
aF7.1200000000000001
aF7.0499999999999998
aF7.3300000000000001
aF7.21
aF6.9000000000000004
aF8.1199999999999992
aF6.7000000000000002
aF6.9400000000000004
aF6.9900000000000002
aF6.4000000000000004
aF7.4500000000000002
aF6.6100000000000003
aF7
aF6.3499999999999996
aF6.4699999999999998
aF6.8399999999999999
aF6.8200000000000003
aF7.0099999999999998
aF8.0399999999999991
aF6.6799999999999997
aF7.1100000000000003
aF6.2400000000000002
aF7.0199999999999996
aF7.25
aF6.9500000000000002
aF6.5
aF6.7999999999999998
aF7.0099999999999998
aF6.5499999999999998
aF6.7599999999999998
aF7.0599999999999996
aF6.96
aF6.9500000000000002
aF7.5
aF7.46
aF6.3899999999999997
aF6.2800000000000002
aF6.6200000000000001
aF6.9100000000000001
aF7.1500000000000004
aF6.8799999999999999
aF7.0499999999999998
aF6.7800000000000002
aF6.7000000000000002
aF6.8700000000000001
aF7.1699999999999999
aF6.5099999999999998
aF6.8200000000000003
aF6.2800000000000002
aF6.4000000000000004
aF7.2599999999999998
aF6.6500000000000004
aF6.7300000000000004
aF6.2699999999999996
aF6.5999999999999996
aF7.3600000000000003
aF6.4199999999999999
aF7.2400000000000002
aF7.2999999999999998
aF7.46
aF6.8300000000000001
aF6.5899999999999999
aF6.96
aF7.1600000000000001
aF6.2800000000000002
aF7.1200000000000001
aF6.6500000000000004
aF7.4800000000000004
aF7.8899999999999997
aF7.1699999999999999
aF6.7800000000000002
aF6.9699999999999998
aF6.8200000000000003
aF7.0800000000000001
aF7.3799999999999999
aF6.6500000000000004
aF7.1100000000000003
aF7.21
aF6.2699999999999996
aF7.3399999999999999
aF7.04
aF7.04
aF6.8899999999999997
aF7.6299999999999999
aF7.3200000000000003
aF7.0599999999999996
aF6.6500000000000004
aF7.3499999999999996
aF6.7300000000000004
aF7.5899999999999999
aF6.8700000000000001
aF6.79
aF6.79
aF6.5099999999999998
aF6.3499999999999996
aF6.8600000000000003
aF6.7199999999999998
aF7.0499999999999998
aF7.1200000000000001
aF6.4900000000000002
aF6.8799999999999999
aF6.54
aF7.0199999999999996
aF7.2000000000000002
aF6.9900000000000002
aF6.8799999999999999
aF6.29
aF6.6399999999999997
aF6.7599999999999998
aF6.9500000000000002
aF6.8799999999999999
aF7.1500000000000004
aF6.9199999999999999
aF6.6799999999999997
aF7.4199999999999999
aF6.8300000000000001
aF7.0199999999999996
aF6.8600000000000003
aF6.9400000000000004
aF7.3300000000000001
aF7.54
aF6.2800000000000002
aF7.5099999999999998
aF6.8200000000000003
aF6.8300000000000001
aF6.9100000000000001
aF6.7000000000000002
aF6.9299999999999997
aF6.7199999999999998
aF6.6900000000000004
aF7.5199999999999996
aF6.21
aF8.0399999999999991
aF6.8099999999999996
aF6.79
aF6.8799999999999999
aF6.7199999999999998
aF6.7999999999999998
aF6.8600000000000003
aF6.2400000000000002
aF6.8700000000000001
aF7.1399999999999997
aF7.7699999999999996
aF6.7199999999999998
aF7.1699999999999999
aF6.7800000000000002
aF6.9199999999999999
aF6.8300000000000001
aF7.0700000000000003
aF6.6100000000000003
aF6.7599999999999998
aF6.8300000000000001
aF6.8099999999999996
aF7.0899999999999999
aF6.71
aF6.6900000000000004
aF6.7599999999999998
aF6.8700000000000001
aF7.3700000000000001
aF6.6399999999999997
aF6.0099999999999998
aF6.9299999999999997
aF7
aF6.9199999999999999
aF7.2400000000000002
aF7.2300000000000004
aF6.5300000000000002
aF6.7599999999999998
aF6.6399999999999997
aF7.4400000000000004
aF6.9199999999999999
aF7.0300000000000002
aF7.0099999999999998
aF6.9400000000000004
aF7.0099999999999998
aF6.6399999999999997
aF6.04
aF6.8099999999999996
aF6.8300000000000001
aF7.5599999999999996
aF7.3700000000000001
aF6.5199999999999996
aF6.8399999999999999
aF6.9199999999999999
aF6.96
aF6.6600000000000001
aF6.4100000000000001
aF7.4100000000000001
aF6.79
aF6.8499999999999996
aF6.6299999999999999
aF6.3499999999999996
aF7.4000000000000004
aF6.7699999999999996
aF7.1699999999999999
aF6.54
aF7.4699999999999998
aF6.7300000000000004
aF6.3700000000000001
aF6.7800000000000002
aF7.0099999999999998
aF6.9000000000000004
aF7.21
aF7.4400000000000004
aF6.6100000000000003
aF7.4000000000000004
aF6.25
aF6.9900000000000002
aF6.7000000000000002
aF6.5499999999999998
aF6.9199999999999999
aF6.8200000000000003
aF6.2699999999999996
aF6.6399999999999997
aF6.75
aF6.6399999999999997
aF6.7999999999999998
aF6.9500000000000002
aF7.0300000000000002
aF6.5099999999999998
aF7.29
aF7.04
aF6.8300000000000001
aF6.8300000000000001
aF7.21
aF6.8799999999999999
aF7.21
aF7.3399999999999999
aF7.2800000000000002
aF6.1500000000000004
aF6.7300000000000004
aF6.6500000000000004
aF7.0499999999999998
aF7.0899999999999999
aF7.75
aF6.9299999999999997
aF7.46
aF6.5700000000000003
aF6.6799999999999997
aF6.9900000000000002
aF7.1900000000000004
aF6.8300000000000001
aF7.2000000000000002
aF6.8200000000000003
aF6.75
aF7.1200000000000001
aF6.7300000000000004
aF6.2599999999999998
aF7.0700000000000003
aF7.9199999999999999
aF7.2400000000000002
aF6.9000000000000004
aF6.75
aF6.3899999999999997
aF6.9000000000000004
aF6.9299999999999997
aF7.1100000000000003
aF7.6900000000000004
aF7.3200000000000003
aF6.9000000000000004
aF7.6299999999999999
aF6.96
aF7.0700000000000003
aF6.8099999999999996
aF6.6900000000000004
aF7.1100000000000003
aF7.1699999999999999
aF6.8700000000000001
aF6.9100000000000001
aF7.2199999999999998
aF7.3799999999999999
aF6.3200000000000003
aF6.0999999999999996
aF6.9299999999999997
aF6.4900000000000002
aF7.25
aF6.8799999999999999
aF7.4199999999999999
aF6.3899999999999997
aF7.4299999999999997
aF6.6100000000000003
aF7.0800000000000001
aF6.8899999999999997
aF6.6399999999999997
aF6.7199999999999998
aF7.3499999999999996
aF6.6900000000000004
aF6.9000000000000004
aF7.1100000000000003
aF6.9199999999999999
aF6.7999999999999998
aF6.9400000000000004
aF6.9800000000000004
aF7.25
aF6.7699999999999996
aF7.1100000000000003
aF6.96
aF6.3700000000000001
aF6.4500000000000002
aF7.6600000000000001
aF6.5999999999999996
aF6.6900000000000004
aF6.9900000000000002
aF7.1200000000000001
aF6.46
aF7.2300000000000004
aF6.4000000000000004
aF7.4900000000000002
aF7.2699999999999996
aF6.6900000000000004
aF7.0999999999999996
aF7.46
aF6.8799999999999999
aF7.3799999999999999
aF6.8300000000000001
aF6.4199999999999999
aF7.0499999999999998
aF6.4000000000000004
aF6.5700000000000003
aF6.9699999999999998
aF7.6399999999999997
aF6.3799999999999999
aF6.6900000000000004
aF7.7000000000000002
aF6.2199999999999998
aF7.5499999999999998
aF6.6200000000000001
aF6.4500000000000002
aF6.7599999999999998
aF7.0300000000000002
aF6.54
aF7.2800000000000002
aF6.3099999999999996
aF6.8600000000000003
aF6.8899999999999997
aF6.7800000000000002
aF7.1500000000000004
aF7.3200000000000003
aF6.9699999999999998
aF7.0499999999999998
aF7.0899999999999999
aF6.8700000000000001
aF6.8799999999999999
aF7.1399999999999997
aF6.9199999999999999
aF6.9800000000000004
aF7.5300000000000002
aF6.8099999999999996
aF6.9500000000000002
aF6.4500000000000002
aF6.25
aF7.1399999999999997
aF6.8700000000000001
aF6.6600000000000001
aF5.9800000000000004
aF6.7199999999999998
aF7.0499999999999998
aF6.6699999999999999
aF6.9500000000000002
aF6.7999999999999998
aF7.0099999999999998
aF6.9500000000000002
aF7.0700000000000003
aF7.0300000000000002
aF5.96
aF7
aF6.8799999999999999
aF7
aF6.3499999999999996
aF6.7300000000000004
aF6.8499999999999996
aF6.7199999999999998
aF6.9299999999999997
aF6.6200000000000001
aF6.9000000000000004
aF6.8700000000000001
aF6.1799999999999997
aF6.6200000000000001
aF6.25
aF6.6799999999999997
aF6.5800000000000001
aF6.4299999999999997
aF6.9299999999999997
aF6.8899999999999997
aF6.9100000000000001
aF6.2400000000000002
aF7.1900000000000004
aF6.8899999999999997
aF7.0199999999999996
aF6.8799999999999999
aF6.8700000000000001
aF7.6799999999999997
aF6.7800000000000002
aF7.0700000000000003
aF6.96
aF6.9100000000000001
aF7.2000000000000002
aF6.8799999999999999
aF5.8300000000000001
aF7.2199999999999998
aF7.54
aF6.7000000000000002
aF7.5099999999999998
aF7.0999999999999996
aF6.4400000000000004
aF7.2199999999999998
aF6.5099999999999998
aF6.9400000000000004
aF6.8899999999999997
aF6.5499999999999998
aF7
aF7.2699999999999996
aF6.6200000000000001
aF6.9500000000000002
aF7.1299999999999999
aF6.9900000000000002
aF6.2300000000000004
aF6.8399999999999999
aF6.9699999999999998
aF6.9299999999999997
aF7.4100000000000001
aF6.8499999999999996
aF6.8600000000000003
aF6.79
aF6.9000000000000004
aF6.8099999999999996
aF7.5300000000000002
aF7.4000000000000004
aF6.5599999999999996
aF6.7800000000000002
aF7.1200000000000001
aF6.5199999999999996
aF6.4900000000000002
aF6.9199999999999999
aF6.1100000000000003
aF6.9400000000000004
aF7.2400000000000002
aF6.8200000000000003
aF6.54
aF6.9100000000000001
aF7.0099999999999998
aF7.1299999999999999
aF7.1699999999999999
aF6.9400000000000004
aF6.79
aF6.6299999999999999
aF6.9100000000000001
aF7.1299999999999999
aF6.46
aF7.1699999999999999
aF7.0499999999999998
aF6.6600000000000001
aF6.8899999999999997
aF7.2999999999999998
aF6.8600000000000003
aF6.9900000000000002
aF8.0099999999999998
aF6.8200000000000003
aF6.29
aF6.8200000000000003
aF6.75
aF6.8700000000000001
aF7.1799999999999997
aF7.0499999999999998
aF6.8099999999999996
aF7.04
aF7.54
aF7.4299999999999997
aF6.9699999999999998
aF7.0099999999999998
aF7.2000000000000002
aF7.7000000000000002
aF6.96
aF7.3099999999999996
aF6.8300000000000001
aF6.6200000000000001
aF7.0099999999999998
aF6.5499999999999998
aF7.1799999999999997
aF6.9000000000000004
aF6.8899999999999997
aF6.7599999999999998
aF7.0800000000000001
aF6.7199999999999998
aF6.8200000000000003
aF7.4100000000000001
aF6.5
aF6.9800000000000004
aF7.5800000000000001
aF7.0599999999999996
aF6.8300000000000001
aF7.3799999999999999
aF6.8799999999999999
aF7.29
aF6.5499999999999998
aF6.1500000000000004
aF6.9100000000000001
aF6.6100000000000003
aF7.6200000000000001
aF6.7699999999999996
aF7.1900000000000004
aF6.3499999999999996
aF7.0899999999999999
aF6.9199999999999999
aF6.4100000000000001
aF7.21
aF7.5999999999999996
aF7.21
aF6.8600000000000003
aF6.5099999999999998
aF6.7800000000000002
aF5.79
aF7.25
aF6.7000000000000002
aF6.8799999999999999
aF6.6600000000000001
aF6.7999999999999998
aF6.4400000000000004
aF6.75
aF6.96
aF7.2300000000000004
aF6.8099999999999996
aF7.0599999999999996
aF6.2599999999999998
aF7.2000000000000002
aF6.46
aF6.9800000000000004
aF6.5499999999999998
aF6.7599999999999998
aF7.4500000000000002
aF7.2699999999999996
aF6.7699999999999996
aF6.5499999999999998
aF5.8600000000000003
aF7.0599999999999996
aF6.9800000000000004
aF6.6799999999999997
aF6.9699999999999998
aF6.3899999999999997
aF6.3300000000000001
aF6.5
aF6.5700000000000003
aF6.8799999999999999
aF6.6699999999999999
aF6.4699999999999998
aF6.4900000000000002
aF6.8700000000000001
aF6.8899999999999997
aF6.7400000000000002
aF6.7599999999999998
aF5.9100000000000001
aF7.6500000000000004
aF6.04
aF6.9000000000000004
aF7.1699999999999999
aF6.8399999999999999
aF6.9299999999999997
aF6.9299999999999997
aF7.4699999999999998
aF7.3300000000000001
aF7.1200000000000001
aF6.3799999999999999
aF6.71
aF7.0899999999999999
aF6.8099999999999996
aF6.46
aF7.3600000000000003
aF6.5800000000000001
aF7.4900000000000002
aF6.96
aF6.9900000000000002
aF6.3600000000000003
aF7.1100000000000003
aF6.8600000000000003
aF6.7300000000000004
aF6.96
aF6.3600000000000003
aF7.3399999999999999
aF6.1299999999999999
aF6.9000000000000004
aF6.1699999999999999
aF6.8099999999999996
aF7.2800000000000002
aF6.9199999999999999
aF7.1699999999999999
aF6.0599999999999996
aF7
aF7.0700000000000003
aF7.0899999999999999
aF7.0199999999999996
aF6.6399999999999997
aF7.6699999999999999
aF6.9199999999999999
aF7.3300000000000001
aF7.1799999999999997
aF6.9900000000000002
aF6.54
aF6.8099999999999996
aF6.8300000000000001
aF7.0800000000000001
aF6.4400000000000004
aF7.3300000000000001
aF7.0099999999999998
aF6.7800000000000002
aF6.8899999999999997
aF6.7999999999999998
aF6.75
aF6.7400000000000002
aF6.8700000000000001
aF6.9000000000000004
aF6.7400000000000002
aF6.79
aF6.0499999999999998
aF6.7599999999999998
aF6.9100000000000001
aF7.0899999999999999
aF7.1600000000000001
aF6.8799999999999999
aF6.8899999999999997
aF6.46
aF6.7400000000000002
aF7.0199999999999996
aF6.2699999999999996
aF7.4400000000000004
aF6.9100000000000001
aF6.8899999999999997
aF6.5599999999999996
aF6.7599999999999998
aF8.1699999999999999
aF6.0700000000000003
aF7.2800000000000002
aF7.0899999999999999
aF6.7599999999999998
aF6.8700000000000001
aF7.0700000000000003
aF7.0999999999999996
aF7.21
aF7.0999999999999996
aF6.9199999999999999
aF7.0800000000000001
aF6.9900000000000002
aF6.8499999999999996
aF6.6699999999999999
aF7.0999999999999996
aF7.1399999999999997
aF7.6200000000000001
aF6.7999999999999998
aF6.7199999999999998
aF6.4299999999999997
aF6.7300000000000004
aF6.8499999999999996
aF6.6500000000000004
aF7.0599999999999996
aF7.0499999999999998
aF6.4000000000000004
aF6.9500000000000002
aF6.4500000000000002
aF7.0999999999999996
aF7.0499999999999998
aF7.1100000000000003
aF6.7199999999999998
aF6.3899999999999997
aF6.8899999999999997
aF6.9400000000000004
aF7.25
aF7.1900000000000004
aF6.54
aF6.75
aF5.9400000000000004
aF7.4900000000000002
aF6.2699999999999996
aF6.9699999999999998
aF6.5599999999999996
aF7.46
aF6.9400000000000004
aF6.6399999999999997
aF6.3899999999999997
aF6.7599999999999998
aF6.9500000000000002
aF7.0899999999999999
aF7.0599999999999996
aF6.4500000000000002
aF7.21
aF6.9299999999999997
aF6.8099999999999996
aF6.96
aF6.5899999999999999
aF6.6799999999999997
aF6.29
aF6.2599999999999998
aF6.04
aF7.3700000000000001
aF6.6200000000000001
aF7.3899999999999997
aF7.4699999999999998
aF6.9199999999999999
aF7.0499999999999998
aF6.6100000000000003
aF6.9400000000000004
aF6.8200000000000003
aF6.9000000000000004
aF7.5300000000000002
aF6.9400000000000004
aF6.46
aF6.9900000000000002
aF6.7000000000000002
aF6.8300000000000001
aF6.3600000000000003
aF6.7800000000000002
aF6.3899999999999997
aF7.0999999999999996
aF6.9800000000000004
aF6.9100000000000001
aF7.0199999999999996
aF7.6500000000000004
aF7.1299999999999999
aF7.0199999999999996
aF6.6799999999999997
aF6.5499999999999998
aF6.0999999999999996
aF7.4900000000000002
aF7.3200000000000003
aF6.8300000000000001
aF7.0499999999999998
aF6.8300000000000001
aF7.0800000000000001
aF6.4500000000000002
aF6.6600000000000001
aF6.6299999999999999
aF6.9699999999999998
aF7.1299999999999999
aF6.6399999999999997
aF6.0199999999999996
aF7.0499999999999998
aF6.7199999999999998
aF6.9000000000000004
aF7.0199999999999996
aF6.5999999999999996
aF7.1600000000000001
aF6.6699999999999999
aF8.3200000000000003
aF6.2199999999999998
aF6.8899999999999997
aF6.3700000000000001
aF7.0700000000000003
aF7.2400000000000002
aF6.5099999999999998
aF7.1900000000000004
aF5.8899999999999997
aF7.0199999999999996
aF7.0300000000000002
aF6.2000000000000002
aF7.04
aF6.0599999999999996
aF5.9100000000000001
aF6.7300000000000004
aF7.4500000000000002
aF6.9100000000000001
aF6.8799999999999999
aF7.0800000000000001
aF7.0599999999999996
aF6.96
aF6.8399999999999999
aF6.6200000000000001
as.