(dp1
S'perpIncOov'
p2
(lp3
F1
aF1
aF1
aF1
aF1
aF1
aF1
aF1
aF1
aF1
aF1
aF1
aF1
aF1
aF1
aF1
aF1
aF1
aF1
aF1
aF1
aF1
aF1
aF1
aF1
aF1
aF1
aF1
aF1
aF1
aF1
aF1
aF1
aF1
aF1
aF1
aF1
aF1
aF1
aF1
aF5.4694399999999996
aF5.1278100000000002
aF10.084199999999999
aF82.966399999999993
aF3.8560099999999999
aF74.015299999999996
aF16.911799999999999
aF53.446300000000001
aF11.4024
aF1.3465199999999999
aF12.436299999999999
aF70.145600000000002
aF2.5404399999999998
aF17.422599999999999
aF4.1172199999999997
aF3.1100300000000001
aF12.0349
aF27.0505
aF19.455300000000001
aF5.8023499999999997
aF47.6584
aF16.992599999999999
aF65.2714
aF2.8332600000000001
aF6.0912100000000002
aF32.522300000000001
aF34.709800000000001
aF159.917
aF311.74299999999999
aF20.407
aF83.184799999999996
aF44.438099999999999
aF15.288600000000001
aF12.3215
aF6.7657699999999998
aF17.8111
aF6.0244900000000001
aF62.710700000000003
aF34.170499999999997
aF23.7379
aF59.201599999999999
aF237.822
aF12.4079
aF86.477400000000003
aF86.812200000000004
aF18.916
aF65.820599999999999
aF13.1107
aF23.277699999999999
aF93.343400000000003
aF41.655000000000001
aF50.5092
aF27.464200000000002
aF35.190800000000003
aF4.7505699999999997
aF77.726299999999995
aF232.249
aF27.136900000000001
aF49.811900000000001
aF46.036099999999998
aF41.831299999999999
aF44.912799999999997
aF37.335999999999999
aF5.5951199999999996
aF108.142
aF12.058999999999999
aF38.008299999999998
aF32.161299999999997
aF18.8949
aF146.09200000000001
aF85.965000000000003
aF27.030000000000001
aF61.851300000000002
aF88.8797
aF58.964599999999997
aF46.2271
aF86.411699999999996
aF52.828699999999998
aF74.043099999999995
aF93.251300000000001
aF27.886399999999998
aF63.280099999999997
aF35.8127
aF30.755099999999999
aF47.392299999999999
aF19.8813
aF158.00299999999999
aF149.09
aF57.178400000000003
aF73.5959
aF20.838999999999999
aF74.978099999999998
aF75.971400000000003
aF91.250200000000007
aF15.0769
aF56.0867
aF231.59700000000001
aF96.627600000000001
aF10.9046
aF190.261
aF151.072
aF67.309700000000007
aF68.247600000000006
aF68.607299999999995
aF121.886
aF134.74700000000001
aF34.948099999999997
aF135.197
aF11.8383
aF100.063
aF28.897400000000001
aF69.420299999999997
aF64.482600000000005
aF175.303
aF91.601500000000001
aF148.55099999999999
aF35.088900000000002
aF95.722300000000004
aF72.462699999999998
aF143.524
aF88.657300000000006
aF114.53400000000001
aF144.47200000000001
aF109.04300000000001
aF62.172199999999997
aF100.117
aF211.285
aF88.154200000000003
aF59.713099999999997
aF175.60599999999999
aF61.470399999999998
aF94.514899999999997
aF87.568100000000001
aF122.15000000000001
aF42.013399999999997
aF97.915300000000002
aF56.306600000000003
aF139.49600000000001
aF84.847499999999997
aF76.227500000000006
aF93.301199999999994
aF83.061199999999999
aF69.087299999999999
aF97.679500000000004
aF93.485500000000002
aF128.96100000000001
aF58.335099999999997
aF144.19999999999999
aF86.653499999999994
aF159.06299999999999
aF39.965600000000002
aF123.264
aF53.576599999999999
aF103.151
aF209.583
aF116.873
aF174.66499999999999
aF99.5886
aF59.567300000000003
aF122.536
asS'entroInc'
p4
(lp5
F0
aF0
aF0
aF0
aF0
aF0
aF0
aF0
aF0
aF0
aF0
aF0
aF0
aF0
aF0
aF0
aF0
aF0
aF0
aF0
aF0
aF0
aF0
aF0
aF0
aF0
aF0
aF0
aF0
aF0
aF0
aF0
aF0
aF0
aF0
aF0
aF0
aF0
aF0
aF0
aF2.4513931272442999
aF2.3583428069769306
aF3.3340247314597273
aF6.3744552823380154
aF1.947108792992071
aF6.209751621744422
aF4.0799583154200807
aF5.7400181708702371
aF3.5112656125825508
aF0.42923565849649653
aF3.6364854191308846
aF6.1322807061129252
aF1.3450783910300754
aF4.1228880303745568
aF2.0416705398491359
aF1.6369284969611764
aF3.5891522491548229
aF4.7575833558841376
aF4.2820913216733461
aF2.5366373220844829
aF5.5746586127014757
aF4.0868347078641776
aF6.0283790787487721
aF1.5024629997037122
aF2.606728843501545
aF5.0233573843193255
aF5.1172711471804133
aF7.321179502651999
aF8.2842133553511861
aF4.3509922045858005
aF6.3782480298884403
aF5.4737252289146223
aF3.9343843978888109
aF3.6231059930331981
aF2.7582541340489288
aF4.1547047138276865
aF2.590839115929608
aF5.9706397184554918
aF5.0946794530508814
aF4.569120405874215
aF5.8875642619725426
aF7.8937383692099097
aF3.6331870591911017
aF6.4342512430351571
aF6.4398258984175616
aF4.2415351417957172
aF6.0404672725662634
aF3.7126728101623967
aF4.5408766117882289
aF6.5444761127979847
aF5.380417772765278
aF5.6584742864253785
aF4.7794803633379015
aF5.1371264064433619
aF2.2481006264619188
aF6.2803309362429438
aF7.8595285745499437
aF4.7621840179260717
aF5.6384185363796746
aF5.5246937140008416
aF5.3865109284994839
aF5.4890547617875942
aF5.222495467302056
aF2.4841690733908353
aF6.7567831330476125
aF3.5920383707109802
aF5.2482425940041821
aF5.0072538181221002
aF4.2399249781380099
aF7.1907333680781536
aF6.4256774918622375
aF4.7564896067599705
aF5.9507320131907573
aF6.4737820420234273
aF5.8817771725482801
aF5.5306669546091927
aF6.4331547590029192
aF5.7232500036110867
aF6.2102933934049025
aF6.5430519327536834
aF4.8014897962893084
aF5.9836799745556855
aF5.1623993856700636
aF4.9427537617496968
aF5.5665807731204806
aF4.3133401899281063
aF7.3038081408608617
aF7.2200396839203478
aF5.8373983450704108
aF6.2015534914084123
aF4.381214143633553
aF6.2283973620269917
aF6.2473845023420695
aF6.5117558158352367
aF3.9142679177657307
aF5.8095867958658474
aF7.8554727552212418
aF6.5943634236572235
aF3.4468649452327984
aF7.5718360557857354
aF7.2390924829419063
aF6.0727425214688742
aF6.0927064078945321
aF6.1002901860592038
aF6.9293886152365571
aF7.0741093430248441
aF5.1271421185828192
aF7.0789193285757239
aF3.5653900172682009
aF6.6447648014678444
aF4.8528677891411069
aF6.1172856946776184
aF6.0108380107675607
aF7.4537068752508908
aF6.5172993179349401
aF7.2148145067635019
aF5.1329428163686917
aF6.5807831570242126
aF6.1791666572896515
aF7.1651481934761092
aF6.4701675217270642
aF6.8396321230319366
aF7.1746461020480998
aF6.7687533491213214
aF5.9581977252816785
aF6.6455431562894827
aF7.7230465377680382
aF6.4619574015266936
aF5.8999755629234576
aF7.456198328625014
aF5.9418199678890069
aF6.5624698788413562
aF6.4523335040584389
aF6.932510053379894
aF5.3927776377852199
aF6.6134624042513854
aF5.8152321331644137
aF7.124079943636354
aF6.4068002468092526
aF6.2522396563369789
aF6.5438237314082963
aF6.3761028096737071
aF6.1103486258921933
aF6.6099839103911533
aF6.5466707090819884
aF7.0107910258612405
aF5.8662923034993586
aF7.1719273543534605
aF6.4371861169867897
aF7.3134544759501647
aF5.3206868433374961
aF6.9456077031813725
aF5.743531124765342
aF6.6886139973107825
aF7.7113778894251119
aF6.8687978667341874
aF7.448446734576561
aF6.6379086999842727
aF5.8964486625824151
aF6.9370618524017917
asS'entroExc'
p6
(lp7
F0
aF0
aF0
aF-2.1441824798872866
aF0
aF0
aF0
aF0
aF0
aF0
aF0
aF0
aF0
aF-0.90336031558765051
aF0
aF0
aF0
aF0
aF-2.2469500580774073
aF0
aF-1.2789126263982127
aF0
aF-0.94811843322869849
aF0
aF0
aF0
aF0
aF0
aF-2.6361583447294503
aF0
aF0
aF0
aF0
aF0
aF0
aF0
aF0
aF0
aF0
aF0
aF2.4513931272442999
aF2.3583428069769306
aF3.3340247314597273
aF6.3744552823380154
aF1.947108792992071
aF6.209751621744422
aF4.0799583154200807
aF5.7400181708702371
aF3.5112656125825508
aF0.42923565849649653
aF3.6364854191308846
aF6.1322807061129252
aF1.3450783910300754
aF3.2841854029594297
aF1.4178984104191565
aF1.6369284969611764
aF3.5891522491548229
aF4.7575833558841376
aF4.2820913216733461
aF2.5366373220844829
aF5.1789695399222602
aF4.0868347078641776
aF6.0283790787487721
aF1.5024629997037122
aF2.606728843501545
aF5.0233573843193255
aF5.1172711471804133
aF7.0007662282291161
aF6.9625952920669487
aF4.3509922045858005
aF6.3782480298884403
aF5.4737252289146223
aF3.9343843978888109
aF3.6231059930331981
aF2.2933145647085973
aF4.1547047138276865
aF2.590839115929608
aF5.9706397184554918
aF5.0946794530508814
aF4.569120405874215
aF4.5564478092342391
aF7.8937383692099097
aF3.6331870591911017
aF6.0463513589214459
aF5.7367672099588569
aF4.2415351417957172
aF6.0404672725662634
aF3.1516023292387372
aF4.5408766117882289
aF6.5444761127979847
aF4.721793703103649
aF5.6584742864253785
aF4.7794803633379015
aF5.1371264064433619
aF2.2481006264619188
aF6.2803309362429438
aF6.468439952653017
aF4.1704058196573577
aF5.399796581887264
aF5.5246937140008416
aF5.3865109284994839
aF5.4890547617875942
aF5.222495467302056
aF2.4841690733908353
aF6.4398042941085363
aF3.5920383707109802
aF5.2482425940041821
aF5.0072538181221002
aF4.0223500566725274
aF7.1907333680781536
aF6.4256774918622375
aF4.7564896067599705
aF5.7527780229419578
aF6.4737820420234273
aF5.7070305191371933
aF5.5306669546091927
aF6.4331547590029192
aF5.7232500036110867
aF5.7497112417076908
aF6.5430519327536834
aF4.4445279317537345
aF5.6809994071757064
aF5.1623993856700636
aF4.9427537617496968
aF5.2287648288755983
aF4.3133401899281063
aF5.7196708291342775
aF6.6823766549497936
aF5.6247267457585304
aF5.975556820823213
aF4.381214143633553
aF6.2283973620269917
aF6.0827536753606335
aF6.349535129648749
aF3.6136848721959001
aF5.5368859404434723
aF6.6469402583845412
aF6.450490408724205
aF3.4468649452327984
aF7.2550191249757621
aF7.1517066342407727
aF6.0727425214688742
aF6.0927064078945321
aF6.1002901860592038
aF6.7368754229082697
aF7.0096830811389488
aF5.1271421185828192
aF6.9903082248009101
aF3.3543534197613858
aF6.3715919675531234
aF4.7487671292078932
aF6.1172856946776184
aF6.0108380107675607
aF7.2931681336539089
aF5.7294630410591356
aF7.1063692595389787
aF5.1329428163686917
aF6.5807831570242126
aF6.1791666572896515
aF7.1651481934761092
aF6.1470950011324401
aF6.7682107960027125
aF6.5226646971374054
aF6.6321707721203502
aF5.9581977252816785
aF6.5699634267734703
aF7.1274372480602564
aF6.3887991433544791
aF5.8999755629234576
aF7.1221446554377801
aF5.8002398615405077
aF6.5624698788413562
aF6.2612242663952831
aF6.8459666888220516
aF5.2987609426589835
aF6.6134624042513854
aF5.8152321331644137
aF7.124079943636354
aF6.4068002468092526
aF6.1809733068478616
aF6.5438237314082963
aF6.3761028096737071
aF5.6900985723117978
aF6.6099839103911533
aF6.272564471515512
aF6.9693231996715745
aF5.6584485794827826
aF7.1071752198243798
aF6.3256742341202568
aF7.1727475164193013
aF5.3206868433374961
aF6.900166417810623
aF5.5406007852819377
aF6.6138513323908956
aF7.0944261079051261
aF6.7888031466384353
aF7.2657275512153827
aF6.4882916592898177
aF5.8370576800180194
aF6.6752937345982062
asS'perpExcOov'
p8
(lp9
F1
aF1
aF1
aF0.22622300000000001
aF1
aF1
aF1
aF1
aF1
aF1
aF1
aF1
aF1
aF0.53464
aF1
aF1
aF1
aF1
aF0.210669
aF1
aF0.41210599999999997
aF1
aF0.51830799999999999
aF1
aF1
aF1
aF1
aF1
aF0.160856
aF1
aF1
aF1
aF1
aF1
aF1
aF1
aF1
aF1
aF1
aF1
aF5.4694399999999996
aF5.1278100000000002
aF10.084199999999999
aF82.966399999999993
aF3.8560099999999999
aF74.015299999999996
aF16.911799999999999
aF53.446300000000001
aF11.4024
aF1.3465199999999999
aF12.436299999999999
aF70.145600000000002
aF2.5404399999999998
aF9.7417800000000003
aF2.6719599999999999
aF3.1100300000000001
aF12.0349
aF27.0505
aF19.455300000000001
aF5.8023499999999997
aF36.226399999999998
aF16.992599999999999
aF65.2714
aF2.8332600000000001
aF6.0912100000000002
aF32.522300000000001
aF34.709800000000001
aF128.06800000000001
aF124.724
aF20.407
aF83.184799999999996
aF44.438099999999999
aF15.288600000000001
aF12.3215
aF4.9018100000000002
aF17.8111
aF6.0244900000000001
aF62.710700000000003
aF34.170499999999997
aF23.7379
aF23.5303
aF237.822
aF12.4079
aF66.089600000000004
aF53.326000000000001
aF18.916
aF65.820599999999999
aF8.8864199999999993
aF23.277699999999999
aF93.343400000000003
aF26.387699999999999
aF50.5092
aF27.464200000000002
aF35.190800000000003
aF4.7505699999999997
aF77.726299999999995
aF88.551199999999994
aF18.006
aF42.218299999999999
aF46.036099999999998
aF41.831299999999999
aF44.912799999999997
aF37.335999999999999
aF5.5951199999999996
aF86.810900000000004
aF12.058999999999999
aF38.008299999999998
aF32.161299999999997
aF16.2498
aF146.09200000000001
aF85.965000000000003
aF27.030000000000001
aF53.921100000000003
aF88.8797
aF52.238100000000003
aF46.2271
aF86.411699999999996
aF52.828699999999998
aF53.806600000000003
aF93.251300000000001
aF21.773900000000001
aF51.304000000000002
aF35.8127
aF30.755099999999999
aF37.498600000000003
aF19.8813
aF52.697800000000001
aF102.706
aF49.3414
aF62.924799999999998
aF20.838999999999999
aF74.978099999999998
aF67.778400000000005
aF81.545599999999993
aF12.241300000000001
aF46.4268
aF100.214
aF87.456299999999999
aF10.9046
aF152.749
aF142.19300000000001
aF67.309700000000007
aF68.247600000000006
aF68.607299999999995
aF106.66
aF128.86199999999999
aF34.948099999999997
aF127.143
aF10.2273
aF82.801900000000003
aF26.8857
aF69.420299999999997
aF64.482600000000005
aF156.84200000000001
aF53.056699999999999
aF137.79400000000001
aF35.088900000000002
aF95.722300000000004
aF72.462699999999998
aF143.524
aF70.869600000000005
aF109.002
aF91.942800000000005
aF99.193299999999994
aF62.172199999999997
aF95.007099999999994
aF139.821
aF83.795400000000001
aF59.713099999999997
aF139.309
aF55.724499999999999
aF94.514899999999997
aF76.703699999999998
aF115.038
aF39.3628
aF97.915300000000002
aF56.306600000000003
aF139.49600000000001
aF84.847499999999997
aF72.5535
aF93.301199999999994
aF83.061199999999999
aF51.628599999999999
aF97.679500000000004
aF77.308999999999997
aF125.307
aF50.508299999999998
aF137.87100000000001
aF80.207999999999998
aF144.28200000000001
aF39.965600000000002
aF119.44199999999999
aF46.546500000000002
aF97.941699999999997
aF136.65799999999999
aF110.569
aF153.887
aF89.778099999999995
aF57.164900000000003
aF102.203
asS'normalExc'
p10
(lp11
F0
aF0
aF0
aF-0.08934093666197028
aF0
aF0
aF0
aF0
aF0
aF0
aF0
aF0
aF0
aF-0.029140655341537113
aF0
aF0
aF0
aF0
aF-0.093622919086558634
aF0
aF-0.067311190863063822
aF0
aF-0.031603947774289952
aF0
aF0
aF0
aF0
aF0
aF-0.087871944824315013
aF0
aF0
aF0
aF0
aF0
aF0
aF0
aF0
aF0
aF0
aF0
aF0.076606035226384372
aF0.12412330563036476
aF0.069458848572077653
aF0.16344757134200039
aF0.033001843949018152
aF0.26998920094540962
aF0.064761243101906049
aF0.09728844357407182
aF0.10032187464521573
aF0.0056478376117960073
aF0.11364016934784014
aF0.27874003209604203
aF0.025866892135193758
aF0.065683708059188592
aF0.032224963873162649
aF0.040923212424029409
aF0.081571642026245977
aF0.2973489597427586
aF0.10979721337623964
aF0.056369718268544061
aF0.1125862943461361
aF0.10217086769660444
aF0.1057610364692767
aF0.041735083325103117
aF0.14481826908341916
aF0.26438723075364873
aF0.078727248418160201
aF0.12728665869507483
aF0.10090717814589781
aF0.090645670928870839
aF0.13288016728934252
aF0.21052789341979317
aF0.0855300956062785
aF0.063563263035670142
aF0.040952045798367809
aF0.13849015712758955
aF0.057574202576213512
aF0.084093517161344958
aF0.094345915797238541
aF0.084613340849522503
aF0.085970713381778099
aF0.13609893740017084
aF0.032731414947667584
aF0.10424743722278355
aF0.072617306455175404
aF0.11782042060543658
aF0.081627936115760316
aF0.071627325664516753
aF0.04540876611788229
aF0.083903539907666469
aF0.06558046809866179
aF0.12574387303167509
aF0.056229180745151784
aF0.037225553669879431
aF0.070253144576934962
aF0.040781369715863269
aF0.073504999461966106
aF0.096986181852496689
aF0.056247881061325666
aF0.074658023162173542
aF0.055531040499994681
aF0.070372496945994803
aF0.060028683532207541
aF0.037077150349116947
aF0.093330497016065744
aF0.039911537452344222
aF0.092074431473757587
aF0.12518134545305251
aF0.031923413148194663
aF0.074903472584147437
aF0.053547312432185315
aF0.069948376569999568
aF0.063919755810466203
aF0.068870021723653488
aF0.039632156382897174
aF0.077896717670552007
aF0.057438881776811779
aF0.069795731751354714
aF0.061824852061373017
aF0.13631358193236839
aF0.034996282927194762
aF0.035955692450479151
aF0.05322061222340272
aF0.088263460031244592
aF0.036060447095693782
aF0.045403580946611642
aF0.039175827596810119
aF0.041764854093436207
aF0.067767792117572653
aF0.051073135220711226
aF0.032453438100989281
aF0.09436965700040896
aF0.047153129266361497
aF0.063495351296487493
aF0.045171060902448754
aF0.073825145872579628
aF0.051526668669647606
aF0.045425988793832431
aF0.036668776013114877
aF0.064203709070581969
aF0.035580630021098375
aF0.046005625162642984
aF0.060927064078945319
aF0.032974541546265966
aF0.064777648297194901
aF0.025124312118777595
aF0.027417872291886733
aF0.039052001255871008
aF0.029168290606620746
aF0.046849940937890612
aF0.02158530513276315
aF0.040511825792567006
aF0.048868601713557405
aF0.028941143387515512
aF0.030155068637153344
aF0.045263498468401137
aF0.030017209452448488
aF0.04803491355492126
aF0.0355124520533888
aF0.041417041580786761
aF0.024296818186294231
aF0.024433973992789577
aF0.030337975335522814
aF0.023942854772997655
aF0.02524660053085457
aF0.023380652764318399
aF0.023837582769432295
aF0.027537927342045167
aF0.049999792906130998
aF0.020643897551993567
aF0.021887697590718899
aF0.022786353745976932
aF0.031782864296422755
aF0.028057240527959229
aF0.025974318346367566
aF0.015452014963204171
aF0.022715750520173491
aF0.024314266019236704
aF0.038829092404904564
aF0.025331857814950252
aF0.034082415267751541
aF0.021396318153267473
aF0.02196949255718841
aF0.022714721341550354
aF0.019663211509453014
aF0.015696673873134177
aF0.024389864566736131
aF0.021668217133610914
aF0.020808138928027159
aF0.018875651358998161
aF0.025828576909405321
aF0.020175925198276677
aF0.019858784176637768
aF0.024226561657109506
aF0.028956841256755617
aF0.017274308261166504
aF0.014416126093681316
aF0.017727572839589666
aF0.018829218322638772
aF0.018698301777586013
asS'normalInc'
p12
(lp13
F0
aF0
aF0
aF0
aF0
aF0
aF0
aF0
aF0
aF0
aF0
aF0
aF0
aF0
aF0
aF0
aF0
aF0
aF0
aF0
aF0
aF0
aF0
aF0
aF0
aF0
aF0
aF0
aF0
aF0
aF0
aF0
aF0
aF0
aF0
aF0
aF0
aF0
aF0
aF0
aF0.076606035226384372
aF0.12412330563036476
aF0.069458848572077653
aF0.16344757134200039
aF0.033001843949018152
aF0.26998920094540962
aF0.064761243101906049
aF0.09728844357407182
aF0.10032187464521573
aF0.0056478376117960073
aF0.11364016934784014
aF0.27874003209604203
aF0.025866892135193758
aF0.082457760607491132
aF0.046401603178389456
aF0.040923212424029409
aF0.081571642026245977
aF0.2973489597427586
aF0.10979721337623964
aF0.056369718268544061
aF0.12118823071090165
aF0.10217086769660444
aF0.1057610364692767
aF0.041735083325103117
aF0.14481826908341916
aF0.26438723075364873
aF0.078727248418160201
aF0.13311235459367271
aF0.12006106312103168
aF0.090645670928870839
aF0.13288016728934252
aF0.21052789341979317
aF0.0855300956062785
aF0.063563263035670142
aF0.049254538108016589
aF0.13849015712758955
aF0.057574202576213512
aF0.084093517161344958
aF0.094345915797238541
aF0.084613340849522503
aF0.11108611815042534
aF0.13609893740017084
aF0.032731414947667584
aF0.11093536625922684
aF0.081516783524272926
aF0.11782042060543658
aF0.081627936115760316
aF0.084378927503690832
aF0.04540876611788229
aF0.083903539907666469
aF0.074728024621739969
aF0.12574387303167509
aF0.056229180745151784
aF0.037225553669879431
aF0.070253144576934962
aF0.040781369715863269
aF0.089312824710794811
aF0.11074846553316446
aF0.058733526420621608
aF0.074658023162173542
aF0.055531040499994681
aF0.070372496945994803
aF0.060028683532207541
aF0.037077150349116947
aF0.097924393232574097
aF0.039911537452344222
aF0.092074431473757587
aF0.12518134545305251
aF0.033650198239190555
aF0.074903472584147437
aF0.053547312432185315
aF0.069948376569999568
aF0.066119244591008416
aF0.068870021723653488
aF0.040845674809363054
aF0.077896717670552007
aF0.057438881776811779
aF0.069795731751354714
aF0.066777348316181748
aF0.13631358193236839
aF0.037807006269994552
aF0.037871392244023326
aF0.05322061222340272
aF0.088263460031244592
aF0.038390212228417105
aF0.045403580946611642
aF0.050026083156581247
aF0.045125248024502171
aF0.070330100543016999
aF0.053004730695798398
aF0.032453438100989281
aF0.09436965700040896
aF0.048429337227457903
aF0.065117558158352365
aF0.048928348972071635
aF0.077461157278211304
aF0.060895137637373968
aF0.046439179039839601
aF0.036668776013114877
aF0.067007398723767569
aF0.036015385487273163
aF0.046005625162642984
aF0.060927064078945319
aF0.032974541546265966
aF0.066628736684966897
aF0.025355230620160731
aF0.027417872291886733
aF0.039547035355171643
aF0.031003391454506094
aF0.048858564716675323
aF0.022058489950641396
aF0.040511825792567006
aF0.048868601713557405
aF0.029578201885916235
aF0.034301575357552315
aF0.045954232527156066
aF0.030017209452448488
aF0.04803491355492126
aF0.0355124520533888
aF0.041417041580786761
aF0.025573784670857962
aF0.024691812718526846
aF0.03337044698627023
aF0.024435932668308021
aF0.02524660053085457
aF0.023649619773272179
aF0.025829587082836249
aF0.027853264661752988
aF0.049999792906130998
aF0.0216121690684783
aF0.022421962142977384
aF0.022786353745976932
aF0.032752961949535225
aF0.028411926448278255
aF0.026435184498947155
aF0.015452014963204171
aF0.022715750520173491
aF0.024314266019236704
aF0.038829092404904564
aF0.025623933017774502
aF0.034082415267751541
aF0.021396318153267473
aF0.023592079636649395
aF0.022714721341550354
aF0.020522478711855762
aF0.015790069878065856
aF0.025285742687497236
aF0.021865632177906894
aF0.021174954332193387
aF0.019245932831447803
aF0.025828576909405321
aF0.020308794453746705
aF0.020586133063675061
aF0.02450041757256697
aF0.031475011793571886
aF0.017477857167262564
aF0.014778664155905875
aF0.01813636256826304
aF0.019020802137362628
aF0.019431545805047034
as.