(dp1
S'perpIncOov'
p2
(lp3
F1
aF1
aF1
aF1
aF1
aF1
aF1
aF1
aF1
aF1
aF1
aF1
aF1
aF1
aF1
aF1
aF1
aF1
aF1
aF1
aF1
aF1
aF1
aF1
aF1
aF1
aF1
aF1
aF1
aF1
aF1
aF1
aF1
aF1
aF1
aF1
aF1
aF1
aF1
aF1
aF5.4694399999999996
aF5.1278100000000002
aF10.084199999999999
aF82.966399999999993
aF3.8560099999999999
aF74.015299999999996
aF16.911799999999999
aF53.446300000000001
aF11.4024
aF1.3465199999999999
aF12.436299999999999
aF70.145600000000002
aF2.5404399999999998
aF17.422599999999999
aF4.1172199999999997
aF3.1100300000000001
aF12.0349
aF27.0505
aF19.455300000000001
aF5.8023499999999997
aF47.6584
aF16.992599999999999
aF65.2714
aF2.8332600000000001
aF6.0912100000000002
aF32.522300000000001
aF34.709800000000001
aF159.917
aF311.74299999999999
aF20.407
aF83.184799999999996
aF44.438099999999999
aF15.288600000000001
aF12.3215
aF6.7657699999999998
aF17.8111
aF6.0244900000000001
aF62.710700000000003
aF34.170499999999997
aF23.7379
aF59.201599999999999
aF237.822
aF12.4079
aF86.477400000000003
aF86.812200000000004
aF18.916
aF65.820599999999999
aF13.1107
aF23.277699999999999
aF93.343400000000003
aF41.655000000000001
aF50.5092
aF27.464200000000002
aF35.190800000000003
aF4.7505699999999997
aF77.726299999999995
aF232.249
aF27.136900000000001
aF49.811900000000001
aF46.036099999999998
aF41.831299999999999
aF44.912799999999997
aF37.335999999999999
aF5.5951199999999996
aF108.142
aF12.058999999999999
aF38.008299999999998
aF32.161299999999997
aF18.8949
aF146.09200000000001
aF85.965000000000003
aF27.030000000000001
aF61.851300000000002
aF88.8797
aF58.964599999999997
aF46.2271
aF86.411699999999996
aF52.828699999999998
aF74.043099999999995
aF93.251300000000001
aF27.886399999999998
aF63.280099999999997
aF35.8127
aF30.755099999999999
aF47.392299999999999
aF19.8813
aF158.00299999999999
aF149.09
aF57.178400000000003
aF73.5959
aF20.838999999999999
aF74.978099999999998
aF75.971400000000003
aF91.250200000000007
aF15.0769
aF56.0867
aF231.59700000000001
aF96.627600000000001
aF10.9046
aF190.261
aF151.072
aF67.309700000000007
aF68.247600000000006
aF68.607299999999995
aF121.886
aF134.74700000000001
aF34.948099999999997
aF135.197
aF11.8383
aF100.063
aF28.897400000000001
aF69.420299999999997
aF64.482600000000005
aF175.303
aF91.601500000000001
aF148.55099999999999
aF35.088900000000002
aF95.722300000000004
aF72.462699999999998
aF143.524
aF88.657300000000006
aF114.53400000000001
aF144.47200000000001
aF109.04300000000001
aF62.172199999999997
aF100.117
aF211.285
aF88.154200000000003
aF59.713099999999997
aF175.60599999999999
aF61.470399999999998
aF94.514899999999997
aF87.568100000000001
aF122.15000000000001
aF42.013399999999997
aF97.915300000000002
aF56.306600000000003
aF139.49600000000001
aF84.847499999999997
aF76.227500000000006
aF93.301199999999994
aF83.061199999999999
aF69.087299999999999
aF97.679500000000004
aF93.485500000000002
aF128.96100000000001
aF58.335099999999997
aF144.19999999999999
aF86.653499999999994
aF159.06299999999999
aF39.965600000000002
aF123.264
aF53.576599999999999
aF103.151
aF209.583
aF116.873
aF174.66499999999999
aF99.5886
aF59.567300000000003
aF122.536
asS'entroInc'
p4
(lp5
F0
aF0
aF0
aF0
aF0
aF0
aF0
aF0
aF0
aF0
aF0
aF0
aF0
aF0
aF0
aF0
aF0
aF0
aF0
aF0
aF0
aF0
aF0
aF0
aF0
aF0
aF0
aF0
aF0
aF0
aF0
aF0
aF0
aF0
aF0
aF0
aF0
aF0
aF0
aF0
aF2.4513931272442999
aF2.3583428069769306
aF3.3340247314597273
aF6.3744552823380154
aF1.947108792992071
aF6.209751621744422
aF4.0799583154200807
aF5.7400181708702371
aF3.5112656125825508
aF0.42923565849649653
aF3.6364854191308846
aF6.1322807061129252
aF1.3450783910300754
aF4.1228880303745568
aF2.0416705398491359
aF1.6369284969611764
aF3.5891522491548229
aF4.7575833558841376
aF4.2820913216733461
aF2.5366373220844829
aF5.5746586127014757
aF4.0868347078641776
aF6.0283790787487721
aF1.5024629997037122
aF2.606728843501545
aF5.0233573843193255
aF5.1172711471804133
aF7.321179502651999
aF8.2842133553511861
aF4.3509922045858005
aF6.3782480298884403
aF5.4737252289146223
aF3.9343843978888109
aF3.6231059930331981
aF2.7582541340489288
aF4.1547047138276865
aF2.590839115929608
aF5.9706397184554918
aF5.0946794530508814
aF4.569120405874215
aF5.8875642619725426
aF7.8937383692099097
aF3.6331870591911017
aF6.4342512430351571
aF6.4398258984175616
aF4.2415351417957172
aF6.0404672725662634
aF3.7126728101623967
aF4.5408766117882289
aF6.5444761127979847
aF5.380417772765278
aF5.6584742864253785
aF4.7794803633379015
aF5.1371264064433619
aF2.2481006264619188
aF6.2803309362429438
aF7.8595285745499437
aF4.7621840179260717
aF5.6384185363796746
aF5.5246937140008416
aF5.3865109284994839
aF5.4890547617875942
aF5.222495467302056
aF2.4841690733908353
aF6.7567831330476125
aF3.5920383707109802
aF5.2482425940041821
aF5.0072538181221002
aF4.2399249781380099
aF7.1907333680781536
aF6.4256774918622375
aF4.7564896067599705
aF5.9507320131907573
aF6.4737820420234273
aF5.8817771725482801
aF5.5306669546091927
aF6.4331547590029192
aF5.7232500036110867
aF6.2102933934049025
aF6.5430519327536834
aF4.8014897962893084
aF5.9836799745556855
aF5.1623993856700636
aF4.9427537617496968
aF5.5665807731204806
aF4.3133401899281063
aF7.3038081408608617
aF7.2200396839203478
aF5.8373983450704108
aF6.2015534914084123
aF4.381214143633553
aF6.2283973620269917
aF6.2473845023420695
aF6.5117558158352367
aF3.9142679177657307
aF5.8095867958658474
aF7.8554727552212418
aF6.5943634236572235
aF3.4468649452327984
aF7.5718360557857354
aF7.2390924829419063
aF6.0727425214688742
aF6.0927064078945321
aF6.1002901860592038
aF6.9293886152365571
aF7.0741093430248441
aF5.1271421185828192
aF7.0789193285757239
aF3.5653900172682009
aF6.6447648014678444
aF4.8528677891411069
aF6.1172856946776184
aF6.0108380107675607
aF7.4537068752508908
aF6.5172993179349401
aF7.2148145067635019
aF5.1329428163686917
aF6.5807831570242126
aF6.1791666572896515
aF7.1651481934761092
aF6.4701675217270642
aF6.8396321230319366
aF7.1746461020480998
aF6.7687533491213214
aF5.9581977252816785
aF6.6455431562894827
aF7.7230465377680382
aF6.4619574015266936
aF5.8999755629234576
aF7.456198328625014
aF5.9418199678890069
aF6.5624698788413562
aF6.4523335040584389
aF6.932510053379894
aF5.3927776377852199
aF6.6134624042513854
aF5.8152321331644137
aF7.124079943636354
aF6.4068002468092526
aF6.2522396563369789
aF6.5438237314082963
aF6.3761028096737071
aF6.1103486258921933
aF6.6099839103911533
aF6.5466707090819884
aF7.0107910258612405
aF5.8662923034993586
aF7.1719273543534605
aF6.4371861169867897
aF7.3134544759501647
aF5.3206868433374961
aF6.9456077031813725
aF5.743531124765342
aF6.6886139973107825
aF7.7113778894251119
aF6.8687978667341874
aF7.448446734576561
aF6.6379086999842727
aF5.8964486625824151
aF6.9370618524017917
asS'entroExc'
p6
(lp7
F0
aF0
aF0
aF-2.1441824798872866
aF0
aF0
aF0
aF0
aF0
aF0
aF0
aF0
aF0
aF-0.90336031558765051
aF0
aF0
aF0
aF0
aF-2.2469500580774073
aF0
aF-1.2789126263982127
aF0
aF-0.94811843322869849
aF0
aF0
aF0
aF0
aF0
aF-2.6361583447294503
aF0
aF0
aF0
aF0
aF0
aF0
aF0
aF0
aF0
aF0
aF0
aF2.4513931272442999
aF2.3583428069769306
aF3.3340247314597273
aF6.3744552823380154
aF1.947108792992071
aF6.209751621744422
aF4.0799583154200807
aF5.7400181708702371
aF3.5112656125825508
aF0.42923565849649653
aF3.6364854191308846
aF6.1322807061129252
aF1.3450783910300754
aF3.2841854029594297
aF1.4178984104191565
aF1.6369284969611764
aF3.5891522491548229
aF4.7575833558841376
aF4.2820913216733461
aF2.5366373220844829
aF5.1789695399222602
aF4.0868347078641776
aF6.0283790787487721
aF1.5024629997037122
aF2.606728843501545
aF5.0233573843193255
aF5.1172711471804133
aF7.0007662282291161
aF6.9625952920669487
aF4.3509922045858005
aF6.3782480298884403
aF5.4737252289146223
aF3.9343843978888109
aF3.6231059930331981
aF2.2933145647085973
aF4.1547047138276865
aF2.590839115929608
aF5.9706397184554918
aF5.0946794530508814
aF4.569120405874215
aF4.5564478092342391
aF7.8937383692099097
aF3.6331870591911017
aF6.0463513589214459
aF5.7367672099588569
aF4.2415351417957172
aF6.0404672725662634
aF3.1516023292387372
aF4.5408766117882289
aF6.5444761127979847
aF4.721793703103649
aF5.6584742864253785
aF4.7794803633379015
aF5.1371264064433619
aF2.2481006264619188
aF6.2803309362429438
aF6.468439952653017
aF4.1704058196573577
aF5.399796581887264
aF5.5246937140008416
aF5.3865109284994839
aF5.4890547617875942
aF5.222495467302056
aF2.4841690733908353
aF6.4398042941085363
aF3.5920383707109802
aF5.2482425940041821
aF5.0072538181221002
aF4.0223500566725274
aF7.1907333680781536
aF6.4256774918622375
aF4.7564896067599705
aF5.7527780229419578
aF6.4737820420234273
aF5.7070305191371933
aF5.5306669546091927
aF6.4331547590029192
aF5.7232500036110867
aF5.7497112417076908
aF6.5430519327536834
aF4.4445279317537345
aF5.6809994071757064
aF5.1623993856700636
aF4.9427537617496968
aF5.2287648288755983
aF4.3133401899281063
aF5.7196708291342775
aF6.6823766549497936
aF5.6247267457585304
aF5.975556820823213
aF4.381214143633553
aF6.2283973620269917
aF6.0827536753606335
aF6.349535129648749
aF3.6136848721959001
aF5.5368859404434723
aF6.6469402583845412
aF6.450490408724205
aF3.4468649452327984
aF7.2550191249757621
aF7.1517066342407727
aF6.0727425214688742
aF6.0927064078945321
aF6.1002901860592038
aF6.7368754229082697
aF7.0096830811389488
aF5.1271421185828192
aF6.9903082248009101
aF3.3543534197613858
aF6.3715919675531234
aF4.7487671292078932
aF6.1172856946776184
aF6.0108380107675607
aF7.2931681336539089
aF5.7294630410591356
aF7.1063692595389787
aF5.1329428163686917
aF6.5807831570242126
aF6.1791666572896515
aF7.1651481934761092
aF6.1470950011324401
aF6.7682107960027125
aF6.5226646971374054
aF6.6321707721203502
aF5.9581977252816785
aF6.5699634267734703
aF7.1274372480602564
aF6.3887991433544791
aF5.8999755629234576
aF7.1221446554377801
aF5.8002398615405077
aF6.5624698788413562
aF6.2612242663952831
aF6.8459666888220516
aF5.2987609426589835
aF6.6134624042513854
aF5.8152321331644137
aF7.124079943636354
aF6.4068002468092526
aF6.1809733068478616
aF6.5438237314082963
aF6.3761028096737071
aF5.6900985723117978
aF6.6099839103911533
aF6.272564471515512
aF6.9693231996715745
aF5.6584485794827826
aF7.1071752198243798
aF6.3256742341202568
aF7.1727475164193013
aF5.3206868433374961
aF6.900166417810623
aF5.5406007852819377
aF6.6138513323908956
aF7.0944261079051261
aF6.7888031466384353
aF7.2657275512153827
aF6.4882916592898177
aF5.8370576800180194
aF6.6752937345982062
asS'perpExcOov'
p8
(lp9
F1
aF1
aF1
aF0.22622300000000001
aF1
aF1
aF1
aF1
aF1
aF1
aF1
aF1
aF1
aF0.53464
aF1
aF1
aF1
aF1
aF0.210669
aF1
aF0.41210599999999997
aF1
aF0.51830799999999999
aF1
aF1
aF1
aF1
aF1
aF0.160856
aF1
aF1
aF1
aF1
aF1
aF1
aF1
aF1
aF1
aF1
aF1
aF5.4694399999999996
aF5.1278100000000002
aF10.084199999999999
aF82.966399999999993
aF3.8560099999999999
aF74.015299999999996
aF16.911799999999999
aF53.446300000000001
aF11.4024
aF1.3465199999999999
aF12.436299999999999
aF70.145600000000002
aF2.5404399999999998
aF9.7417800000000003
aF2.6719599999999999
aF3.1100300000000001
aF12.0349
aF27.0505
aF19.455300000000001
aF5.8023499999999997
aF36.226399999999998
aF16.992599999999999
aF65.2714
aF2.8332600000000001
aF6.0912100000000002
aF32.522300000000001
aF34.709800000000001
aF128.06800000000001
aF124.724
aF20.407
aF83.184799999999996
aF44.438099999999999
aF15.288600000000001
aF12.3215
aF4.9018100000000002
aF17.8111
aF6.0244900000000001
aF62.710700000000003
aF34.170499999999997
aF23.7379
aF23.5303
aF237.822
aF12.4079
aF66.089600000000004
aF53.326000000000001
aF18.916
aF65.820599999999999
aF8.8864199999999993
aF23.277699999999999
aF93.343400000000003
aF26.387699999999999
aF50.5092
aF27.464200000000002
aF35.190800000000003
aF4.7505699999999997
aF77.726299999999995
aF88.551199999999994
aF18.006
aF42.218299999999999
aF46.036099999999998
aF41.831299999999999
aF44.912799999999997
aF37.335999999999999
aF5.5951199999999996
aF86.810900000000004
aF12.058999999999999
aF38.008299999999998
aF32.161299999999997
aF16.2498
aF146.09200000000001
aF85.965000000000003
aF27.030000000000001
aF53.921100000000003
aF88.8797
aF52.238100000000003
aF46.2271
aF86.411699999999996
aF52.828699999999998
aF53.806600000000003
aF93.251300000000001
aF21.773900000000001
aF51.304000000000002
aF35.8127
aF30.755099999999999
aF37.498600000000003
aF19.8813
aF52.697800000000001
aF102.706
aF49.3414
aF62.924799999999998
aF20.838999999999999
aF74.978099999999998
aF67.778400000000005
aF81.545599999999993
aF12.241300000000001
aF46.4268
aF100.214
aF87.456299999999999
aF10.9046
aF152.749
aF142.19300000000001
aF67.309700000000007
aF68.247600000000006
aF68.607299999999995
aF106.66
aF128.86199999999999
aF34.948099999999997
aF127.143
aF10.2273
aF82.801900000000003
aF26.8857
aF69.420299999999997
aF64.482600000000005
aF156.84200000000001
aF53.056699999999999
aF137.79400000000001
aF35.088900000000002
aF95.722300000000004
aF72.462699999999998
aF143.524
aF70.869600000000005
aF109.002
aF91.942800000000005
aF99.193299999999994
aF62.172199999999997
aF95.007099999999994
aF139.821
aF83.795400000000001
aF59.713099999999997
aF139.309
aF55.724499999999999
aF94.514899999999997
aF76.703699999999998
aF115.038
aF39.3628
aF97.915300000000002
aF56.306600000000003
aF139.49600000000001
aF84.847499999999997
aF72.5535
aF93.301199999999994
aF83.061199999999999
aF51.628599999999999
aF97.679500000000004
aF77.308999999999997
aF125.307
aF50.508299999999998
aF137.87100000000001
aF80.207999999999998
aF144.28200000000001
aF39.965600000000002
aF119.44199999999999
aF46.546500000000002
aF97.941699999999997
aF136.65799999999999
aF110.569
aF153.887
aF89.778099999999995
aF57.164900000000003
aF102.203
asS'normalExc'
p10
(lp11
F0
aF0
aF0
aF-0.43767941592827558
aF0
aF0
aF0
aF0
aF0
aF0
aF0
aF0
aF0
aF-0.16224830232012266
aF0
aF0
aF0
aF0
aF-0.45865675998388966
aF0
aF-0.29340267874147352
aF0
aF-0.17310195102193793
aF0
aF0
aF0
aF0
aF0
aF-0.48129446352126659
aF0
aF0
aF0
aF0
aF0
aF0
aF0
aF0
aF0
aF0
aF0
aF0.4333491759071354
aF0.54104094578097306
aF0.48122501904828585
aF1.0207297558738719
aF0.25349197332082413
aF1.2948227208480081
aF0.51402643152912175
aF0.74728671467573682
aF0.59351221439121482
aF0.04923670679869379
aF0.6428458748883632
aF1.3074066394369641
aF0.18652881186067458
aF0.46445395382129734
aF0.2137562281000768
aF0.25882112086166653
aF0.54108506026848757
aF1.1893958389710344
aF0.68568337776433841
aF0.37813956576292879
aF0.76359739983276564
aF0.64618530487398262
aF0.79847831504567079
aF0.2504104999506187
aF0.6144118806515031
aF1.1524372208177236
aF0.63471936856153688
aF0.94398312564187603
aF0.83819797392644002
aF0.62801163013989381
aF0.92062080425357284
aF1.0734858367031075
aF0.58009333189003343
aF0.47989211208487481
aF0.30645704932993534
aF0.75854183051215651
aF0.38621949213227075
aF0.70858457055466895
aF0.69329805905646369
aF0.62177853154056673
aF0.62587624067918368
aF1.0364986271888768
aF0.34484685472957421
aF0.79392482875651105
aF0.64543673783538535
aF0.70692252363261954
aF0.70219005734514639
aF0.47512192793159169
aF0.45408766117882288
aF0.74101600030290538
aF0.55646872447142171
aF0.84351554355878411
aF0.51840743167708403
aF0.43730124028181333
aF0.39741179944023708
aF0.50608348901035805
aF0.68953801580443697
aF0.63598092520452143
aF0.55111443085202161
aF0.64223259903541907
aF0.54691732147022809
aF0.62151306459341271
aF0.55991028536281007
aF0.30348955538327593
aF0.77526133365165584
aF0.37863408980556518
aF0.69514671334855194
aF0.79171634439201688
aF0.35833942385093676
aF0.73390115117484056
aF0.58658141825769428
aF0.5768090898771755
aF0.60639604752856568
aF0.66771963417915992
aF0.47558587659476609
aF0.65636940993090465
aF0.60787598706833512
aF0.63202723200664324
aF0.59621728162993681
aF0.94440819867426007
aF0.39438807915234136
aF0.4519560459776637
aF0.52416224191282501
aF0.66050325441626567
aF0.43422528425633261
aF0.44253936600451044
aF0.4733633259058716
aF0.52828826031946086
aF0.61739396889240428
aF0.55244042351094036
aF0.37707487587691424
aF0.76666271770364514
aF0.5355565986426789
aF0.6349535129648749
aF0.40402225117463358
aF0.63934451763745848
aF0.58523045747869451
aF0.54131313028729433
aF0.35551697374977603
aF0.68249478913868045
aF0.50444249203685809
aF0.52856439167989788
aF0.60927064078945325
aF0.44850225438060815
aF0.66060498542409452
aF0.41965874896664496
aF0.37493376459003702
aF0.52248016763686889
aF0.3127950692464832
aF0.54635950377036735
aF0.32016181453819265
aF0.49781764973345605
aF0.54197901132139015
aF0.45942640836736481
aF0.41565893621714856
aF0.56715001022219469
aF0.39252594771095051
aF0.56223424839771174
aF0.4684414153839277
aF0.54475612953109498
aF0.38646455156507309
aF0.40666237417204937
aF0.44484204017116008
aF0.3984885213235097
aF0.38784563663142185
aF0.39193115920485566
aF0.41219033872056138
aF0.41944521288556391
aF0.54313677494477075
aF0.38344337863279898
aF0.35630590234099674
aF0.3866972460550987
aF0.44609375829337766
aF0.43826810748065725
aF0.37098747090154288
aF0.31967377125607382
aF0.36345200832277585
aF0.41619319419217216
aF0.49876872275947881
aF0.39569626857865736
aF0.47225979910725518
aF0.36935771860585409
aF0.35356552184011442
aF0.3874841191541486
aF0.35119618720893014
aF0.33074944199758327
aF0.37149534924602423
aF0.39242810280326956
aF0.36280229916170059
aF0.36795418384093787
aF0.37070981824602856
aF0.37311826744533411
aF0.33170709248344948
aF0.40028849233412134
aF0.453246258246432
aF0.34244981862954676
aF0.32364122812252355
aF0.33914843799516803
aF0.33152259865489508
aF0.35329400887015677
asS'normalInc'
p12
(lp13
F0
aF0
aF0
aF0
aF0
aF0
aF0
aF0
aF0
aF0
aF0
aF0
aF0
aF0
aF0
aF0
aF0
aF0
aF0
aF0
aF0
aF0
aF0
aF0
aF0
aF0
aF0
aF0
aF0
aF0
aF0
aF0
aF0
aF0
aF0
aF0
aF0
aF0
aF0
aF0
aF0.4333491759071354
aF0.54104094578097306
aF0.48122501904828585
aF1.0207297558738719
aF0.25349197332082413
aF1.2948227208480081
aF0.51402643152912175
aF0.74728671467573682
aF0.59351221439121482
aF0.04923670679869379
aF0.6428458748883632
aF1.3074066394369641
aF0.18652881186067458
aF0.58306441687013955
aF0.30779341482736078
aF0.25882112086166653
aF0.54108506026848757
aF1.1893958389710344
aF0.68568337776433841
aF0.37813956576292879
aF0.82193857075245069
aF0.64618530487398262
aF0.79847831504567079
aF0.2504104999506187
aF0.6144118806515031
aF1.1524372208177236
aF0.63471936856153688
aF0.98718764275133697
aF0.99730209192847497
aF0.62801163013989381
aF0.92062080425357284
aF1.0734858367031075
aF0.58009333189003343
aF0.47989211208487481
aF0.36858721268799771
aF0.75854183051215651
aF0.38621949213227075
aF0.70858457055466895
aF0.69329805905646369
aF0.62177853154056673
aF0.80871914730869554
aF1.0364986271888768
aF0.34484685472957421
aF0.84485857884618221
aF0.72453702023796607
aF0.70692252363261954
aF0.70219005734514639
aF0.55970648548468416
aF0.45408766117882288
aF0.74101600030290538
aF0.63408831545649147
aF0.84351554355878411
aF0.51840743167708403
aF0.43730124028181333
aF0.39741179944023708
aF0.50608348901035805
aF0.8378285611557188
aF0.72622625439450494
aF0.57546868209918978
aF0.64223259903541907
aF0.54691732147022809
aF0.62151306459341271
aF0.55991028536281007
aF0.30348955538327593
aF0.81342110158747316
aF0.37863408980556518
aF0.69514671334855194
aF0.79171634439201688
aF0.37772253842422443
aF0.73390115117484056
aF0.58658141825769428
aF0.5768090898771755
aF0.62726223023206462
aF0.66771963417915992
aF0.49014809771235668
aF0.65636940993090465
aF0.60787598706833512
aF0.63202723200664324
aF0.64397742590643769
aF0.94440819867426007
aF0.42606332256323681
aF0.47603601899342224
aF0.52416224191282501
aF0.66050325441626567
aF0.46227937144839309
aF0.44253936600451044
aF0.6044674626598362
aF0.57079425494976199
aF0.64073770961169674
aF0.57333382309758352
aF0.37707487587691424
aF0.76666271770364514
aF0.5500515347251731
aF0.65117558158352362
aF0.4376284573135365
aF0.67083330009472841
aF0.69163581069507873
aF0.55338668549666736
aF0.35551697374977603
aF0.7122984189656989
aF0.51060621456380084
aF0.52856439167989788
aF0.60927064078945325
aF0.44850225438060815
aF0.67948245704536336
aF0.42351584837480238
aF0.37493376459003702
aF0.52910327249374678
aF0.33247433343546129
aF0.5697838810282394
aF0.32718027959912321
aF0.49781764973345605
aF0.54197901132139015
aF0.46953939851157611
aF0.47281458700199774
aF0.57580488317146872
aF0.39252594771095051
aF0.56223424839771174
aF0.4684414153839277
aF0.54475612953109498
aF0.40677594691061397
aF0.4109536658134646
aF0.48930680293007012
aF0.40669497302955809
aF0.38784563663142185
aF0.39643986786537672
aF0.44663531330614303
aF0.42424828784297597
aF0.54313677494477075
aF0.401428223828805
aF0.36500309913806817
aF0.3866972460550987
aF0.45970972770231577
aF0.44380847866909789
aF0.37756995618911299
aF0.31967377125607382
aF0.36345200832277585
aF0.41619319419217216
aF0.49876872275947881
aF0.40025862909505427
aF0.47225979910725518
aF0.36935771860585409
aF0.37967858958563866
aF0.3874841191541486
aF0.36654319017090581
aF0.33271741793730308
aF0.38514095824247285
aF0.39600344131959464
aF0.36919794427247904
aF0.37517229856425727
aF0.37070981824602856
aF0.3755754507422846
aF0.34385621412122042
aF0.4048133346566421
aF0.49266186174124016
aF0.3464850184720516
aF0.33178018743357895
aF0.34696904599393635
aF0.33489577979439605
aF0.3671482468123603
as.