(dp1
S'perpIncOov'
p2
(lp3
F1
aF1
aF1
aF1
aF1
aF1
aF1
aF1
aF1
aF1
aF1
aF1
aF1
aF1
aF1
aF1
aF1
aF1
aF1
aF1
aF1
aF1
aF1
aF1
aF1
aF1
aF1
aF1
aF1
aF1
aF1
aF1
aF1
aF1
aF1
aF1
aF1
aF1
aF1
aF1
aF5.5145999999999997
aF5.1624400000000001
aF10.1211
aF82.505300000000005
aF3.7939699999999998
aF73.775499999999994
aF16.801500000000001
aF56.485399999999998
aF11.372199999999999
aF1.3465199999999999
aF12.1286
aF69.370900000000006
aF2.5408200000000001
aF17.319099999999999
aF4.1284400000000003
aF3.0977299999999999
aF11.9129
aF27.168900000000001
aF19.438199999999998
aF5.87873
aF46.981200000000001
aF17.006399999999999
aF64.462199999999996
aF2.8239200000000002
aF6.0906799999999999
aF31.8734
aF34.857500000000002
aF162.07499999999999
aF312.41699999999997
aF20.115600000000001
aF83.195999999999998
aF44.1419
aF15.552300000000001
aF11.567399999999999
aF6.7636599999999998
aF17.1157
aF5.6155799999999996
aF62.521000000000001
aF34.067
aF23.229700000000001
aF59.383800000000001
aF233.68199999999999
aF12.679
aF85.556299999999993
aF85.903000000000006
aF18.833100000000002
aF65.580299999999994
aF13.070399999999999
aF23.0929
aF93.957800000000006
aF41.515000000000001
aF50.406799999999997
aF27.315100000000001
aF35.382399999999997
aF4.7501499999999997
aF76.023799999999994
aF235.71299999999999
aF27.1586
aF49.860199999999999
aF44.867600000000003
aF42.592700000000001
aF43.908799999999999
aF37.340200000000003
aF5.6690100000000001
aF106.538
aF12.125400000000001
aF37.979300000000002
aF34.007300000000001
aF17.847100000000001
aF142.68899999999999
aF84.4452
aF26.826000000000001
aF62.5702
aF87.556399999999996
aF58.637999999999998
aF45.5411
aF85.241399999999999
aF52.251800000000003
aF74.310400000000001
aF92.452799999999996
aF27.603200000000001
aF62.338700000000003
aF35.648299999999999
aF30.367000000000001
aF47.721299999999999
aF19.806100000000001
aF156.988
aF148.62700000000001
aF57.255299999999998
aF73.706100000000006
aF19.637499999999999
aF74.144900000000007
aF76.040499999999994
aF92.031099999999995
aF15.1013
aF54.855899999999998
aF229.43700000000001
aF96.528800000000004
aF10.9232
aF190.54900000000001
aF151.03899999999999
aF67.1845
aF67.191800000000001
aF67.400499999999994
aF121.166
aF132.78299999999999
aF35.078499999999998
aF134.328
aF9.9510500000000004
aF99.149000000000001
aF29.107099999999999
aF69.077699999999993
aF64.419600000000003
aF173.447
aF91.5471
aF148.33000000000001
aF35.430999999999997
aF94.137100000000004
aF71.522900000000007
aF141.27000000000001
aF88.153099999999995
aF113.456
aF144.47499999999999
aF107.16800000000001
aF61.045299999999997
aF99.7744
aF207.721
aF88.096199999999996
aF59.684100000000001
aF174.22499999999999
aF62.311500000000002
aF94.897300000000001
aF88.5959
aF120.601
aF41.570500000000003
aF97.6096
aF55.891599999999997
aF140.72
aF84.4131
aF75.045900000000003
aF91.605800000000002
aF82.356499999999997
aF68.9833
aF95.463300000000004
aF92.663799999999995
aF125.92400000000001
aF57.876199999999997
aF144.08600000000001
aF83.227900000000005
aF158.33600000000001
aF39.660600000000002
aF122.253
aF52.691400000000002
aF102.911
aF207.619
aF115.51600000000001
aF172.577
aF98.966300000000004
aF59.222499999999997
aF121.893
asS'entroInc'
p4
(lp5
F0
aF0
aF0
aF0
aF0
aF0
aF0
aF0
aF0
aF0
aF0
aF0
aF0
aF0
aF0
aF0
aF0
aF0
aF0
aF0
aF0
aF0
aF0
aF0
aF0
aF0
aF0
aF0
aF0
aF0
aF0
aF0
aF0
aF0
aF0
aF0
aF0
aF0
aF0
aF0
aF2.4632562441221979
aF2.3680531090346535
aF3.3392941910760237
aF6.3664148934957465
aF1.923708270994422
aF6.2050698881803754
aF4.0705181341984238
aF5.8198061116271349
aF3.507439471550696
aF0.42923565849649653
aF3.6003411251789594
aF6.1162586967407258
aF1.3452941737755204
aF4.1142920561718013
aF2.0455967382005458
aF1.6312114034443701
aF3.5744527512746647
aF4.7638842505587471
aF4.2808227247721256
aF2.555504518905515
aF5.5540116582148915
aF4.0880058712900205
aF6.0103815211831844
aF1.4976992184822933
aF2.6066033082402424
aF4.9942810174078316
aF5.1233971971410419
aF7.3405177626933007
aF8.2873291488513008
aF4.3302428656182324
aF6.3784422612478568
aF5.4640768237704949
aF3.9590560484407269
aF3.5319927217674296
aF2.7578041392507804
aF4.0972483919606235
aF2.4894350377478842
aF5.9662689487768139
aF5.0903030016498736
aF4.5378986174668423
aF5.8919975099658206
aF7.8684028006140831
aF3.6643690586665376
aF6.4188021874058219
aF6.424636610529876
aF4.2351985874854545
aF6.035190596306081
aF3.7082313882155029
aF4.5293774526207153
aF6.5539410282646324
aF5.3755607931694591
aF5.6555464648135425
aF4.7716267996087911
aF5.1449600047208577
aF2.2479730715150161
aF6.2483792340590902
aF7.8808875178084348
aF4.7633372068295419
aF5.6398167646888879
aF5.4876021101763826
aF5.4125342817642199
aF5.4564382019387985
aF5.2226577497743341
aF2.5030968140396261
aF6.7352242928395052
aF3.599960435465293
aF5.2471414101737404
aF5.0877725631136972
aF4.1576177626701876
aF7.1567303104529039
aF6.3999435151549378
aF4.7455600466017112
aF5.9674038103765401
aF6.4521407322646178
aF5.8737639923685006
aF5.5090972336473403
aF6.4134823829454595
aF5.7074088317238338
aF6.2154922299909803
aF6.5306451082425623
aF4.7867636211850515
aF5.96205616446231
aF5.1557613737992165
aF4.9244324844956484
aF5.5765614396390104
aF4.3078729233944939
aF7.2945104749926308
aF7.215552413509613
aF5.8393373414559973
aF6.2037121182181858
aF4.2955393704068339
aF6.2122755563096668
aF6.2486961132645273
aF6.5240495672944485
aF3.9166008446247491
aF5.7775748922337549
aF7.8419542551134676
aF6.5928875390117163
aF3.4493236569907801
aF7.5740182266898204
aF7.2387773078139652
aF6.0700565250274829
aF6.0702132740049262
aF6.0746873887402657
aF6.9208411153772014
aF7.0529266422906698
aF5.132515152566552
aF7.0696162484547216
aF3.3148487618241611
aF6.6315263166373386
aF4.8632992028457149
aF6.1101481428116031
aF6.0094277975235206
aF7.4383510772566019
aF6.5164422803978539
aF7.2126666046550492
aF5.1469402793580254
aF6.556691504744129
aF6.1603333287631514
aF7.1423113182459597
aF6.4619393992710297
aF6.8259890961966549
aF7.1746760596882408
aF6.7437303760446285
aF5.9318083183930135
aF6.6405977929072737
aF7.698503265679757
aF6.4610078852090895
aF5.8992747398386864
aF7.444807844642602
aF5.9614265416340269
aF6.5682951354317058
aF6.4691680308399748
aF6.9140980596085733
aF5.3774881953438101
aF6.608951140127326
aF5.8045595702821515
aF7.1366835776972364
aF6.3993950018586379
aF6.2297013497947011
aF6.5173670400036237
aF6.3638106142706263
aF6.108175240499091
aF6.5768743035941153
aF6.5339339411776569
aF6.9764094639451795
aF5.8548982962814256
aF7.1707863537968324
aF6.37899533051697
aF7.3068455003142834
aF5.3096345982351831
aF6.9337260580771263
aF5.7194956072278007
aF6.6852533877235985
aF7.6977946659921326
aF6.8519488814331231
aF7.4310963935906225
aF6.6288654372535678
aF5.888073488163287
aF6.9294714678636415
asS'entroExc'
p6
(lp7
F0
aF0
aF0
aF-2.1441824798872866
aF0
aF0
aF0
aF0
aF0
aF0
aF0
aF0
aF0
aF-0.89891743281468484
aF0
aF0
aF0
aF0
aF-2.2317521450971554
aF0
aF-1.2789126263982127
aF0
aF-0.94353022707342804
aF0
aF0
aF0
aF0
aF0
aF-2.637818538815905
aF0
aF0
aF0
aF0
aF0
aF0
aF0
aF0
aF0
aF0
aF0
aF2.4632562441221979
aF2.3680531090346535
aF3.3392941910760237
aF6.3664148934957465
aF1.923708270994422
aF6.2050698881803754
aF4.0705181341984238
aF5.8198061116271349
aF3.507439471550696
aF0.42923565849649653
aF3.6003411251789594
aF6.1162586967407258
aF1.3452941737755204
aF3.2752335686063385
aF1.4248844755591756
aF1.6312114034443701
aF3.5744527512746647
aF4.7638842505587471
aF4.2808227247721256
aF2.555504518905515
aF5.1578844980801462
aF4.0880058712900205
aF6.0103815211831844
aF1.4976992184822933
aF2.6066033082402424
aF4.9942810174078316
aF5.1233971971410419
aF7.020457752655596
aF6.9659573976804205
aF4.3302428656182324
aF6.3784422612478568
aF5.4640768237704949
aF3.9590560484407269
aF3.5319927217674296
aF2.2928641865891377
aF4.0972483919606235
aF2.4894350377478842
aF5.9662689487768139
aF5.0903030016498736
aF4.5378986174668423
aF4.5609594583375994
aF7.8684028006140831
aF3.6643690586665376
aF6.0306450680851826
aF5.7227447000055154
aF4.2351985874854545
aF6.035190596306081
aF3.1470673152970168
aF4.5293774526207153
aF6.5539410282646324
aF4.7198241308469067
aF5.6555464648135425
aF4.7716267996087911
aF5.1449600047208577
aF2.2479730715150161
aF6.2483792340590902
aF6.4881630970392932
aF4.1708544387932296
aF5.4011969649786575
aF5.4876021101763826
aF5.4125342817642199
aF5.4564382019387985
aF5.2226577497743341
aF2.5030968140396261
aF6.4179402550740914
aF3.599960435465293
aF5.2471414101737404
aF5.0877725631136972
aF3.9394052577044292
aF7.1567303104529039
aF6.3999435151549378
aF4.7455600466017112
aF5.7696289434507708
aF6.4521407322646178
aF5.6990185186261968
aF5.5090972336473403
aF6.4134823829454595
aF5.7074088317238338
aF5.755947760488902
aF6.5306451082425623
aF4.4298034019607755
aF5.6593737409574469
aF5.1557613737992165
aF4.9244324844956484
aF5.2387448313122054
aF4.3078729233944939
aF5.7076876701911026
aF6.6777619177993355
aF5.6266873523443053
aF5.977714956407409
aF4.2955393704068339
aF6.2122755563096668
aF6.084653216678273
aF6.3619455277706995
aF3.6160282769608059
aF5.5032469541493736
aF6.6336564322302261
aF6.4499409812568915
aF3.4493236569907801
aF7.2584152791032324
aF7.1513920728900349
aF6.0700565250274829
aF6.0702132740049262
aF6.0746873887402657
aF6.7294847941521763
aF6.9884347494470518
aF5.132515152566552
aF6.9809506869953486
aF3.1017862046885525
aF6.3581729335977553
aF4.7590226394096602
aF6.1101481428116031
aF6.0094277975235206
aF7.2772874001303567
aF5.7297240565304346
aF7.1042003522453703
aF5.1469402793580254
aF6.556691504744129
aF6.1603333287631514
aF7.1423113182459597
aF6.1293201143404827
aF6.7549943645049781
aF6.5254237126472443
aF6.6091979493180713
aF5.9318083183930135
aF6.5654661819708444
aF7.1033507610039415
aF6.3878450129655784
aF5.8992747398386864
aF7.1109478206765253
aF5.8204853429863785
aF6.5682951354317058
aF6.2782208391538497
aF6.8274760897941897
aF5.2834032568969977
aF6.608951140127326
aF5.8045595702821515
aF7.1366835776972364
aF6.3993950018586379
aF6.158347126643406
aF6.5173670400036237
aF6.3638106142706263
aF5.6873350879300579
aF6.5768743035941153
aF6.2623091190136524
aF6.9348702911920279
aF5.6468106872822323
aF7.1064216082938829
aF6.2671218814747487
aF7.1660927668139554
aF5.3096345982351831
aF6.8882440022162035
aF5.5167905133029365
aF6.6114232360534242
aF7.0807216111762195
aF6.7718723766335778
aF7.2484779104953754
aF6.4791771965443115
aF5.8286569667237105
aF6.6680340040758903
asS'perpExcOov'
p8
(lp9
F1
aF1
aF1
aF0.22622300000000001
aF1
aF1
aF1
aF1
aF1
aF1
aF1
aF1
aF1
aF0.53628900000000002
aF1
aF1
aF1
aF1
aF0.21290000000000001
aF1
aF0.41210599999999997
aF1
aF0.51995899999999995
aF1
aF1
aF1
aF1
aF1
aF0.16067100000000001
aF1
aF1
aF1
aF1
aF1
aF1
aF1
aF1
aF1
aF1
aF1
aF5.5145999999999997
aF5.1624400000000001
aF10.1211
aF82.505300000000005
aF3.7939699999999998
aF73.775499999999994
aF16.801500000000001
aF56.485399999999998
aF11.372199999999999
aF1.3465199999999999
aF12.1286
aF69.370900000000006
aF2.5408200000000001
aF9.6815200000000008
aF2.68493
aF3.0977299999999999
aF11.9129
aF27.168900000000001
aF19.438199999999998
aF5.87873
aF35.700800000000001
aF17.006399999999999
aF64.462199999999996
aF2.8239200000000002
aF6.0906799999999999
aF31.8734
aF34.857500000000002
aF129.828
aF125.015
aF20.115600000000001
aF83.195999999999998
aF44.1419
aF15.552300000000001
aF11.567399999999999
aF4.9002800000000004
aF17.1157
aF5.6155799999999996
aF62.521000000000001
aF34.067
aF23.229700000000001
aF23.603999999999999
aF233.68199999999999
aF12.679
aF65.373999999999995
aF52.810200000000002
aF18.833100000000002
aF65.580299999999994
aF8.85853
aF23.0929
aF93.957800000000006
aF26.351700000000001
aF50.406799999999997
aF27.315100000000001
aF35.382399999999997
aF4.7501499999999997
aF76.023799999999994
aF89.770099999999999
aF18.011600000000001
aF42.259300000000003
aF44.867600000000003
aF42.592700000000001
aF43.908799999999999
aF37.340200000000003
aF5.6690100000000001
aF85.505200000000002
aF12.125400000000001
aF37.979300000000002
aF34.007300000000001
aF15.341900000000001
aF142.68899999999999
aF84.4452
aF26.826000000000001
aF54.554600000000001
aF87.556399999999996
aF51.948799999999999
aF45.5411
aF85.241399999999999
aF52.251800000000003
aF54.039700000000003
aF92.452799999999996
aF21.552800000000001
aF50.540700000000001
aF35.648299999999999
aF30.367000000000001
aF37.758899999999997
aF19.806100000000001
aF52.261899999999997
aF102.378
aF49.408499999999997
aF63.018999999999998
aF19.637499999999999
aF74.144900000000007
aF67.867699999999999
aF82.250100000000003
aF12.261200000000001
aF45.3568
aF99.295500000000004
aF87.423000000000002
aF10.9232
aF153.10900000000001
aF142.16200000000001
aF67.1845
aF67.191800000000001
aF67.400499999999994
aF106.11499999999999
aF126.97799999999999
aF35.078499999999998
aF126.321
aF8.5848099999999992
aF82.035300000000007
aF27.077500000000001
aF69.077699999999993
aF64.419600000000003
aF155.125
aF53.066299999999998
aF137.58699999999999
aF35.430999999999997
aF94.137100000000004
aF71.522900000000007
aF141.27000000000001
aF70.001800000000003
aF108.008
aF92.118799999999993
aF97.626300000000001
aF61.045299999999997
aF94.711399999999998
aF137.506
aF83.739999999999995
aF59.684100000000001
aF138.232
aF56.512
aF94.897300000000001
aF77.612700000000004
aF113.57299999999999
aF38.945999999999998
aF97.6096
aF55.891599999999997
aF140.72
aF84.4131
aF71.424499999999995
aF91.605800000000002
aF82.356499999999997
aF51.529800000000002
aF95.463300000000004
aF76.761399999999995
aF122.34999999999999
aF50.102499999999999
aF137.79900000000001
aF77.017899999999997
aF143.61799999999999
aF39.660600000000002
aF118.459
aF45.784599999999998
aF97.777000000000001
aF135.36600000000001
aF109.279
aF152.05799999999999
aF89.212699999999998
aF56.832999999999998
aF101.69
asS'normalExc'
p10
(lp11
F0
aF0
aF0
aF-0.08934093666197028
aF0
aF0
aF0
aF0
aF0
aF0
aF0
aF0
aF0
aF-0.028997336542409189
aF0
aF0
aF0
aF0
aF-0.092989672712381469
aF0
aF-0.067311190863063822
aF0
aF-0.031451007569114266
aF0
aF0
aF0
aF0
aF0
aF-0.087927284627196831
aF0
aF0
aF0
aF0
aF0
aF0
aF0
aF0
aF0
aF0
aF0
aF0.076976757628818684
aF0.12463437415971861
aF0.069568628980750488
aF0.16324140752553196
aF0.032605224932108851
aF0.26978564731219024
aF0.06461139895553053
aF0.09864078155300228
aF0.10021255633001988
aF0.0056478376117960073
aF0.11251066016184248
aF0.27801175894276026
aF0.025871041803375391
aF0.065504671372126774
aF0.032383738080890352
aF0.040780285086109251
aF0.081237562528969645
aF0.29774276565992169
aF0.10976468525056732
aF0.056788989309011446
aF0.11212792387130753
aF0.10220014678225051
aF0.10544528984531902
aF0.041602756068952591
aF0.14481129490223568
aF0.26285689565304377
aF0.078821495340631417
aF0.12764468641191992
aF0.10095590431420899
aF0.090213393033713174
aF0.13288421377599702
aF0.21015680091424979
aF0.086066435835667976
aF0.061964784592411046
aF0.040944003331948885
aF0.13657494639868745
aF0.055320778616619652
aF0.084031957025025542
aF0.094264870400923587
aF0.084035159582719302
aF0.086055838836558485
aF0.13566211725196695
aF0.033012333861860699
aF0.10397663910491695
aF0.072439806329183745
aF0.11764440520792929
aF0.081556629679811907
aF0.071524257165841293
aF0.045293774526207156
aF0.084024884977751693
aF0.065553112928429261
aF0.12567881032918984
aF0.056136785877750485
aF0.037282318874788827
aF0.070249158484844254
aF0.040573891130253829
aF0.073729126102719242
aF0.096996614855656499
aF0.056262468385194352
aF0.074156785272653819
aF0.055799322492414635
aF0.069954335922292291
aF0.060030548847980848
aF0.037359653940889942
aF0.093013626885131762
aF0.03999956039405881
aF0.092055112459188432
aF0.12719431407784243
aF0.031265121092892298
aF0.074549274067217744
aF0.053332862626291146
aF0.069787647744142811
aF0.064106988260564116
aF0.068639795024091677
aF0.039576517490459699
aF0.077592918783765355
aF0.057263235562013029
aF0.069602546728339432
aF0.061891911403106473
aF0.13605510642172006
aF0.034880341747722643
aF0.0358188211453003
aF0.053152179111332132
aF0.08793629436599372
aF0.036129274698704868
aF0.045346030772573619
aF0.039093751165692484
aF0.041736011986245845
aF0.067791413883666329
aF0.051091580823994946
aF0.031818810151161732
aF0.094125387216813128
aF0.047167854392854827
aF0.063619455277707002
aF0.045200353462010075
aF0.073376626055324981
aF0.051423693273102526
aF0.045422119586316138
aF0.03669493252117851
aF0.064233763531887006
aF0.035579065039253906
aF0.045985276704753657
aF0.060702132740049264
aF0.032836148047244683
aF0.064706584559155539
aF0.02504815322382456
aF0.027446605093938779
aF0.0389997245083539
aF0.0269720539538135
aF0.046751271570571733
aF0.021631921088225727
aF0.040464557237162933
aF0.048857136565231878
aF0.028878124603691893
aF0.03015644240279176
aF0.045249683772263502
aF0.030099065961158043
aF0.047859062078424303
aF0.035404214533121557
aF0.041285036521652947
aF0.024226561716760801
aF0.024386261243700282
aF0.030350807965801137
aF0.023859920394650076
aF0.025134781010139887
aF0.023364648334415816
aF0.023757025956534922
aF0.027533814711058528
aF0.049993853727446497
aF0.020611442958482683
aF0.021964095633910861
aF0.022806580331360089
aF0.031869141315501774
aF0.027981459384402416
aF0.0258990355730245
aF0.015441474626465715
aF0.022674060821414654
aF0.02435728183514415
aF0.038784212132476591
aF0.02523912756821068
aF0.033944620000018876
aF0.021355069175404785
aF0.021958822733320688
aF0.02260094262403476
aF0.019631063069008314
aF0.015619077232414477
aF0.024339701238285483
aF0.02166591953748135
aF0.020615532504851146
aF0.018858138860036726
aF0.025774925234151376
aF0.020141064333965508
aF0.019773442700010524
aF0.024217667531331224
aF0.028900904535413139
aF0.017231227421459487
aF0.014381900616062253
aF0.01770266993591342
aF0.018802119247495839
aF0.018677966397971681
asS'normalInc'
p12
(lp13
F0
aF0
aF0
aF0
aF0
aF0
aF0
aF0
aF0
aF0
aF0
aF0
aF0
aF0
aF0
aF0
aF0
aF0
aF0
aF0
aF0
aF0
aF0
aF0
aF0
aF0
aF0
aF0
aF0
aF0
aF0
aF0
aF0
aF0
aF0
aF0
aF0
aF0
aF0
aF0
aF0.076976757628818684
aF0.12463437415971861
aF0.069568628980750488
aF0.16324140752553196
aF0.032605224932108851
aF0.26978564731219024
aF0.06461139895553053
aF0.09864078155300228
aF0.10021255633001988
aF0.0056478376117960073
aF0.11251066016184248
aF0.27801175894276026
aF0.025871041803375391
aF0.082285841123436024
aF0.046490834959103312
aF0.040780285086109251
aF0.081237562528969645
aF0.29774276565992169
aF0.10976468525056732
aF0.056788989309011446
aF0.12073938387423677
aF0.10220014678225051
aF0.10544528984531902
aF0.041602756068952591
aF0.14481129490223568
aF0.26285689565304377
aF0.078821495340631417
aF0.13346395932169638
aF0.12010621954856958
aF0.090213393033713174
aF0.13288421377599702
aF0.21015680091424979
aF0.086066435835667976
aF0.061964784592411046
aF0.049246502486621081
aF0.13657494639868745
aF0.055320778616619652
aF0.084031957025025542
aF0.094264870400923587
aF0.084035159582719302
aF0.11116976433897775
aF0.13566211725196695
aF0.033012333861860699
aF0.11066900323113486
aF0.081324514057340203
aF0.11764440520792929
aF0.081556629679811907
aF0.084277986095806889
aF0.045293774526207156
aF0.084024884977751693
aF0.074660566571798037
aF0.12567881032918984
aF0.056136785877750485
aF0.037282318874788827
aF0.070249158484844254
aF0.040573891130253829
aF0.089555539975095855
aF0.11077528387975678
aF0.058748091298842585
aF0.074156785272653819
aF0.055799322492414635
aF0.069954335922292291
aF0.060030548847980848
aF0.037359653940889942
aF0.097611946273036307
aF0.03999956039405881
aF0.092055112459188432
aF0.12719431407784243
aF0.032996966370398312
aF0.074549274067217744
aF0.053332862626291146
aF0.069787647744142811
aF0.066304486781961561
aF0.068639795024091677
aF0.040790027724781255
aF0.077592918783765355
aF0.057263235562013029
aF0.069602546728339432
aF0.066833249784849252
aF0.13605510642172006
aF0.037691052135315366
aF0.037734532686470319
aF0.053152179111332132
aF0.08793629436599372
aF0.038459044411303517
aF0.045346030772573619
aF0.049962400513648156
aF0.04509720258443508
aF0.070353461945252979
aF0.053023180497591332
aF0.031818810151161732
aF0.094125387216813128
aF0.048439504753988581
aF0.065240495672944487
aF0.048957510557809364
aF0.077034331896450065
aF0.060790343062895096
aF0.046428785485997999
aF0.03669493252117851
aF0.06702670997070638
aF0.036013817451810773
aF0.045985276704753657
aF0.060702132740049264
aF0.032836148047244683
aF0.066546549186319248
aF0.025279306961615303
aF0.027446605093938779
aF0.039495062840529171
aF0.028824771841949228
aF0.048761222916451019
aF0.022105905467480522
aF0.040464557237162933
aF0.048857136565231878
aF0.029517266179589691
aF0.034297064633672915
aF0.045940551622006685
aF0.030099065961158043
aF0.047859062078424303
aF0.035404214533121557
aF0.041285036521652947
aF0.025541262447711578
aF0.024642559914067347
aF0.033370586324131354
aF0.024345597025431872
aF0.025134781010139887
aF0.023632020615328375
aF0.025747502560801862
aF0.027849171919004698
aF0.049993853727446497
aF0.021579153172877109
aF0.022495949213713309
aF0.022806580331360089
aF0.032838416400202915
aF0.028336467457412185
aF0.026360236251685345
aF0.015441474626465715
aF0.022674060821414654
aF0.02435728183514415
aF0.038784212132476591
aF0.025531562908994675
aF0.033944620000018876
aF0.021355069175404785
aF0.023583688187255179
aF0.02260094262403476
aF0.020482551539741871
aF0.015712633927804458
aF0.025236630587419939
aF0.021862153517673271
aF0.0209835372714374
aF0.019228540790300747
aF0.025774925234151376
aF0.020274052801395107
aF0.020499984255296776
aF0.024488107647339188
aF0.031419570065274009
aF0.017434984431127541
aF0.014744238876171869
aF0.018111654200146359
aF0.018993785445688024
aF0.019410284223707681
as.