(dp1
S'typeToken'
p2
(lp3
F1.810303
aF1.9199999999999999
aF2.5819890000000001
aF1.7860860000000001
aF2.4253559999999998
aF4.0824829999999999
aF3.7796449999999999
aF1.6594439999999999
aF2.5819890000000001
aF3.1622780000000001
aF4.0824829999999999
aF1.1793340000000001
aF1.76
aF1.5823100000000001
aF1.870439
aF5.7735029999999998
aF2.1242649999999998
aF3.0151129999999999
aF1.7443690000000001
aF1.070802
aF2.3570229999999999
aF3.0151129999999999
aF1.7548349999999999
aF2.9629629999999998
aF2.0350980000000001
aF1.635275
aF1.994486
aF3.3333330000000001
aF1.4848600000000001
aF1.76
aF3.1622780000000001
aF1.997352
aF2.052667
aF2.34375
aF1.600822
aF0.917605
aF1.9038269999999999
aF2.8867509999999998
aF2.0782660000000002
aF2.0782660000000002
aF1.4087229999999999
aF2.34375
aF1.225697
aF1.466261
aF1.092158
aF2.1821790000000001
aF1.0494829999999999
aF1.092158
aF1.31877
aF0.989676
aF1.552354
aF2.1734119999999999
aF1.3119529999999999
aF1.2028129999999999
aF1.2858609999999999
aF1.555126
aF1.3226
aF2.560155
aF1.5277780000000001
aF1.4474640000000001
aF1.212383
aF1.545425
aF1.2267410000000001
aF1.5467960000000001
aF2.2908110000000002
aF2.672612
aF0.96824600000000005
aF1.2445079999999999
aF0.93991199999999997
aF1.2677179999999999
aF1.383127
aF1.900658
aF1.2858609999999999
aF1.2800769999999999
aF1.0982590000000001
aF1.76
aF1.2253829999999999
aF0.94818100000000005
aF1.074802
aF1.1661809999999999
aF1.2028129999999999
aF1.290454
aF0.68777699999999997
aF1.235541
aF0.89542100000000002
aF1.792921
aF0.85247700000000004
aF1.421829
aF0.77905199999999997
aF0.99846100000000004
aF1.01136
aF1.5106930000000001
aF0.83852499999999996
aF0.62693299999999996
aF1.734874
aF0.59332099999999999
aF0.75337100000000001
aF1.4971300000000001
aF0.78471299999999999
aF0.89785000000000004
aF0.79950299999999996
aF0.96572499999999994
aF0.79920400000000003
aF0.95991000000000004
aF0.92676899999999995
aF0.90534999999999999
aF1.1879390000000001
aF1.4915529999999999
aF0.616317
aF0.80813800000000002
aF0.64962600000000004
aF1.097345
aF0.80803599999999998
aF0.936558
aF0.57367299999999999
aF0.979908
aF0.75573800000000002
aF1.014829
aF0.79233900000000002
aF1.5191650000000001
aF0.60831199999999996
aF0.64132999999999996
aF0.79797600000000002
aF1.383127
aF0.60692400000000002
aF0.85960000000000003
aF0.560477
aF0.59380599999999994
aF1.0244819999999999
aF0.72388300000000005
aF0.573461
aF1.166269
aF0.67092700000000005
aF0.87218499999999999
aF0.98846199999999995
aF1.100363
aF0.60086099999999998
aF0.71514
aF0.72702299999999997
aF0.80785200000000001
aF0.47651700000000002
aF0.71236600000000005
aF0.806701
aF0.54589900000000002
aF0.811616
aF0.39194899999999999
aF0.46509200000000001
aF0.59653
aF0.50914800000000004
aF0.65422400000000003
aF0.36934899999999998
aF0.65027900000000005
aF0.67848299999999995
aF0.43302099999999999
aF0.48273700000000003
aF0.62241199999999997
aF0.53372699999999995
aF0.69641200000000003
aF0.46013900000000002
aF0.61074499999999998
aF0.37027599999999999
aF0.38609199999999999
aF0.47716500000000001
aF0.42489100000000002
aF0.32300699999999999
aF0.40799099999999999
aF0.374164
aF0.45653500000000002
aF0.53998900000000005
aF0.34775400000000001
aF0.31468000000000002
aF0.41710799999999998
aF0.41227799999999998
aF0.47806900000000002
aF0.49688100000000002
aF0.29619699999999999
aF0.35835899999999998
aF0.388127
aF0.52596600000000004
aF0.462449
aF0.47834100000000002
aF0.412636
aF0.28148099999999998
aF0.37621100000000002
aF0.263237
aF0.28713899999999998
aF0.35432599999999997
aF0.40289399999999997
aF0.31157400000000002
aF0.32555499999999998
aF0.352908
aF0.361014
aF0.30172599999999999
aF0.43576700000000002
aF0.42032399999999998
aF0.33133400000000002
aF0.22572600000000001
aF0.34926699999999999
aF0.29878399999999999
aF0.32638899999999998
as.