(dp1
S'typeToken'
p2
(lp3
F1.6799999999999999
aF1.1727430000000001
aF1.0107660000000001
aF0.64752299999999996
aF0.44413399999999997
aF0.51519000000000004
aF0.489898
aF0.33941100000000002
aF0.22340599999999999
aF0.200908
aF1.734874
aF2.6516500000000001
aF1.146326
aF0.790072
aF0.70269499999999996
aF0.407387
aF0.51002199999999998
aF0.26111200000000001
aF0.25505699999999998
aF0.23839299999999999
aF1.5823100000000001
aF2.2908110000000002
aF1.0836220000000001
aF1.022391
aF0.61446400000000001
aF0.560477
aF0.50021199999999999
aF0.30206100000000002
aF0.193327
aF0.22409200000000001
aF1.766526
aF1.4971300000000001
aF1.09768
aF0.92208400000000001
aF0.39101599999999997
aF0.49501899999999999
aF0.56441200000000002
aF0.39953499999999997
aF0.163026
aF0.18015
aF1.212383
aF0.98976200000000003
aF0.98084300000000002
aF0.67543600000000004
aF0.46510200000000002
aF0.35081000000000001
aF0.40604000000000001
aF0.35502299999999998
aF0.16860900000000001
aF0.21268000000000001
aF1.2885329999999999
aF1.854684
aF1.275776
aF0.706044
aF0.68015099999999995
aF0.530501
aF0.57999999999999996
aF0.33059100000000002
aF0.20050000000000001
aF0.23247799999999999
aF2.3468089999999999
aF2.4669110000000001
aF1.067269
aF0.712785
aF0.590951
aF0.61053999999999997
aF0.47452299999999997
aF0.26588299999999998
aF0.161353
aF0.19752
aF2.2908110000000002
aF1.76
aF0.93991199999999997
aF0.78543600000000002
aF0.64945799999999998
aF0.411188
aF0.33438299999999999
aF0.36035
aF0.19572800000000001
aF0.20174300000000001
aF2.0951309999999999
aF1.4363109999999999
aF1.159443
aF1.0141849999999999
aF0.63244400000000001
aF0.57977299999999998
aF0.57291499999999995
aF0.40845300000000001
aF0.21895300000000001
aF0.18909899999999999
aF1.462782
aF2.5298219999999998
aF1.1703380000000001
aF0.81904600000000005
aF0.76684099999999999
aF0.61567000000000005
aF0.571407
aF0.28911500000000001
aF0.27016299999999999
aF0.23562900000000001
aF2.2908110000000002
aF1.7010350000000001
aF1.0675209999999999
aF0.84852799999999995
aF0.81632700000000002
aF0.48990600000000001
aF0.49447200000000002
aF0.25836500000000001
aF0.28806599999999999
aF0.248253
aF1.448836
aF1.007503
aF1.1590689999999999
aF0.73978299999999997
aF0.75355300000000003
aF0.60711400000000004
aF0.568658
aF0.345335
aF0.21526999999999999
aF0.233435
aF1.766526
aF2.5298219999999998
aF1.3094570000000001
aF0.94434600000000002
aF0.69958799999999999
aF0.605684
aF0.51612400000000003
aF0.33777800000000002
aF0.194271
aF0.18281
aF1.01136
aF1.643168
aF1.0332209999999999
aF0.95613800000000004
aF0.636409
aF0.50768000000000002
aF0.60562400000000005
aF0.35792200000000002
aF0.230431
aF0.238177
aF2.6516500000000001
aF1.7860860000000001
aF0.95273399999999997
aF0.88258899999999996
aF0.56441200000000002
aF0.42818299999999998
aF0.47184399999999999
aF0.2994
aF0.24069499999999999
aF0.19966999999999999
aF1.619848
aF1.408765
aF0.93915599999999999
aF0.61615699999999995
aF0.64663199999999998
aF0.45357999999999998
aF0.41957499999999998
aF0.39901900000000001
aF0.22114900000000001
aF0.214175
aF1.7548349999999999
aF1.52
aF0.92952500000000005
aF0.88217999999999996
aF0.70870900000000003
aF0.56131299999999995
aF0.43302499999999999
aF0.28640599999999999
aF0.20077700000000001
aF0.194188
aF1.552354
aF2.1875
aF0.740564
aF0.55866499999999997
aF0.78717199999999998
aF0.49608099999999999
aF0.39887600000000001
aF0.29831099999999999
aF0.209477
aF0.22553200000000001
aF1.448836
aF1.8412790000000001
aF1.1661809999999999
aF0.57624600000000004
aF0.57442199999999999
aF0.55812300000000004
aF0.377608
aF0.306838
aF0.25426199999999999
aF0.146422
aF1.513223
aF2.1875
aF1.007503
aF0.64032900000000004
aF0.70260299999999998
aF0.51946700000000001
aF0.42307299999999998
aF0.39069199999999998
aF0.13614599999999999
aF0.15625
aF1.325825
aF2.2908110000000002
aF1.0599000000000001
aF0.68041399999999996
aF0.53591900000000003
aF0.45028400000000002
aF0.39160899999999998
aF0.352099
aF0.23935000000000001
aF0.191109
aF1.1661809999999999
aF2.1334620000000002
aF1.266019
aF0.57572000000000001
aF0.66625199999999996
aF0.50376200000000004
aF0.52704600000000001
aF0.293688
aF0.252832
aF0.15470100000000001
aF2.4669110000000001
aF2.0999099999999999
aF1.1531720000000001
aF0.50709300000000002
aF0.75128700000000004
aF0.51962600000000003
aF0.60834100000000002
aF0.38262299999999999
aF0.21079000000000001
aF0.22112899999999999
aF2.5298219999999998
aF1.032796
aF1.0269349999999999
aF0.58004900000000004
aF0.67549300000000001
aF0.44271100000000002
aF0.39896799999999999
aF0.395061
aF0.25993500000000003
aF0.21046699999999999
aF1.635275
aF2.4669110000000001
aF1.074802
aF0.80059199999999997
aF0.73656999999999995
aF0.39343899999999998
aF0.45772099999999999
aF0.42529600000000001
aF0.293852
aF0.17636499999999999
aF2.1875
aF2.0124610000000001
aF1.106797
aF0.78125
aF0.64287000000000005
aF0.46752100000000002
aF0.55078800000000006
aF0.245668
aF0.17511399999999999
aF0.14934800000000001
aF1.76
aF1.811177
aF0.69281999999999999
aF0.691272
aF0.57514799999999999
aF0.55682299999999996
aF0.51305800000000001
aF0.32056000000000001
aF0.22520899999999999
aF0.14451600000000001
aF1.421829
aF1.332965
aF1.2253829999999999
aF0.78804099999999999
aF0.63259100000000001
aF0.45497599999999999
aF0.49970799999999999
aF0.34584500000000001
aF0.235683
aF0.18739800000000001
aF1.875
aF2.0124610000000001
aF1.1021669999999999
aF0.68962800000000002
aF0.65974100000000002
aF0.489784
aF0.38876300000000003
aF0.28491
aF0.27490999999999999
aF0.21084900000000001
aF1.462782
aF1.506367
aF1.0862289999999999
aF0.98484899999999997
aF0.628386
aF0.38545499999999999
aF0.34082899999999999
aF0.28759400000000002
aF0.219328
aF0.159992
aF1.5823100000000001
aF2.3468089999999999
aF0.94883399999999996
aF0.57409900000000003
aF0.65915100000000004
aF0.46095900000000001
aF0.48740499999999998
aF0.29141
aF0.285831
aF0.188586
aF1.600822
aF2.2908110000000002
aF0.91386100000000003
aF0.87463599999999997
aF0.69201599999999996
aF0.56525899999999996
aF0.49254599999999998
aF0.342752
aF0.23571900000000001
aF0.135187
aF1.30444
aF1.4915529999999999
aF1.1218410000000001
aF0.68842499999999995
aF0.58553999999999995
aF0.47453699999999999
aF0.35563400000000001
aF0.35630400000000001
aF0.32348500000000002
aF0.20893600000000001
aF1.2649109999999999
aF1.662612
aF1.082532
aF0.87890599999999997
aF0.70224399999999998
aF0.61932500000000001
aF0.46782800000000002
aF0.31367299999999998
aF0.31679600000000002
aF0.193547
aF1.9743520000000001
aF1.232883
aF0.91594900000000001
aF0.66822899999999996
aF0.85115099999999999
aF0.63275300000000001
aF0.49720500000000001
aF0.29524600000000001
aF0.288082
aF0.15562200000000001
aF2.2135940000000001
aF2.0999099999999999
aF1.2105779999999999
aF0.89991500000000002
aF0.81632700000000002
aF0.64471900000000004
aF0.42072900000000002
aF0.26437100000000002
aF0.190715
aF0.22583800000000001
aF2.5925929999999999
aF1.2885329999999999
aF0.865784
aF0.60795900000000003
aF0.58602600000000005
aF0.56340999999999997
aF0.41368100000000002
aF0.322322
aF0.24507100000000001
aF0.15914700000000001
aF1.024195
aF2.237724
aF0.859375
aF0.72735499999999997
aF0.72361200000000003
aF0.50296700000000005
aF0.56239300000000003
aF0.39599499999999999
aF0.28171400000000002
aF0.16649700000000001
aF2.5925929999999999
aF1.4087229999999999
aF1.1370260000000001
aF0.88302199999999997
aF0.75465700000000002
aF0.50021199999999999
aF0.52143499999999998
aF0.36601299999999998
aF0.28329100000000002
aF0.22271199999999999
aF2.1334620000000002
aF2.6516500000000001
aF1.274618
aF0.93064199999999997
aF0.65954900000000005
aF0.56086999999999998
aF0.57996800000000004
aF0.40418100000000001
aF0.23499999999999999
aF0.16467300000000001
aF1.545425
aF1.7443690000000001
aF1.3498730000000001
aF0.88118099999999999
aF0.65059999999999996
aF0.57865800000000001
aF0.41288399999999997
aF0.28080100000000002
aF0.207535
aF0.16808600000000001
aF2.2908110000000002
aF2.4056259999999998
aF1.195316
aF0.80196000000000001
aF0.75992899999999997
aF0.52873800000000004
aF0.45135399999999998
aF0.38564799999999999
aF0.24704499999999999
aF0.214196
aF2.6516500000000001
aF2.3468089999999999
aF1.266019
aF1.0284610000000001
aF0.66000000000000003
aF0.54328500000000002
aF0.53731600000000002
aF0.33323999999999998
aF0.218331
aF0.19136400000000001
aF2.052667
aF1.8400000000000001
aF0.75467300000000004
aF0.63730900000000001
aF0.67081999999999997
aF0.53027999999999997
aF0.42249700000000001
aF0.31576500000000002
aF0.25065199999999999
aF0.19308400000000001
aF2.0951309999999999
aF1.536789
aF0.986514
aF0.71444099999999999
aF0.78237299999999999
aF0.52827100000000005
aF0.41913499999999998
aF0.28367100000000001
aF0.292404
aF0.221111
aF1.130668
aF1.466261
aF0.76583800000000002
aF0.93352000000000002
aF0.76975000000000005
aF0.57409900000000003
aF0.49573499999999998
aF0.30136099999999999
aF0.217586
aF0.237704
aF1.9319219999999999
aF2.2908110000000002
aF1.0621419999999999
aF0.78561899999999996
aF0.63460899999999998
aF0.54173000000000004
aF0.476157
aF0.246229
aF0.21195
aF0.16386700000000001
aF2.5298219999999998
aF0.96274300000000002
aF0.93352000000000002
aF0.882637
aF0.787466
aF0.55390499999999998
aF0.54152900000000004
aF0.30302600000000002
aF0.226775
aF0.24526300000000001
aF1.4915529999999999
aF1.4363109999999999
aF1.1370260000000001
aF0.89991500000000002
aF0.48458899999999999
aF0.67338699999999996
aF0.53430900000000003
aF0.374033
aF0.20486499999999999
aF0.176423
aF2.237724
aF2.5298219999999998
aF1.143046
aF0.62180999999999997
aF0.56436399999999998
aF0.603491
aF0.50688200000000005
aF0.29238900000000001
aF0.20738500000000001
aF0.219693
aF1.002883
aF1.582524
aF1.0332209999999999
aF0.62440099999999998
aF0.57977299999999998
aF0.49410599999999999
aF0.54209499999999999
aF0.35231600000000002
aF0.22870699999999999
aF0.15956300000000001
aF2.4056259999999998
aF1.371521
aF1.0277400000000001
aF0.59385600000000005
aF0.57624600000000004
aF0.59398700000000004
aF0.44137900000000002
aF0.33337299999999997
aF0.24923100000000001
aF0.183222
aF1.8412790000000001
aF2.6516500000000001
aF0.93162199999999995
aF0.72444900000000001
aF0.65312599999999998
aF0.476157
aF0.51428099999999999
aF0.39027099999999998
aF0.22012100000000001
aF0.17829999999999999
aF1.584015
aF1.3114600000000001
aF0.95991000000000004
aF0.63956999999999997
aF0.494838
aF0.55764499999999995
aF0.47928300000000001
aF0.29052699999999998
aF0.27306399999999997
aF0.22767000000000001
aF2.052667
aF1.383127
aF1.0626009999999999
aF0.68038600000000005
aF0.78804099999999999
aF0.66600300000000001
aF0.45497599999999999
aF0.38668999999999998
aF0.29850199999999999
aF0.23047599999999999
aF1.472756
aF1.9038269999999999
aF1.3388770000000001
aF0.72615300000000005
aF0.602101
aF0.67466700000000002
aF0.46583999999999998
aF0.349657
aF0.27545799999999998
aF0.152781
aF2.052667
aF1.83324
aF0.957619
aF0.83258399999999999
aF0.66991900000000004
aF0.63460899999999998
aF0.512575
aF0.40706500000000001
aF0.19492899999999999
aF0.21495400000000001
aF2.052667
aF2.5925929999999999
aF1.1600969999999999
aF0.932419
aF0.58661399999999997
aF0.46007700000000001
aF0.49440499999999998
aF0.26306299999999999
aF0.232794
aF0.193277
aF1.854684
aF2.6516500000000001
aF1.146326
aF0.66860600000000003
aF0.66194200000000003
aF0.45939600000000003
aF0.432475
aF0.34753800000000001
aF0.26644699999999999
aF0.23413999999999999
aF2.6516500000000001
aF1.871138
aF0.71999999999999997
aF0.705453
aF0.63245600000000002
aF0.45013799999999998
aF0.52320999999999995
aF0.33332400000000001
aF0.21499099999999999
aF0.22298000000000001
aF2.0999099999999999
aF2.5298219999999998
aF1.3388770000000001
aF0.61949399999999999
aF0.82671700000000004
aF0.60096300000000002
aF0.41654000000000002
aF0.310062
aF0.234375
aF0.17629400000000001
aF2.4056259999999998
aF2.4056259999999998
aF1.0964050000000001
aF0.86930200000000002
aF0.56016500000000002
aF0.633579
aF0.60968800000000001
aF0.35727399999999998
aF0.306315
aF0.21573300000000001
aF1.1793340000000001
aF1.870439
aF0.99920900000000001
aF0.88
aF0.70241900000000002
aF0.43479099999999998
aF0.34831600000000001
aF0.31089699999999998
aF0.25061800000000001
aF0.160997
aF2.5925929999999999
aF1.871138
aF1.1313709999999999
aF0.75480599999999998
aF0.53735100000000002
aF0.49877500000000002
aF0.41398299999999999
aF0.25273200000000001
aF0.275476
aF0.23775199999999999
aF2.4056259999999998
aF1.854684
aF1.153894
aF0.80000000000000004
aF0.80903999999999998
aF0.50782300000000002
aF0.51962600000000003
aF0.31199199999999999
aF0.25081900000000001
aF0.155055
aF2.5298219999999998
aF1.3019810000000001
aF0.85114699999999999
aF0.77838799999999997
aF0.45524199999999998
aF0.610815
aF0.41865200000000002
aF0.35630400000000001
aF0.28433399999999998
aF0.23506299999999999
aF1.854684
aF1.2806949999999999
aF0.90721799999999997
aF0.79611299999999996
aF0.81935599999999997
aF0.59152800000000005
aF0.55950299999999997
aF0.36415999999999998
aF0.239648
aF0.21903300000000001
aF2.3468089999999999
aF2.4669110000000001
aF1.3281959999999999
aF0.82031200000000004
aF0.68359400000000003
aF0.43695899999999999
aF0.57999999999999996
aF0.34211399999999997
aF0.26254100000000002
aF0.252664
aF1.5643039999999999
aF1.964186
aF1.2610189999999999
aF0.74420799999999998
aF0.69032899999999997
aF0.66935599999999995
aF0.44543500000000003
aF0.40466400000000002
aF0.29172900000000002
aF0.25046499999999999
aF1.871138
aF2.052667
aF1.2171609999999999
aF0.92952500000000005
aF0.65727400000000002
aF0.63947299999999996
aF0.44440200000000002
aF0.32936599999999999
aF0.190715
aF0.17537
aF2.2908110000000002
aF1.854684
aF1.359877
aF0.79887200000000003
aF0.750336
aF0.66355200000000003
aF0.38181700000000002
aF0.29647899999999999
aF0.305705
aF0.19803399999999999
aF1.421829
aF1.1370260000000001
aF0.99363100000000004
aF0.67977799999999999
aF0.776617
aF0.53765600000000002
aF0.47706199999999999
aF0.27927099999999999
aF0.247448
aF0.16201499999999999
aF2.0124610000000001
aF2.3468089999999999
aF1.1808259999999999
aF0.60911400000000004
aF0.74074099999999998
aF0.63555099999999998
aF0.45891599999999999
aF0.311392
aF0.25283899999999998
aF0.215334
aF1.871138
aF1.30444
aF1.153894
aF0.75790400000000002
aF0.67109700000000005
aF0.71693600000000002
aF0.423958
aF0.29929899999999998
aF0.19562499999999999
aF0.221994
aF2.0124610000000001
aF2.4056259999999998
aF0.9375
aF0.75445799999999996
aF0.65767200000000003
aF0.59483399999999997
aF0.41211700000000001
aF0.36202800000000002
aF0.274335
aF0.20003899999999999
aF1.4363109999999999
aF1.4484300000000001
aF1.032796
aF0.69958799999999999
aF0.82671700000000004
aF0.67887500000000001
aF0.46653800000000001
aF0.329735
aF0.23261699999999999
aF0.18804999999999999
aF1.005171
aF2.1875
aF0.81958500000000001
aF0.93218000000000001
aF0.72632300000000005
aF0.56865100000000002
aF0.42249700000000001
aF0.32916899999999999
aF0.222053
aF0.223743
aF2.03125
aF1.76
aF1.3577269999999999
aF0.73117399999999999
aF0.66860600000000003
aF0.60185699999999998
aF0.408995
aF0.29959000000000002
aF0.24559500000000001
aF0.24249999999999999
aF1.8412790000000001
aF2.4056259999999998
aF1.274618
aF0.81177200000000005
aF0.62876799999999999
aF0.45839000000000002
aF0.50347200000000003
aF0.32871
aF0.249113
aF0.17019599999999999
aF1.6393899999999999
aF1.303474
aF1.359877
aF0.77415599999999996
aF0.80165200000000003
aF0.51355099999999998
aF0.420178
aF0.28247100000000003
aF0.27108300000000002
aF0.22897600000000001
aF1.870439
aF1.4848600000000001
aF1.275776
aF0.88080700000000001
aF0.45254800000000001
aF0.42422399999999999
aF0.55464100000000005
aF0.323934
aF0.257162
aF0.24406800000000001
aF1.0494829999999999
aF2.4669110000000001
aF0.71113599999999999
aF1.0277400000000001
aF0.76972700000000005
aF0.54607399999999995
aF0.55356799999999995
aF0.37688899999999997
aF0.20544899999999999
aF0.199879
aF2.1875
aF2.2908110000000002
aF1.205803
aF0.83012300000000006
aF0.58243999999999996
aF0.61053999999999997
aF0.57723000000000002
aF0.36177199999999998
aF0.25548500000000002
aF0.181867
aF1.7106669999999999
aF2.0951309999999999
aF1.3281959999999999
aF0.67543600000000004
aF0.573461
aF0.53027999999999997
aF0.54209499999999999
aF0.31529000000000001
aF0.24483199999999999
aF0.182447
aF2.4056259999999998
aF2.4669110000000001
aF1.1496379999999999
aF0.90369600000000005
aF0.57823500000000005
aF0.47226200000000002
aF0.46806300000000001
aF0.31720700000000002
aF0.29985600000000001
aF0.230431
aF2.1400199999999998
aF1.619848
aF0.99312299999999998
aF0.75416700000000003
aF0.62180999999999997
aF0.58602600000000005
aF0.56146700000000005
aF0.25589899999999999
aF0.20685100000000001
aF0.169901
aF1.106797
aF1.964186
aF1.148299
aF0.71713700000000002
aF0.69078499999999998
aF0.58243999999999996
aF0.37532700000000002
aF0.29892099999999999
aF0.239033
aF0.16625899999999999
aF1.09768
aF1.6594439999999999
aF1.2822979999999999
aF0.74671200000000004
aF0.76683500000000004
aF0.60925499999999999
aF0.37996099999999999
aF0.24899499999999999
aF0.246146
aF0.20222799999999999
aF1.266019
aF1.9743520000000001
aF1.2556579999999999
aF0.60856500000000002
aF0.62809999999999999
aF0.41048099999999998
aF0.44055899999999998
aF0.29805399999999999
aF0.27396799999999999
aF0.25062299999999998
aF2.0951309999999999
aF2.4056259999999998
aF0.85048000000000001
aF0.739008
aF0.60851900000000003
aF0.46875
aF0.43068200000000001
aF0.33912999999999999
aF0.27308300000000002
aF0.244922
aF2.6516500000000001
aF1.6799999999999999
aF1.0524610000000001
aF0.68080300000000005
aF0.75416700000000003
aF0.67919099999999999
aF0.58928000000000003
aF0.29466599999999998
aF0.20508299999999999
aF0.12695799999999999
aF2.052667
aF2.1875
aF1.359877
aF0.69678600000000002
aF0.71440400000000004
aF0.59750099999999995
aF0.54772299999999996
aF0.33380599999999999
aF0.29557299999999997
aF0.192
aF1.146736
aF1.997352
aF0.93105300000000002
aF0.85338499999999995
aF0.57915300000000003
aF0.56234399999999996
aF0.53800400000000004
aF0.35281600000000002
aF0.25343900000000003
aF0.18210899999999999
aF1.568112
aF2.1875
aF1.1590689999999999
aF0.81643900000000003
aF0.64080300000000001
aF0.58390600000000004
aF0.43989400000000001
aF0.34975800000000001
aF0.25794499999999998
aF0.18752199999999999
aF2.5925929999999999
aF1.643168
aF1.2469589999999999
aF0.70204
aF0.65785099999999996
aF0.60086099999999998
aF0.54011500000000001
aF0.382386
aF0.30377100000000001
aF0.19626199999999999
aF1.6000000000000001
aF1.390493
aF1.109313
aF0.95450400000000002
aF0.701322
aF0.52118200000000003
aF0.467669
aF0.37026700000000001
aF0.25701099999999999
aF0.19378699999999999
aF1.195335
aF1.9743520000000001
aF1.1808259999999999
aF0.69550699999999999
aF0.61631599999999997
aF0.57369599999999998
aF0.49348199999999998
aF0.36934899999999998
aF0.28063700000000003
aF0.18550800000000001
aF1.76
aF1.2000729999999999
aF0.87080900000000006
aF0.802508
aF0.68683000000000005
aF0.640822
aF0.573461
aF0.34583700000000001
aF0.245117
aF0.21111199999999999
aF2.6516500000000001
aF1.0651619999999999
aF1.1126020000000001
aF0.713306
aF0.69281999999999999
aF0.55096699999999998
aF0.47781699999999999
aF0.36173100000000002
aF0.20075100000000001
aF0.22839999999999999
aF1.107872
aF2.237724
aF1.104644
aF0.56512300000000004
aF0.67836600000000002
aF0.54112899999999997
aF0.47223599999999999
aF0.31453799999999998
aF0.30888599999999999
aF0.18390899999999999
aF2.2908110000000002
aF2.237724
aF0.93298800000000004
aF0.629911
aF0.71376499999999998
aF0.56740699999999999
aF0.486128
aF0.373782
aF0.27862300000000001
aF0.21995000000000001
aF1.8412790000000001
aF1.619848
aF1.1574070000000001
aF0.79887200000000003
aF0.57213000000000003
aF0.64130600000000004
aF0.56524399999999997
aF0.294854
aF0.17813999999999999
aF0.14432700000000001
aF2.3468089999999999
aF1.813169
aF1.055194
aF0.75307999999999997
aF0.59111100000000005
aF0.42669200000000002
aF0.38858599999999999
aF0.30497099999999999
aF0.24932599999999999
aF0.19331499999999999
aF1.8400000000000001
aF1.813169
aF1.0600620000000001
aF0.957619
aF0.61286300000000005
aF0.58676600000000001
aF0.60061200000000003
aF0.38042100000000001
aF0.22900999999999999
aF0.158192
aF2.4056259999999998
aF2.5925929999999999
aF1.1552359999999999
aF0.56000000000000005
aF0.64798599999999995
aF0.64416799999999996
aF0.47760799999999998
aF0.35437000000000002
aF0.25482100000000002
aF0.19575400000000001
aF2.6516500000000001
aF2.2908110000000002
aF1.0787199999999999
aF0.99436899999999995
aF0.610815
aF0.55040299999999998
aF0.459899
aF0.31974399999999997
aF0.20369399999999999
aF0.179257
aF2.6516500000000001
aF2.1400199999999998
aF0.85807299999999997
aF0.86222900000000002
aF0.62971500000000002
aF0.49679000000000001
aF0.34067399999999998
aF0.33032800000000001
aF0.259077
aF0.19946700000000001
aF1.643168
aF2.4669110000000001
aF1.0278799999999999
aF0.70029699999999995
aF0.53356000000000003
aF0.54836300000000004
aF0.48384199999999999
aF0.38973799999999997
aF0.27949200000000002
aF0.17573800000000001
aF1.9743520000000001
aF1.552354
aF1.195316
aF0.787466
aF0.66999900000000001
aF0.65275799999999995
aF0.48934
aF0.37958799999999998
aF0.21076
aF0.23439199999999999
aF1.00223
aF1.466261
aF0.88980800000000004
aF0.89747299999999997
aF0.55356799999999995
aF0.53805099999999995
aF0.452486
aF0.34627999999999998
aF0.24129900000000001
aF0.25592500000000001
aF2.6516500000000001
aF1.5467960000000001
aF0.99232100000000001
aF0.66696500000000003
aF0.53354299999999999
aF0.63245600000000002
aF0.48384199999999999
aF0.36690800000000001
aF0.2387
aF0.23973700000000001
aF1.026092
aF2.4056259999999998
aF1.3325549999999999
aF0.73278299999999996
aF0.58274700000000001
aF0.515046
aF0.44535400000000003
aF0.28767900000000002
aF0.22686500000000001
aF0.21821299999999999
aF2.4056259999999998
aF2.6516500000000001
aF0.91171199999999997
aF0.66860600000000003
aF0.57273200000000002
aF0.58726999999999996
aF0.46292499999999998
aF0.33324799999999999
aF0.30995099999999998
aF0.18256700000000001
aF2.4669110000000001
aF2.1400199999999998
aF0.85807299999999997
aF0.891675
aF0.72735499999999997
aF0.59896199999999999
aF0.58065500000000003
aF0.37817400000000001
aF0.22828799999999999
aF0.19848199999999999
aF1.76
aF2.6516500000000001
aF1.2074510000000001
aF0.77992700000000004
aF0.72512600000000005
aF0.633579
aF0.52662500000000001
aF0.284416
aF0.205067
aF0.202899
aF1.4458789999999999
aF1.870439
aF0.83012300000000006
aF0.72702299999999997
aF0.63097599999999998
aF0.58154600000000001
aF0.45028400000000002
aF0.328206
aF0.238902
aF0.22168599999999999
aF1.813169
aF1.1370260000000001
aF1.1563030000000001
aF0.95273399999999997
aF0.72672199999999998
aF0.52800499999999995
aF0.541852
aF0.28676699999999999
aF0.16078899999999999
aF0.19647899999999999
aF2.065591
aF1.9319219999999999
aF0.95613800000000004
aF0.82972199999999996
aF0.52295100000000005
aF0.59902
aF0.42859999999999998
aF0.38415700000000003
aF0.27291300000000002
aF0.209925
aF1.3281959999999999
aF2.1334620000000002
aF1.3577269999999999
aF0.52780700000000003
aF0.56218299999999999
aF0.54381199999999996
aF0.50266
aF0.32453599999999999
aF0.21416499999999999
aF0.16207199999999999
aF1.552354
aF2.237724
aF1.2317549999999999
aF0.90210999999999997
aF0.71693600000000002
aF0.57918700000000001
aF0.56234399999999996
aF0.27212199999999998
aF0.27777800000000002
aF0.24179400000000001
aF1.2821039999999999
aF0.87203900000000001
aF0.83984000000000003
aF0.87860700000000003
aF0.60025499999999998
aF0.64314499999999997
aF0.46144499999999999
aF0.29704000000000003
aF0.28867500000000001
aF0.196266
aF0.96225000000000005
aF1.1218410000000001
aF1.2962959999999999
aF0.65989399999999998
aF0.61587999999999998
aF0.55240299999999998
aF0.364396
aF0.36670700000000001
aF0.238561
aF0.16656899999999999
aF1.323094
aF2.5925929999999999
aF1.3608279999999999
aF0.88181699999999996
aF0.54527899999999996
aF0.41683500000000001
aF0.46875
aF0.36656499999999997
aF0.260326
aF0.18546199999999999
aF1.9038269999999999
aF1.6393899999999999
aF1.207363
aF0.74033499999999997
aF0.56000000000000005
aF0.563025
aF0.521262
aF0.360925
aF0.27579300000000001
aF0.162998
aF2.6516500000000001
aF2.5925929999999999
aF0.97836699999999999
aF0.90262299999999995
aF0.76465899999999998
aF0.57409900000000003
aF0.49254599999999998
aF0.352159
aF0.20732800000000001
aF0.21423500000000001
aF2.065591
aF1.964186
aF0.88080700000000001
aF0.76224599999999998
aF0.48084399999999999
aF0.60372599999999998
aF0.55078800000000006
aF0.297016
aF0.28536099999999998
aF0.20236399999999999
aF2.3468089999999999
aF1.496834
aF1.059256
aF0.523586
aF0.68298800000000004
aF0.52447299999999997
aF0.50036999999999998
aF0.36036600000000002
aF0.287493
aF0.22922999999999999
aF2.2908110000000002
aF1.7106669999999999
aF1.109936
aF0.72632300000000005
aF0.77587799999999996
aF0.64594099999999999
aF0.516764
aF0.37828800000000001
aF0.28719899999999998
aF0.18138399999999999
aF1.813169
aF2.0951309999999999
aF1.082532
aF0.86057600000000001
aF0.51701799999999998
aF0.58457700000000001
aF0.472242
aF0.30318099999999998
aF0.25313799999999997
aF0.20508599999999999
aF2.3468089999999999
aF1.2380059999999999
aF1.3114600000000001
aF0.66935599999999995
aF0.59808099999999997
aF0.50768000000000002
aF0.485039
aF0.26080999999999999
aF0.247782
aF0.18538099999999999
aF1.31877
aF2.0951309999999999
aF1.3577269999999999
aF0.85338499999999995
aF0.71533599999999997
aF0.64471900000000004
aF0.47137800000000002
aF0.415049
aF0.238367
aF0.156637
aF2.3468089999999999
aF1.568112
aF0.91847199999999996
aF0.88173299999999999
aF0.55215800000000004
aF0.47225800000000001
aF0.496255
aF0.32334299999999999
aF0.23181199999999999
aF0.24682299999999999
aF2.4669110000000001
aF2.2908110000000002
aF1.207363
aF0.72702299999999997
aF0.61662499999999998
aF0.61615699999999995
aF0.52091399999999999
aF0.34179300000000001
aF0.23230999999999999
aF0.19658300000000001
aF2.5925929999999999
aF1.893459
aF1.1526259999999999
aF0.55750100000000002
aF0.73992999999999998
aF0.56441200000000002
aF0.45415899999999998
aF0.37261100000000003
aF0.28001100000000001
aF0.253
aF1.72251
aF2.0951309999999999
aF1.3446899999999999
aF1.0219400000000001
aF0.80145500000000003
aF0.54011500000000001
aF0.43393399999999999
aF0.368834
aF0.24507100000000001
aF0.18018100000000001
aF1.9743520000000001
aF1.600822
aF1.089788
aF0.81904600000000005
aF0.72735899999999998
aF0.601854
aF0.48084100000000002
aF0.37469200000000003
aF0.23364099999999999
aF0.23857
aF2.1400199999999998
aF1.9319219999999999
aF0.96209900000000004
aF0.67917099999999997
aF0.69290099999999999
aF0.61325099999999999
aF0.52402899999999997
aF0.40614699999999998
aF0.242954
aF0.17904300000000001
aF1.508586
aF2.237724
aF1.1906969999999999
aF0.88302199999999997
aF0.78440399999999999
aF0.45830199999999999
aF0.468163
aF0.31597500000000001
aF0.26614500000000002
aF0.231319
aF1.602039
aF2.4669110000000001
aF1.1496379999999999
aF0.97750700000000001
aF0.69958799999999999
aF0.44353700000000001
aF0.49780799999999997
aF0.374502
aF0.20765900000000001
aF0.229217
aF2.4056259999999998
aF2.4669110000000001
aF1.111111
aF0.90001799999999998
aF0.70241900000000002
aF0.64407499999999995
aF0.56340999999999997
aF0.30312499999999998
aF0.20349800000000001
aF0.226769
aF1.964186
aF2.3468089999999999
aF1.160137
aF0.93352000000000002
aF0.76683500000000004
aF0.62638700000000003
aF0.499498
aF0.30247800000000002
aF0.230958
aF0.22270200000000001
aF2.3468089999999999
aF1.9038269999999999
aF1.0284610000000001
aF0.99195
aF0.47054400000000002
aF0.53517700000000001
aF0.55283599999999999
aF0.325826
aF0.273669
aF0.151642
aF1.619848
aF1.332965
aF1.0241579999999999
aF0.93105300000000002
aF0.65878599999999998
aF0.53000000000000003
aF0.49608099999999999
aF0.378971
aF0.278837
aF0.218635
aF2.6997460000000002
aF1.6474599999999999
aF1.0665530000000001
aF0.85526400000000002
aF0.62638700000000003
aF0.61342300000000005
aF0.56829200000000002
aF0.37801099999999999
aF0.242954
aF0.248088
aF1.4123410000000001
aF2.5298219999999998
aF0.79456800000000005
aF0.91287099999999999
aF0.68038600000000005
aF0.60476300000000005
aF0.54978400000000005
aF0.390372
aF0.25816
aF0.20432400000000001
aF1.810303
aF2.237724
aF0.92676899999999995
aF0.81598800000000005
aF0.739564
aF0.590951
aF0.51136700000000002
aF0.40466400000000002
aF0.277059
aF0.225463
aF1.4971300000000001
aF1.3121970000000001
aF1.089788
aF0.81500499999999998
aF0.60744299999999996
aF0.48026099999999999
aF0.53279799999999999
aF0.325318
aF0.28520699999999999
aF0.20097999999999999
aF1.635275
aF1.938188
aF1.0465180000000001
aF0.83138400000000001
aF0.74708799999999997
aF0.63871999999999995
aF0.52661999999999998
aF0.32860299999999998
aF0.24810299999999999
aF0.21520800000000001
aF1.1703380000000001
aF2.5925929999999999
aF1.2806580000000001
aF0.89747299999999997
aF0.50473800000000002
aF0.58750000000000002
aF0.52706799999999998
aF0.31578000000000001
aF0.23368
aF0.14355100000000001
aF2.1650640000000001
aF2.6997460000000002
aF1.107872
aF0.83764400000000006
aF0.769262
aF0.53594600000000003
aF0.57168399999999997
aF0.34426499999999999
aF0.23702100000000001
aF0.214529
aF1.72251
aF1.477023
aF1.350873
aF0.799925
aF0.71459399999999995
aF0.62327699999999997
aF0.500718
aF0.297016
aF0.21820899999999999
aF0.21290600000000001
aF1.9319219999999999
aF2.1875
aF1.0994079999999999
aF0.97750700000000001
aF0.72573600000000005
aF0.61325099999999999
aF0.49718400000000001
aF0.34134900000000001
aF0.24949499999999999
aF0.19012999999999999
aF1.9038269999999999
aF1.9038269999999999
aF1.3542780000000001
aF0.818411
aF0.66932700000000001
aF0.48078700000000002
aF0.54511500000000002
aF0.325683
aF0.207314
aF0.20547799999999999
aF1.3114600000000001
aF1.9743520000000001
aF1.0269349999999999
aF0.69161799999999996
aF0.568658
aF0.62390500000000004
aF0.52763199999999999
aF0.26855299999999999
aF0.20971999999999999
aF0.18474499999999999
aF1.7106669999999999
aF2.3468089999999999
aF0.90710500000000005
aF0.58025899999999997
aF0.67445500000000003
aF0.57514799999999999
aF0.47925699999999999
aF0.302788
aF0.25853300000000001
aF0.17851500000000001
aF2.0951309999999999
aF2.5298219999999998
aF0.95084000000000002
aF0.81330899999999995
aF0.67466700000000002
aF0.43503599999999998
aF0.58696700000000002
aF0.37751800000000002
aF0.23413999999999999
aF0.23186100000000001
aF1.462782
aF2.4056259999999998
aF1.1263160000000001
aF0.80932800000000005
aF0.51639800000000002
aF0.73751999999999995
aF0.450789
aF0.29072799999999999
aF0.226297
aF0.19644
aF1.6594439999999999
aF2.3468089999999999
aF0.78189299999999995
aF0.81904600000000005
aF0.65915100000000004
aF0.49492799999999998
aF0.56966499999999998
aF0.280586
aF0.168629
aF0.17733099999999999
aF1.361901
aF2.3468089999999999
aF1.3600000000000001
aF0.71004699999999998
aF0.66122999999999998
aF0.51361100000000004
aF0.63245600000000002
aF0.31411699999999998
aF0.22645199999999999
aF0.19478300000000001
aF0.99363100000000004
aF2.6516500000000001
aF1.2298370000000001
aF0.89747299999999997
aF0.54381199999999996
aF0.68029899999999999
aF0.500718
aF0.37542399999999998
aF0.29205799999999998
aF0.18229100000000001
aF1.893459
aF2.6997460000000002
aF1.185854
aF0.99312299999999998
aF0.52048000000000005
aF0.59784499999999996
aF0.49889499999999998
aF0.38221100000000002
aF0.28675099999999998
aF0.19517100000000001
aF1.390493
aF1.5823100000000001
aF1.1703380000000001
aF0.62180999999999997
aF0.56146700000000005
aF0.66860900000000001
aF0.441
aF0.283138
aF0.24379100000000001
aF0.16945399999999999
aF2.6997460000000002
aF2.5925929999999999
aF1.1525920000000001
aF0.90915500000000005
aF0.58154600000000001
aF0.52337400000000001
aF0.51355099999999998
aF0.41497800000000001
aF0.27681499999999998
aF0.19303400000000001
aF2.4056259999999998
aF2.5925929999999999
aF0.96824600000000005
aF1.0269349999999999
aF0.84852799999999995
aF0.54022899999999996
aF0.443492
aF0.38348199999999999
aF0.26125399999999999
aF0.179227
aF2.4056259999999998
aF2.2908110000000002
aF1.3608279999999999
aF0.53517700000000001
aF0.52214799999999995
aF0.43895699999999999
aF0.55977399999999999
aF0.34464099999999998
aF0.25313799999999997
aF0.17921300000000001
aF1.323385
aF1.4971300000000001
aF1.044678
aF0.96209900000000004
aF0.573461
aF0.44889699999999999
aF0.42998799999999998
aF0.29425099999999998
aF0.20230300000000001
aF0.21109700000000001
aF2.4669110000000001
aF2.4669110000000001
aF1.31877
aF0.70383300000000004
aF0.61545700000000003
aF0.53871100000000005
aF0.54442100000000004
aF0.31787799999999999
aF0.21981700000000001
aF0.211391
aF2.5298219999999998
aF2.5925929999999999
aF0.99227799999999999
aF0.66007400000000005
aF0.49518499999999999
aF0.615587
aF0.46709899999999999
aF0.280607
aF0.18639600000000001
aF0.163185
aF2.4056259999999998
aF2.2908110000000002
aF1.25
aF0.640822
aF0.465696
aF0.46411400000000003
aF0.38973799999999997
aF0.23041400000000001
aF0.31443900000000002
aF0.157891
aF1.9743520000000001
aF2.6997460000000002
aF0.78262399999999999
aF0.87609700000000001
aF0.53871100000000005
aF0.58698799999999995
aF0.44333400000000001
aF0.34831200000000001
aF0.24682299999999999
aF0.216644
aF1.4514549999999999
aF2.5925929999999999
aF1.3281959999999999
aF0.98493200000000003
aF0.63051900000000005
aF0.60111300000000001
aF0.53236600000000001
aF0.31962800000000002
aF0.26388899999999998
aF0.16550899999999999
aF2.6516500000000001
aF2.052667
aF1.2153400000000001
aF1.018519
aF0.71440400000000004
aF0.37047099999999999
aF0.394233
aF0.35622199999999998
aF0.28171400000000002
aF0.224938
aF1.8412790000000001
aF1.462782
aF1.3498730000000001
aF0.713306
aF0.70029699999999995
aF0.65843600000000002
aF0.57984100000000005
aF0.29850199999999999
aF0.26499899999999998
aF0.16843
aF1.3549310000000001
aF1.241404
aF1.026092
aF0.835762
aF0.51489799999999997
aF0.55629099999999998
aF0.51760399999999995
aF0.33899600000000002
aF0.19217000000000001
aF0.225522
aF1.871138
aF1.3439680000000001
aF0.89347799999999999
aF0.82031200000000004
aF0.61511800000000005
aF0.66625199999999996
aF0.46499200000000002
aF0.33044299999999999
aF0.26053300000000001
aF0.241179
aF1.619848
aF1.6799999999999999
aF1.3600000000000001
aF0.88201799999999997
aF0.78237299999999999
aF0.53513699999999997
aF0.496255
aF0.33738800000000002
aF0.24974199999999999
aF0.25153599999999998
aF2.03125
aF2.6516500000000001
aF1.25
aF0.76485999999999998
aF0.614375
aF0.59311100000000005
aF0.54869699999999999
aF0.35617199999999999
aF0.24681600000000001
aF0.20316400000000001
aF2.4669110000000001
aF1.4458789999999999
aF0.76936800000000005
aF0.92820100000000005
aF0.65120299999999998
aF0.50768000000000002
aF0.58560699999999999
aF0.36349700000000001
aF0.27785100000000001
aF0.213172
aF2.1400199999999998
aF1.9319219999999999
aF1.0107660000000001
aF0.97222200000000003
aF0.650509
aF0.67338699999999996
aF0.47061500000000001
aF0.325436
aF0.20291699999999999
aF0.16494500000000001
aF1.121543
aF2.4669110000000001
aF1.040063
aF0.50946899999999995
aF0.72735499999999997
aF0.43168200000000001
aF0.46587099999999998
aF0.28369499999999997
aF0.22867299999999999
aF0.215613
aF1.530931
aF1.2253829999999999
aF1.2105779999999999
aF0.81643900000000003
aF0.364761
aF0.650088
aF0.48828100000000002
aF0.37686199999999997
aF0.26494699999999999
aF0.21842800000000001
aF1.408765
aF0.94720499999999996
aF1.2830010000000001
aF0.82031200000000004
aF0.58146600000000004
aF0.51790000000000003
aF0.56234399999999996
aF0.36330000000000001
aF0.29805399999999999
aF0.20421900000000001
aF1.728888
aF2.6516500000000001
aF1.1925699999999999
aF0.90721799999999997
aF0.58430000000000004
aF0.49706699999999998
aF0.47073999999999999
aF0.39843200000000001
aF0.29531299999999999
aF0.24129900000000001
aF2.5298219999999998
aF2.6997460000000002
aF0.98994899999999997
aF0.85247700000000004
aF0.727244
aF0.57273200000000002
aF0.49179699999999998
aF0.38584499999999999
aF0.211927
aF0.210204
aF2.3468089999999999
aF2.4056259999999998
aF1.0584210000000001
aF0.80116600000000004
aF0.69783899999999999
aF0.63555099999999998
aF0.59155000000000002
aF0.28759400000000002
aF0.220864
aF0.21518499999999999
aF2.5925929999999999
aF1.7010350000000001
aF1.25
aF0.88302199999999997
aF0.63201099999999999
aF0.48835499999999998
aF0.48597200000000002
aF0.277422
aF0.26973200000000003
aF0.20854300000000001
aF2.0124610000000001
aF2.4056259999999998
aF1.2806580000000001
aF0.75171100000000002
aF0.74671200000000004
aF0.47941299999999998
aF0.57723000000000002
aF0.329789
aF0.28057799999999999
aF0.236874
aF2.5298219999999998
aF2.2908110000000002
aF0.97836699999999999
aF0.88118099999999999
aF0.59150999999999998
aF0.56934300000000004
aF0.46183000000000002
aF0.36734800000000001
aF0.26569399999999999
aF0.230993
aF2.1400199999999998
aF2.5925929999999999
aF1.2132689999999999
aF0.82034099999999999
aF0.721688
aF0.62528799999999995
aF0.54647500000000004
aF0.415435
aF0.25348700000000002
aF0.24537100000000001
aF2.5298219999999998
aF2.6516500000000001
aF0.99920900000000001
aF0.82060999999999995
aF0.77751300000000001
aF0.59560000000000002
aF0.61251
aF0.263992
aF0.19244800000000001
aF0.18015
aF1.2858609999999999
aF1.400541
aF0.65000000000000002
aF0.64670099999999997
aF0.55960100000000002
aF0.51071299999999997
aF0.46323599999999998
aF0.37080999999999997
aF0.30036600000000002
aF0.18376999999999999
aF2.3468089999999999
aF1.2153400000000001
aF1.011279
aF0.75445799999999996
aF0.83984000000000003
aF0.44469500000000001
aF0.34815600000000002
aF0.35298299999999999
aF0.30542399999999997
aF0.19565099999999999
aF2.3468089999999999
aF2.052667
aF1.0370980000000001
aF0.99312299999999998
aF0.68359400000000003
aF0.65064699999999998
aF0.57238800000000001
aF0.41708600000000001
aF0.29074299999999997
aF0.18368699999999999
aF2.065591
aF1.9743520000000001
aF0.61889099999999997
aF0.75416700000000003
aF0.65987300000000004
aF0.62941800000000003
aF0.45715299999999998
aF0.31384099999999998
aF0.24251300000000001
aF0.156803
aF2.052667
aF1.462782
aF0.957619
aF0.66813800000000001
aF0.72739299999999996
aF0.57996800000000004
aF0.482848
aF0.34531899999999999
aF0.28168700000000002
aF0.21044299999999999
aF2.4056259999999998
aF2.5925929999999999
aF0.96209900000000004
aF0.83746699999999996
aF0.59255899999999995
aF0.54944800000000005
aF0.45549499999999998
aF0.35777100000000001
aF0.26607599999999998
aF0.20577899999999999
aF1.900658
aF1.314157
aF0.57401000000000002
aF0.75307999999999997
aF0.48531099999999999
aF0.58243999999999996
aF0.42050700000000002
aF0.35528199999999999
aF0.24099499999999999
aF0.16195499999999999
aF1.295099
aF1.383127
aF1.0675209999999999
aF0.85526400000000002
aF0.59255899999999995
aF0.50449900000000003
aF0.52592000000000005
aF0.33803499999999997
aF0.25931599999999999
aF0.20885300000000001
aF2.3468089999999999
aF1.521452
aF0.90710500000000005
aF0.83850499999999994
aF0.57865800000000001
aF0.55149099999999995
aF0.452704
aF0.35311999999999999
aF0.249218
aF0.210505
aF1.323385
aF1.5823100000000001
aF1.1525920000000001
aF0.932419
aF0.46657700000000002
aF0.61994199999999999
aF0.48531099999999999
aF0.334038
aF0.29273300000000002
aF0.22587399999999999
aF1.1808259999999999
aF1.7860860000000001
aF1.3608279999999999
aF0.688774
aF0.78804099999999999
aF0.671408
aF0.51089399999999996
aF0.29287099999999999
aF0.22220999999999999
aF0.206037
aF1.6770510000000001
aF2.5925929999999999
aF0.83926000000000001
aF0.88
aF0.425178
aF0.483823
aF0.44889699999999999
aF0.235182
aF0.245757
aF0.191606
aF2.4056259999999998
aF1.619848
aF1.1808259999999999
aF0.753803
aF0.544991
aF0.57851200000000003
aF0.50709599999999999
aF0.32916899999999999
aF0.273669
aF0.20175199999999999
aF2.052667
aF1.6594439999999999
aF1.070802
aF0.76583800000000002
aF0.76958599999999999
aF0.63176399999999999
aF0.53603100000000004
aF0.37260599999999999
aF0.32746900000000001
aF0.22724800000000001
aF1.332965
aF2.6516500000000001
aF1.3608279999999999
aF0.902555
aF0.80145500000000003
aF0.66759199999999996
aF0.38633499999999998
aF0.25211
aF0.206008
aF0.19050600000000001
aF2.3468089999999999
aF2.6997460000000002
aF1.2830010000000001
aF0.62876799999999999
aF0.80004799999999998
aF0.51314499999999996
aF0.52026700000000003
aF0.34067399999999998
aF0.26407399999999998
aF0.19875000000000001
aF1.997352
aF1.9743520000000001
aF1.2441
aF0.88173299999999999
aF0.62432100000000001
aF0.63225200000000004
aF0.51085000000000003
aF0.38018000000000002
aF0.25122699999999998
aF0.17144100000000001
aF1.506367
aF1.6393899999999999
aF1.356732
aF0.90709799999999996
aF0.62437200000000004
aF0.52332299999999998
aF0.54427899999999996
aF0.340279
aF0.28566599999999998
aF0.25279299999999999
aF2.1928100000000001
aF2.1400199999999998
aF1.3388770000000001
aF0.88291699999999995
aF0.559666
aF0.59536199999999995
aF0.44307299999999999
aF0.39343899999999998
aF0.27847
aF0.20990900000000001
aF2.4056259999999998
aF1.3439680000000001
aF0.65312599999999998
aF0.82054099999999996
aF0.64416799999999996
aF0.64663199999999998
aF0.53390300000000002
aF0.39988899999999999
aF0.25707000000000002
aF0.212533
aF2.2908110000000002
aF1.766526
aF1.049612
aF0.88302199999999997
aF0.67993599999999998
aF0.57572000000000001
aF0.542238
aF0.305085
aF0.214638
aF0.205067
aF2.0124610000000001
aF2.2097090000000001
aF1.0433460000000001
aF0.80059199999999997
aF0.53171100000000004
aF0.51089399999999996
aF0.48990600000000001
aF0.34002100000000002
aF0.25244499999999997
aF0.21828500000000001
aF2.4669110000000001
aF2.5298219999999998
aF1.125715
aF0.95227899999999999
aF0.55996800000000002
aF0.39901900000000001
aF0.34755200000000003
aF0.29170699999999999
aF0.24495400000000001
aF0.182259
aF2.3468089999999999
aF1.521452
aF1.082532
aF0.73974099999999998
aF0.67742400000000003
aF0.43792900000000001
aF0.49378699999999998
aF0.388909
aF0.287638
aF0.18467500000000001
aF2.1875
aF1.4547859999999999
aF1.3608279999999999
aF0.93338100000000002
aF0.67000000000000004
aF0.57207799999999998
aF0.456374
aF0.32937300000000003
aF0.21327499999999999
aF0.24130699999999999
aF2.1875
aF2.5925929999999999
aF0.96225000000000005
aF0.65878599999999998
aF0.51358800000000004
aF0.41055199999999997
aF0.57883499999999999
aF0.37759500000000001
aF0.26373000000000002
aF0.14147000000000001
aF2.4056259999999998
aF2.1400199999999998
aF1.2105779999999999
aF0.85526400000000002
aF0.76767799999999997
aF0.61251
aF0.52026700000000003
aF0.26492399999999999
aF0.18956400000000001
aF0.127972
aF1.734874
aF0.95991000000000004
aF0.902555
aF0.72361200000000003
aF0.55170399999999997
aF0.41227799999999998
aF0.40683900000000001
aF0.32526899999999997
aF0.24107700000000001
aF0.21740899999999999
aF2.6516500000000001
aF1.7010350000000001
aF1.2153400000000001
aF0.66813800000000001
aF0.81935599999999997
aF0.52234499999999995
aF0.48452099999999998
aF0.28812900000000002
aF0.197718
aF0.19847899999999999
aF2.5298219999999998
aF1.9743520000000001
aF1.1427350000000001
aF0.86066299999999996
aF0.61439600000000005
aF0.49089699999999997
aF0.52867699999999995
aF0.33097100000000002
aF0.28276499999999999
aF0.24307100000000001
aF1.9319219999999999
aF1.323385
aF0.95116199999999995
aF0.94951399999999997
aF0.512907
aF0.56999999999999995
aF0.364431
aF0.29935899999999999
aF0.26565
aF0.21380099999999999
aF1.0080199999999999
aF2.3468089999999999
aF0.71333999999999997
aF0.89082899999999998
aF0.70691099999999996
aF0.56240299999999999
aF0.34149400000000002
aF0.218301
aF0.18403900000000001
aF0.2225
aF2.6516500000000001
aF0.72735399999999995
aF0.80116600000000004
aF0.859375
aF0.41456500000000002
aF0.340978
aF0.52724400000000005
aF0.39184400000000003
aF0.27646700000000002
aF0.19878399999999999
aF2.0951309999999999
aF1.997352
aF1.2298370000000001
aF0.59898399999999996
aF0.71412900000000001
aF0.60856500000000002
aF0.48841200000000001
aF0.373782
aF0.30255700000000002
aF0.26179999999999998
aF2.237724
aF2.1400199999999998
aF1.1756450000000001
aF0.98186600000000002
aF0.73741999999999996
aF0.57977299999999998
aF0.53305999999999998
aF0.34642800000000001
aF0.28851300000000002
aF0.200987
aF2.5298219999999998
aF2.2908110000000002
aF0.70183399999999996
aF0.98821199999999998
aF0.86057099999999997
aF0.53015999999999996
aF0.55047100000000004
aF0.374033
aF0.28127200000000002
aF0.19920599999999999
aF1.6393899999999999
aF1.453641
aF0.71274700000000002
aF0.87860700000000003
aF0.76841700000000002
aF0.63097599999999998
aF0.46940100000000001
aF0.30610500000000002
aF0.237318
aF0.25220399999999998
aF2.0951309999999999
aF2.4056259999999998
aF1.111111
aF0.80145500000000003
aF0.75465700000000002
aF0.56695099999999998
aF0.55866499999999997
aF0.346966
aF0.29061900000000002
aF0.19017500000000001
aF2.1650640000000001
aF2.4669110000000001
aF1.266019
aF0.95084000000000002
aF0.695604
aF0.56572
aF0.51226300000000002
aF0.328654
aF0.248948
aF0.21646699999999999
aF2.052667
aF2.6997460000000002
aF1.3608279999999999
aF0.72879300000000002
aF0.62437200000000004
aF0.52375300000000002
aF0.58652599999999999
aF0.31498199999999998
aF0.26916099999999998
aF0.201709
aF2.2908110000000002
aF2.2908110000000002
aF1.199668
aF0.79611299999999996
aF0.58274700000000001
aF0.68767999999999996
aF0.41984300000000002
aF0.39496500000000001
aF0.265343
aF0.21501600000000001
aF1.9319219999999999
aF1.5643039999999999
aF1.2317549999999999
aF0.83984400000000003
aF0.68767999999999996
aF0.62440099999999998
aF0.55356799999999995
aF0.33107700000000001
aF0.22017300000000001
aF0.22506699999999999
aF1.582524
aF2.5298219999999998
aF1.274618
aF0.78543600000000002
aF0.62160300000000002
aF0.54223399999999999
aF0.56524399999999997
aF0.33892099999999997
aF0.177818
aF0.15073
aF2.4056259999999998
aF2.237724
aF1.2806580000000001
aF0.63646899999999995
aF0.62638700000000003
aF0.52047600000000005
aF0.49718400000000001
aF0.26886300000000002
aF0.21775
aF0.18612999999999999
aF1.4915529999999999
aF2.1875
aF0.96225000000000005
aF0.93338100000000002
aF0.66696500000000003
aF0.55311999999999995
aF0.53666199999999997
aF0.35128300000000001
aF0.23722699999999999
aF0.13895299999999999
aF1.462782
aF1.7106669999999999
aF0.94225899999999996
aF0.87384200000000001
aF0.63244400000000001
aF0.57992600000000005
aF0.340702
aF0.318386
aF0.26004300000000002
aF0.18106800000000001
aF1.3834960000000001
aF1.687341
aF1.055194
aF0.61545700000000003
aF0.65511399999999997
aF0.40104499999999998
aF0.35777399999999998
aF0.37536399999999998
aF0.25382500000000002
aF0.18592500000000001
aF1.810303
aF2.0951309999999999
aF1.1574070000000001
aF0.92949599999999999
aF0.73546999999999996
aF0.552284
aF0.548628
aF0.32719700000000002
aF0.23973700000000001
aF0.186996
aF2.4669110000000001
aF2.6516500000000001
aF0.83850499999999994
aF0.76936800000000005
aF0.75467300000000004
aF0.50170800000000004
aF0.34751199999999999
aF0.29039100000000001
aF0.214975
aF0.22859299999999999
aF1.938188
aF1.333191
aF0.71460500000000005
aF0.86400299999999997
aF0.52828699999999995
aF0.54142199999999996
aF0.56920000000000004
aF0.31558999999999998
aF0.226323
aF0.148482
aF1.5823100000000001
aF2.2908110000000002
aF1.138906
aF0.85905399999999998
aF0.50284899999999999
aF0.54610400000000003
aF0.44022600000000001
aF0.27197199999999999
aF0.291134
aF0.181667
aF1.1703380000000001
aF2.6997460000000002
aF1.2117230000000001
aF0.86898299999999995
aF0.695604
aF0.59389999999999998
aF0.56749300000000003
aF0.38442199999999999
aF0.28819
aF0.207565
aF1.810303
aF1.734874
aF1.1859459999999999
aF0.902555
aF0.67338699999999996
aF0.55933299999999997
aF0.59214699999999998
aF0.37185699999999999
aF0.32319500000000001
aF0.217614
aF2.3468089999999999
aF2.2908110000000002
aF1.350873
aF0.92208400000000001
aF0.62422100000000003
aF0.52383999999999997
aF0.46920200000000001
aF0.361066
aF0.241841
aF0.22928599999999999
aF1.477023
aF2.237724
aF1.0524610000000001
aF0.76930600000000005
aF0.60053000000000001
aF0.50965700000000003
aF0.59111100000000005
aF0.38391799999999998
aF0.31321900000000003
aF0.233209
aF2.065591
aF2.6997460000000002
aF1.024556
aF0.727244
aF0.83161700000000005
aF0.71875500000000003
aF0.48013400000000001
aF0.39034400000000002
aF0.27104400000000001
aF0.24368300000000001
aF2.3468089999999999
aF1.3226
aF0.99227799999999999
aF0.96208800000000005
aF0.495614
aF0.62971500000000002
aF0.51461000000000001
aF0.39632699999999998
aF0.27114899999999997
aF0.17817
aF2.6516500000000001
aF1.6000000000000001
aF1.005171
aF0.88388299999999997
aF0.51089399999999996
aF0.66935599999999995
aF0.49848399999999998
aF0.38537300000000002
aF0.30338999999999999
aF0.19420599999999999
aF2.1400199999999998
aF1.568112
aF1.0150319999999999
aF0.58941299999999996
aF0.70216699999999999
aF0.492809
aF0.46963700000000003
aF0.283854
aF0.219083
aF0.17966099999999999
aF2.4669110000000001
aF2.4669110000000001
aF0.80116600000000004
aF0.65878599999999998
aF0.56446099999999999
aF0.46439000000000002
aF0.59680699999999998
aF0.31618000000000002
aF0.20969599999999999
aF0.23863500000000001
aF2.4669110000000001
aF2.065591
aF1.274618
aF0.59150999999999998
aF0.69799500000000003
aF0.51658000000000004
aF0.48990600000000001
aF0.42122599999999999
aF0.216001
aF0.17912800000000001
aF1.3114600000000001
aF1.964186
aF0.97347899999999998
aF0.740699
aF0.47651700000000002
aF0.50199899999999997
aF0.482848
aF0.26828600000000002
aF0.25569799999999998
aF0.20241700000000001
aF0.957619
aF1.76
aF1.0626009999999999
aF0.7984
aF0.58617900000000001
aF0.44225199999999998
aF0.35174499999999997
aF0.324575
aF0.23055500000000001
aF0.176286
aF2.6997460000000002
aF1.9038269999999999
aF1.25
aF0.56692200000000004
aF0.60968800000000001
aF0.63248199999999999
aF0.49378699999999998
aF0.40797899999999998
aF0.28449099999999999
aF0.20339299999999999
aF0.72418899999999997
aF1.7819449999999999
aF1.259822
aF1.0141849999999999
aF0.64003900000000002
aF0.48452099999999998
aF0.39911600000000003
aF0.277476
aF0.28257900000000002
aF0.21115200000000001
aF2.5298219999999998
aF2.1400199999999998
aF1.28
aF0.59315799999999996
aF0.85338499999999995
aF0.71713700000000002
aF0.59150999999999998
aF0.323658
aF0.30723099999999998
aF0.23041800000000001
aF1.8412790000000001
aF2.0999099999999999
aF1.2570079999999999
aF0.65059999999999996
aF0.62205900000000003
aF0.55996800000000002
aF0.53007599999999999
aF0.30413400000000002
aF0.27055499999999999
aF0.21456700000000001
aF2.0124610000000001
aF2.4669110000000001
aF1.089788
aF0.79236600000000001
aF0.69877100000000003
aF0.52156999999999998
aF0.54062100000000002
aF0.344171
aF0.30635200000000001
aF0.20963100000000001
aF2.1334620000000002
aF2.065591
aF1.1574070000000001
aF0.92177500000000001
aF0.61567000000000005
aF0.48422399999999999
aF0.56609799999999999
aF0.34036699999999998
aF0.294068
aF0.20519599999999999
aF1.664855
aF2.237724
aF1.0456829999999999
aF0.87203900000000001
aF0.70937799999999995
aF0.64132100000000003
aF0.55528299999999997
aF0.31644899999999998
aF0.24137
aF0.180449
aF2.3468089999999999
aF1.5643039999999999
aF1.2
aF0.85807299999999997
aF0.53343399999999996
aF0.54442100000000004
aF0.51895899999999995
aF0.36368099999999998
aF0.28725800000000001
aF0.17979200000000001
aF1.7860860000000001
aF2.0124610000000001
aF1.065428
aF0.51229599999999997
aF0.76465899999999998
aF0.70691099999999996
aF0.56170699999999996
aF0.34412799999999999
aF0.230741
aF0.15414600000000001
aF2.6997460000000002
aF2.6516500000000001
aF1.2840119999999999
aF0.705453
aF0.60267700000000002
aF0.53603100000000004
aF0.46664699999999998
aF0.357265
aF0.25812299999999999
aF0.232794
aF2.1875
aF2.2908110000000002
aF0.98843300000000001
aF0.65051400000000004
aF0.55096699999999998
aF0.55657199999999996
aF0.55464100000000005
aF0.30940899999999999
aF0.27679199999999998
aF0.225268
aF2.237724
aF1.552354
aF0.90129099999999995
aF0.93301500000000004
aF0.63788800000000001
aF0.64000000000000001
aF0.51188999999999996
aF0.35075200000000001
aF0.23105899999999999
aF0.209479
aF2.237724
aF1.408765
aF1.266019
aF0.76817599999999997
aF0.68907300000000005
aF0.65684500000000001
aF0.56146700000000005
aF0.37285299999999999
aF0.29988900000000002
aF0.19217000000000001
aF2.3468089999999999
aF2.0999099999999999
aF1.0675209999999999
aF1.0284789999999999
aF0.57442199999999999
aF0.37037500000000001
aF0.32005899999999998
aF0.205951
aF0.224632
aF0.19300400000000001
aF1.854684
aF1.997352
aF1.1552359999999999
aF0.85681700000000005
aF0.59754300000000005
aF0.61251
aF0.52862799999999999
aF0.39840500000000001
aF0.24901300000000001
aF0.24035300000000001
aF2.1400199999999998
aF1.3439680000000001
aF1.2491220000000001
aF0.73905299999999996
aF0.66625199999999996
aF0.65064699999999998
aF0.52863599999999999
aF0.31455100000000003
aF0.26811600000000002
aF0.16903299999999999
aF2.6516500000000001
aF1.6572819999999999
aF1.111111
aF0.71459399999999995
aF0.59291199999999999
aF0.473306
aF0.60267700000000002
aF0.36350700000000002
aF0.273588
aF0.20380499999999999
aF2.0124610000000001
aF1.466261
aF0.93301500000000004
aF0.64119000000000004
aF0.50980599999999998
aF0.543493
aF0.40246599999999999
aF0.26212600000000003
aF0.16952800000000001
aF0.116216
aF1.813169
aF2.1928100000000001
aF1.3114600000000001
aF0.70383300000000004
aF0.59403300000000003
aF0.478854
aF0.49138300000000001
aF0.36726700000000001
aF0.29125000000000001
aF0.199464
aF1.7888539999999999
aF1.938188
aF0.78440399999999999
aF0.95754899999999998
aF0.76316200000000001
aF0.65643300000000004
aF0.53919099999999998
aF0.38839499999999999
aF0.194941
aF0.132663
aF1.325825
aF1.199668
aF1.2728139999999999
aF0.88217999999999996
aF0.71474199999999999
aF0.48236299999999999
aF0.38954499999999997
aF0.39421299999999998
aF0.246285
aF0.18981600000000001
aF1.477023
aF2.1400199999999998
aF1.2132689999999999
aF0.818411
aF0.71004699999999998
aF0.62160300000000002
aF0.53830199999999995
aF0.36791499999999999
aF0.27981400000000001
aF0.162191
aF1.4123410000000001
aF2.0124610000000001
aF1.212383
aF0.90709799999999996
aF0.51757200000000003
aF0.45660899999999999
aF0.40994599999999998
aF0.23600299999999999
aF0.28459899999999999
aF0.241953
aF2.6997460000000002
aF2.3468089999999999
aF0.63123499999999999
aF0.75287599999999999
aF0.86028400000000005
aF0.47497600000000001
aF0.51639800000000002
aF0.33468999999999999
aF0.30654300000000001
aF0.20147899999999999
aF1.472756
aF2.6997460000000002
aF0.84786600000000001
aF1.022391
aF0.60815300000000005
aF0.45787699999999998
aF0.43876799999999999
aF0.270264
aF0.245756
aF0.157031
aF2.6516500000000001
aF1.938188
aF0.89521099999999998
aF0.80116600000000004
aF0.62941800000000003
aF0.50440799999999997
aF0.39213100000000001
aF0.281754
aF0.208091
aF0.15660299999999999
aF2.237724
aF2.4669110000000001
aF1.31877
aF0.87203900000000001
aF0.66935599999999995
aF0.52789900000000001
aF0.49293999999999999
aF0.33324100000000001
aF0.22861400000000001
aF0.16774700000000001
aF1.5823100000000001
aF1.871138
aF0.90369600000000005
aF0.88118099999999999
aF0.63947299999999996
aF0.48337400000000003
aF0.39883800000000003
aF0.34503299999999998
aF0.24491499999999999
aF0.23721800000000001
aF1.3425929999999999
aF1.195335
aF0.94672900000000004
aF0.91594900000000001
aF0.68359800000000004
aF0.55040299999999998
aF0.54381199999999996
aF0.36078300000000002
aF0.26881500000000003
aF0.23676700000000001
aF1.2728139999999999
aF2.1400199999999998
aF1.1600969999999999
aF0.88005299999999997
aF0.76360399999999995
aF0.646428
aF0.60711400000000004
aF0.34954600000000002
aF0.24938299999999999
aF0.174682
aF2.2908110000000002
aF1.875
aF1.2610189999999999
aF0.90710500000000005
aF0.69281999999999999
aF0.58145599999999997
aF0.40248400000000001
aF0.36610199999999998
aF0.28625600000000001
aF0.25699699999999998
aF2.1400199999999998
aF2.5298219999999998
aF1.2705820000000001
aF0.59056900000000001
aF0.57996800000000004
aF0.50478100000000004
aF0.54978400000000005
aF0.38335999999999998
aF0.24918799999999999
aF0.248418
aF1.9319219999999999
aF2.237724
aF1.1200680000000001
aF0.81503000000000003
aF0.67081999999999997
aF0.625
aF0.53861599999999998
aF0.39830300000000002
aF0.28677399999999997
aF0.20096700000000001
aF1.766526
aF1.6393899999999999
aF1.0524610000000001
aF0.92699500000000001
aF0.64287000000000005
aF0.55306500000000003
aF0.43600800000000001
aF0.24210799999999999
aF0.23084299999999999
aF0.17017399999999999
aF2.1875
aF1.6474599999999999
aF1.269218
aF0.89082899999999998
aF0.62417299999999998
aF0.53998900000000005
aF0.39722099999999999
aF0.32141199999999998
aF0.16442000000000001
aF0.22959099999999999
aF1.8412790000000001
aF2.1875
aF0.81762999999999997
aF0.82934699999999995
aF0.67543600000000004
aF0.69877100000000003
aF0.59311100000000005
aF0.33985900000000002
aF0.23964299999999999
aF0.20374999999999999
aF2.03125
aF1.481481
aF1.158744
aF0.74900699999999998
aF0.64416799999999996
aF0.65505500000000005
aF0.42621100000000001
aF0.38994200000000001
aF0.28533599999999998
aF0.20391000000000001
aF1.854684
aF1.9319219999999999
aF1.0686070000000001
aF0.94868300000000005
aF0.81935599999999997
aF0.650509
aF0.52277300000000004
aF0.30349799999999999
aF0.27438000000000001
aF0.2142
aF1.423025
aF1.7860860000000001
aF0.96157800000000004
aF0.75820100000000001
aF0.70610899999999999
aF0.63478100000000004
aF0.50470800000000005
aF0.36865199999999998
aF0.29616900000000002
aF0.19198899999999999
aF1.4363109999999999
aF1.4123410000000001
aF0.78519600000000001
aF0.96157800000000004
aF0.76367499999999999
aF0.60633000000000004
aF0.56240299999999999
aF0.33455200000000002
aF0.23408699999999999
aF0.21743699999999999
aF1.664855
aF1.1703380000000001
aF1.3114600000000001
aF1.002265
aF0.78022499999999995
aF0.64800599999999997
aF0.60562400000000005
aF0.384465
aF0.286055
aF0.23472399999999999
aF1.4123410000000001
aF2.2908110000000002
aF1.3094570000000001
aF0.93218000000000001
aF0.70241900000000002
aF0.632772
aF0.42180800000000002
aF0.40003100000000003
aF0.24457000000000001
aF0.16717899999999999
aF2.3468089999999999
aF1.7106669999999999
aF1.2037040000000001
aF0.75337100000000001
aF0.444772
aF0.48298000000000002
aF0.52490099999999995
aF0.37830200000000003
aF0.26778800000000003
aF0.20508699999999999
aF2.4056259999999998
aF1.212383
aF1.2840119999999999
aF0.869058
aF0.794373
aF0.57422799999999996
aF0.48611100000000002
aF0.34975800000000001
aF0.296045
aF0.17641299999999999
aF2.4056259999999998
aF2.2908110000000002
aF1.2132689999999999
aF0.93105300000000002
aF0.53740600000000005
aF0.48114499999999999
aF0.40855799999999998
aF0.27810699999999999
aF0.208342
aF0.162387
aF1.6594439999999999
aF1.448836
aF0.99920900000000001
aF0.75023099999999998
aF0.664551
aF0.64663199999999998
aF0.46620099999999998
aF0.28839999999999999
aF0.20436399999999999
aF0.201709
aF1.7860860000000001
aF1.997352
aF1.005171
aF0.75023099999999998
aF0.64879699999999996
aF0.58318800000000004
aF0.46073500000000001
aF0.331488
aF0.24518899999999999
aF0.173318
aF2.3468089999999999
aF1.662612
aF0.76171900000000003
aF0.98672599999999999
aF0.70821599999999996
aF0.38803199999999999
aF0.56441200000000002
aF0.27734399999999998
aF0.29141
aF0.21065400000000001
aF2.237724
aF1.76
aF1.095445
aF0.69999999999999996
aF0.72735899999999998
aF0.61631599999999997
aF0.51419300000000001
aF0.39567200000000002
aF0.28849000000000002
aF0.247276
aF2.6516500000000001
aF1.3362430000000001
aF0.99990599999999996
aF0.86030899999999999
aF0.68038699999999996
aF0.64132100000000003
aF0.35134100000000001
aF0.237955
aF0.19672100000000001
aF0.183891
aF1.2380059999999999
aF2.4669110000000001
aF0.77934999999999999
aF0.98540399999999995
aF0.65835399999999999
aF0.45623399999999997
aF0.45524199999999998
aF0.29326600000000003
aF0.26205899999999999
aF0.21488199999999999
aF2.6516500000000001
aF1.997352
aF1.057736
aF0.91847199999999996
aF0.62638700000000003
aF0.67543600000000004
aF0.57980100000000001
aF0.30610500000000002
aF0.235707
aF0.15059400000000001
aF2.2908110000000002
aF2.1400199999999998
aF1.3388770000000001
aF0.72573600000000005
aF0.69078499999999998
aF0.54869699999999999
aF0.50570999999999999
aF0.342947
aF0.218193
aF0.16683799999999999
aF1.600822
aF2.1400199999999998
aF1.0667310000000001
aF0.99436899999999995
aF0.64119000000000004
aF0.538933
aF0.48934
aF0.36562099999999997
aF0.240283
aF0.25715100000000002
aF2.052667
aF1.619848
aF1.3094570000000001
aF0.95935400000000004
aF0.59754300000000005
aF0.53368400000000005
aF0.52977399999999997
aF0.34749000000000002
aF0.23470199999999999
aF0.15546299999999999
aF2.2908110000000002
aF1.216224
aF1.1756450000000001
aF1.0141849999999999
aF0.76171900000000003
aF0.52229499999999995
aF0.438365
aF0.320747
aF0.177145
aF0.17022799999999999
aF2.1875
aF1.6000000000000001
aF1.25
aF0.56811100000000003
aF0.77587799999999996
aF0.56524399999999997
aF0.552427
aF0.35134500000000002
aF0.241725
aF0.20705599999999999
aF1.8412790000000001
aF1.734874
aF1.074802
aF0.95837399999999995
aF0.67215400000000003
aF0.552284
aF0.47482400000000002
aF0.39059300000000002
aF0.23066200000000001
aF0.15481400000000001
aF2.4669110000000001
aF1.5467960000000001
aF1.2074510000000001
aF0.66918900000000003
aF0.74600900000000003
aF0.62804899999999997
aF0.50274200000000002
aF0.21803900000000001
aF0.172761
aF0.20916199999999999
aF1.964186
aF2.3468089999999999
aF1.0182340000000001
aF0.98540399999999995
aF0.68942000000000003
aF0.60476300000000005
aF0.48378900000000002
aF0.31865700000000002
aF0.26802599999999999
aF0.21526300000000001
aF2.3468089999999999
aF2.237724
aF0.83355599999999996
aF0.82054099999999996
aF0.56920000000000004
aF0.56115300000000001
aF0.600943
aF0.33307300000000001
aF0.21554400000000001
aF0.15345600000000001
aF2.5298219999999998
aF2.3468089999999999
aF1.3542780000000001
aF0.82230400000000003
aF0.55750100000000002
aF0.61491899999999999
aF0.44672699999999999
aF0.219192
aF0.17490800000000001
aF0.14760200000000001
aF1.6594439999999999
aF2.237724
aF1.0256829999999999
aF0.62663100000000005
aF0.62126899999999996
aF0.65189399999999997
aF0.60741500000000004
aF0.35707
aF0.284972
aF0.17578099999999999
aF1.568112
aF1.4363109999999999
aF0.80059199999999997
aF0.83519100000000002
aF0.75403900000000001
aF0.60633899999999996
aF0.43062800000000001
aF0.29091
aF0.26770100000000002
aF0.225629
aF1.333191
aF1.813169
aF1.3388770000000001
aF0.799925
aF0.74218799999999996
aF0.68962999999999997
aF0.53088100000000005
aF0.360844
aF0.25589899999999999
aF0.149812
aF1.813169
aF2.6516500000000001
aF1.185854
aF0.88118099999999999
aF0.82671700000000004
aF0.48445500000000002
aF0.435664
aF0.20796999999999999
aF0.22506699999999999
aF0.17966099999999999
aF2.5925929999999999
aF1.712016
aF0.78121600000000002
aF0.818411
aF0.70029699999999995
aF0.52048000000000005
aF0.44206000000000001
aF0.32831100000000002
aF0.28426400000000002
aF0.22928599999999999
aF0.73424900000000004
aF1.4331560000000001
aF1.3388770000000001
aF0.81904600000000005
aF0.68962999999999997
aF0.55464899999999995
aF0.52914799999999995
aF0.355489
aF0.26520700000000003
aF0.21027699999999999
aF2.5298219999999998
aF2.3468089999999999
aF1.1756450000000001
aF0.70198499999999997
aF0.47400900000000001
aF0.465696
aF0.38062499999999999
aF0.277503
aF0.205765
aF0.212697
aF2.6997460000000002
aF2.1875
aF0.882637
aF0.84548100000000004
aF0.64738099999999998
aF0.453926
aF0.476468
aF0.35371200000000003
aF0.243253
aF0.17503299999999999
aF1.83324
aF2.5298219999999998
aF1.3416410000000001
aF0.88302199999999997
aF0.58430000000000004
aF0.424929
aF0.38793899999999998
aF0.22461
aF0.27862300000000001
aF0.19567200000000001
aF1.423025
aF2.5925929999999999
aF1.3281959999999999
aF0.67930400000000002
aF0.61392599999999997
aF0.69428400000000001
aF0.56740000000000002
aF0.38922800000000002
aF0.26071
aF0.20567199999999999
aF1.536789
aF1.854684
aF1.0836220000000001
aF0.67806699999999998
aF0.75485100000000005
aF0.67338699999999996
aF0.56158799999999998
aF0.36952699999999999
aF0.20961099999999999
aF0.18038399999999999
aF1.448836
aF2.237724
aF1.2171609999999999
aF0.80641600000000002
aF0.62848000000000004
aF0.65511399999999997
aF0.54173000000000004
aF0.35237099999999999
aF0.21079400000000001
aF0.17063
aF2.4669110000000001
aF1.938188
aF0.88080700000000001
aF0.50595599999999996
aF0.70691099999999996
aF0.44055899999999998
aF0.41805900000000001
aF0.33018900000000001
aF0.25497700000000001
aF0.21684600000000001
aF2.5925929999999999
aF1.4848600000000001
aF0.99363100000000004
aF0.94672900000000004
aF0.77838799999999997
aF0.46046999999999999
aF0.5
aF0.369232
aF0.25784400000000002
aF0.18704399999999999
aF2.5298219999999998
aF2.6997460000000002
aF1.015889
aF0.97836699999999999
aF0.72581899999999999
aF0.49027900000000002
aF0.54635100000000003
aF0.29236400000000001
aF0.263683
aF0.176061
aF2.4056259999999998
aF1.530931
aF1.0994079999999999
aF0.79236600000000001
aF0.70006199999999996
aF0.51774699999999996
aF0.438365
aF0.30029099999999997
aF0.29198200000000002
aF0.21931700000000001
aF2.6516500000000001
aF2.4669110000000001
aF0.96981200000000001
aF0.79236600000000001
aF0.68587100000000001
aF0.47822500000000001
aF0.53875799999999996
aF0.353717
aF0.33155400000000002
aF0.22536400000000001
aF2.6997460000000002
aF1.417367
aF1.0885180000000001
aF0.83258399999999999
aF0.69101599999999996
aF0.53631200000000001
aF0.54772299999999996
aF0.28118399999999999
aF0.14249999999999999
aF0.14133100000000001
aF1.4915529999999999
aF1.712016
aF1.259822
aF0.96166499999999999
aF0.42216999999999999
aF0.352659
aF0.60711400000000004
aF0.36865999999999999
aF0.31303900000000001
aF0.21382999999999999
aF1.72251
aF2.5298219999999998
aF0.96005799999999997
aF0.75403900000000001
aF0.74218799999999996
aF0.47918699999999997
aF0.52941499999999997
aF0.32662099999999999
aF0.22311700000000001
aF0.169378
aF2.2908110000000002
aF0.96157800000000004
aF0.90378999999999998
aF0.71440400000000004
aF0.51188999999999996
aF0.39098899999999998
aF0.45558199999999999
aF0.199711
aF0.168707
aF0.21284400000000001
aF1.1314390000000001
aF1.30444
aF1.2166809999999999
aF0.66978199999999999
aF0.68404299999999996
aF0.36562099999999997
aF0.39494299999999999
aF0.29627700000000001
aF0.25430599999999998
aF0.20966699999999999
aF1.2132689999999999
aF2.6997460000000002
aF0.99361699999999997
aF0.66935599999999995
aF0.63956999999999997
aF0.64945799999999998
aF0.534609
aF0.40320699999999998
aF0.289906
aF0.19267300000000001
aF2.3468089999999999
aF1.530931
aF0.86919199999999996
aF0.78512499999999996
aF0.56446099999999999
aF0.47226200000000002
aF0.42210599999999998
aF0.28369499999999997
aF0.212427
aF0.156088
aF2.5925929999999999
aF2.4669110000000001
aF0.67549300000000001
aF0.81503000000000003
aF0.73463800000000001
aF0.59255899999999995
aF0.53497899999999998
aF0.28717999999999999
aF0.25243399999999999
aF0.201875
aF1.7888539999999999
aF2.052667
aF1.1563030000000001
aF0.92592600000000003
aF0.80004799999999998
aF0.47882400000000003
aF0.42818299999999998
aF0.36921500000000002
aF0.29439799999999999
aF0.22189300000000001
aF1.7106669999999999
aF0.90369600000000005
aF1.0465180000000001
aF0.96049300000000004
aF0.73978299999999997
aF0.67919099999999999
aF0.41790500000000003
aF0.36599100000000001
aF0.27036900000000003
aF0.25283499999999998
aF2.6516500000000001
aF2.1875
aF0.835762
aF0.66958600000000001
aF0.70617099999999999
aF0.62804899999999997
aF0.40602500000000002
aF0.32892100000000002
aF0.30028199999999999
aF0.225184
aF2.237724
aF1.3959889999999999
aF1.054203
aF0.86541999999999997
aF0.72447099999999998
aF0.634108
aF0.54481900000000005
aF0.38568000000000002
aF0.218586
aF0.17602499999999999
aF1.643168
aF0.98672599999999999
aF0.90950900000000001
aF1.008815
aF0.39887600000000001
aF0.44122299999999998
aF0.42180800000000002
aF0.29854199999999997
aF0.219192
aF0.219142
aF2.4056259999999998
aF2.2908110000000002
aF0.93339000000000005
aF0.90369600000000005
aF0.69877100000000003
aF0.57238800000000001
aF0.58318800000000004
aF0.35510199999999997
aF0.27150600000000003
aF0.20997199999999999
aF1.766526
aF1.7106669999999999
aF1.1906969999999999
aF0.83654700000000004
aF0.802508
aF0.62327699999999997
aF0.584731
aF0.32817800000000003
aF0.27649000000000001
aF0.21997700000000001
aF1.6474599999999999
aF2.0124610000000001
aF0.84194999999999998
aF0.75467300000000004
aF0.76465899999999998
aF0.64898400000000001
aF0.52047600000000005
aF0.39103700000000002
aF0.27850799999999998
aF0.20711099999999999
aF1.1200680000000001
aF1.7548349999999999
aF0.78440399999999999
aF0.54935
aF0.70821599999999996
aF0.63819899999999996
aF0.54220500000000005
aF0.40248499999999998
aF0.24452399999999999
aF0.24223
aF1.9319219999999999
aF1.76
aF1.25
aF0.71123000000000003
aF0.71470599999999995
aF0.471111
aF0.53027999999999997
aF0.34861399999999998
aF0.235788
aF0.211031
aF1.810303
aF2.237724
aF1.0663720000000001
aF0.96049300000000004
aF0.64034800000000003
aF0.661547
aF0.512575
aF0.37047099999999999
aF0.27515499999999998
aF0.22440499999999999
aF2.1334620000000002
aF2.2908110000000002
aF0.75024100000000005
aF0.78388400000000003
aF0.673844
aF0.53888800000000003
aF0.53591900000000003
aF0.35817700000000002
aF0.25172899999999998
aF0.24002299999999999
aF2.4056259999999998
aF2.2908110000000002
aF1.2806580000000001
aF0.74218799999999996
aF0.79993599999999998
aF0.45915099999999998
aF0.50803500000000001
aF0.34241500000000002
aF0.26186100000000001
aF0.19950100000000001
aF2.3468089999999999
aF1.530931
aF1.3094570000000001
aF0.67000000000000004
aF0.69130100000000005
aF0.56424099999999999
aF0.55139400000000005
aF0.33393699999999998
aF0.30344900000000002
aF0.213833
aF2.5298219999999998
aF1.9743520000000001
aF1.003711
aF0.80230699999999999
aF0.59994400000000003
aF0.63947299999999996
aF0.45267499999999999
aF0.30822100000000002
aF0.23114999999999999
aF0.18601500000000001
aF2.4056259999999998
aF2.052667
aF1.2166809999999999
aF0.81598800000000005
aF0.695604
aF0.53343399999999996
aF0.57727399999999995
aF0.39896799999999999
aF0.28242
aF0.173455
aF1.1859459999999999
aF1.619848
aF1.160137
aF0.96166499999999999
aF0.62431599999999998
aF0.64080300000000001
aF0.33015499999999998
aF0.25193199999999999
aF0.206173
aF0.16551099999999999
aF2.3468089999999999
aF1.574074
aF1.1906969999999999
aF0.66409799999999997
aF0.54442100000000004
aF0.46875
aF0.39930599999999999
aF0.308307
aF0.205819
aF0.17749799999999999
aF1.712016
aF1.303952
aF0.86028400000000005
aF0.49246600000000001
aF0.64900500000000005
aF0.57794800000000002
aF0.45915099999999998
aF0.329428
aF0.20299200000000001
aF0.21820600000000001
aF2.4056259999999998
aF1.2166250000000001
aF1.104644
aF0.80116600000000004
aF0.69101599999999996
aF0.54427899999999996
aF0.43892199999999998
aF0.32141199999999998
aF0.24787100000000001
aF0.241704
aF1.3834960000000001
aF1.3325549999999999
aF1.206869
aF0.94434600000000002
aF0.72526800000000002
aF0.58024600000000004
aF0.58593799999999996
aF0.34266200000000002
aF0.26843
aF0.21654799999999999
aF2.0951309999999999
aF1.964186
aF1.3577269999999999
aF0.95521100000000003
aF0.59328599999999998
aF0.623089
aF0.44812999999999997
aF0.30317
aF0.24882000000000001
aF0.175791
aF1.552354
aF1.811177
aF1.054203
aF0.89521099999999998
aF0.51583699999999999
aF0.58309
aF0.56146700000000005
aF0.26718599999999998
aF0.22789599999999999
aF0.24373500000000001
aF2.6516500000000001
aF1.5696870000000001
aF0.90709799999999996
aF0.71875500000000003
aF0.78467399999999998
aF0.55388300000000001
aF0.51140300000000005
aF0.29600100000000001
aF0.26825900000000003
aF0.207702
aF1.371521
aF1.568112
aF1.2037040000000001
aF0.91796900000000003
aF0.78110100000000005
aF0.64453099999999997
aF0.57291499999999995
aF0.32490799999999997
aF0.25283800000000001
aF0.18437600000000001
aF1.2728139999999999
aF2.6997460000000002
aF1.0626009999999999
aF0.99036999999999997
aF0.82369400000000004
aF0.57409900000000003
aF0.485371
aF0.28472799999999998
aF0.24785799999999999
aF0.194024
aF1.8412790000000001
aF2.6997460000000002
aF0.76839500000000005
aF0.794373
aF0.68359400000000003
aF0.364396
aF0.56241399999999997
aF0.32284499999999999
aF0.23583499999999999
aF0.18634500000000001
aF1.2885329999999999
aF1.496834
aF1.2705820000000001
aF0.63742500000000002
aF0.73833000000000004
aF0.57913199999999998
aF0.41974699999999998
aF0.28794199999999998
aF0.25089499999999998
aF0.170406
aF2.237724
aF2.065591
aF1.3498730000000001
aF0.78868000000000005
aF0.56850599999999996
aF0.51519000000000004
aF0.40666799999999997
aF0.38946500000000001
aF0.29100500000000001
aF0.211615
aF1.5643039999999999
aF1.529773
aF1.0862289999999999
aF0.957619
aF0.75355300000000003
aF0.62440099999999998
aF0.55113000000000001
aF0.35641299999999998
aF0.19802800000000001
aF0.19922599999999999
aF2.5298219999999998
aF2.1400199999999998
aF1.25
aF0.65835399999999999
aF0.66202799999999995
aF0.49246600000000001
aF0.61238999999999999
aF0.33140700000000001
aF0.24702399999999999
aF0.15612599999999999
aF1.6393899999999999
aF2.237724
aF1.199668
aF0.83926000000000001
aF0.78011200000000003
aF0.59902
aF0.416684
aF0.268955
aF0.15454300000000001
aF0.1618
aF2.4056259999999998
aF2.6516500000000001
aF1.3608279999999999
aF0.713306
aF0.51099499999999998
aF0.480186
aF0.49720500000000001
aF0.27835599999999999
aF0.23676700000000001
aF0.15965399999999999
aF2.5298219999999998
aF2.6516500000000001
aF1.3416410000000001
aF0.787466
aF0.51448799999999995
aF0.53157299999999996
aF0.401584
aF0.292041
aF0.19602800000000001
aF0.139986
aF1.83324
aF1.8412790000000001
aF1.095445
aF0.63555099999999998
aF0.38689000000000001
aF0.40209699999999998
aF0.54223399999999999
aF0.35376600000000002
aF0.25540000000000002
aF0.20511199999999999
aF1.25
aF2.1334620000000002
aF1.049563
aF0.95521100000000003
aF0.75485100000000005
aF0.63646899999999995
aF0.53356000000000003
aF0.379664
aF0.269204
aF0.21326899999999999
aF2.237724
aF1.361901
aF1.3577269999999999
aF0.94434600000000002
aF0.76367499999999999
aF0.60383299999999995
aF0.46587099999999998
aF0.326708
aF0.21341199999999999
aF0.169678
aF1.5106930000000001
aF2.1400199999999998
aF0.99033199999999999
aF0.76583800000000002
aF0.63947299999999996
aF0.53875799999999996
aF0.51355099999999998
aF0.26711000000000001
aF0.23666999999999999
aF0.13874800000000001
aF1.390493
aF1.381068
aF0.99312299999999998
aF0.71113599999999999
aF0.41900300000000001
aF0.695604
aF0.57996800000000004
aF0.34265600000000002
aF0.27020300000000003
aF0.21102199999999999
aF1.6904319999999999
aF2.3468089999999999
aF1.356732
aF0.93301500000000004
aF0.68746499999999999
aF0.60030799999999995
aF0.46258500000000002
aF0.35058400000000001
aF0.25058799999999998
aF0.23205799999999999
aF1.462782
aF2.2908110000000002
aF1.026092
aF0.90262299999999995
aF0.58025899999999997
aF0.66544899999999996
aF0.41994100000000001
aF0.38655899999999999
aF0.28325099999999998
aF0.22961100000000001
aF1.2491220000000001
aF1.4971300000000001
aF1.0433460000000001
aF0.59391400000000005
aF0.71459399999999995
aF0.68044199999999999
aF0.43273600000000001
aF0.38260899999999998
aF0.28619
aF0.201463
aF1.643168
aF2.4669110000000001
aF1.28
aF0.88291699999999995
aF0.68226900000000001
aF0.544296
aF0.45438499999999998
aF0.426898
aF0.28024500000000002
aF0.21168000000000001
aF2.5925929999999999
aF1.909009
aF0.75480400000000003
aF0.83519100000000002
aF0.76878100000000005
aF0.67338699999999996
aF0.45457700000000001
aF0.38234000000000001
aF0.29202400000000001
aF0.23039000000000001
aF2.1400199999999998
aF2.5925929999999999
aF1.0465180000000001
aF0.56293599999999999
aF0.77337999999999996
aF0.69201599999999996
aF0.48976199999999998
aF0.32074200000000003
aF0.25580399999999998
aF0.216309
aF1.1030869999999999
aF2.5298219999999998
aF1.3608279999999999
aF0.96209900000000004
aF0.691272
aF0.57054400000000005
aF0.55283599999999999
aF0.34575499999999998
aF0.250137
aF0.22738900000000001
aF1.635275
aF2.4669110000000001
aF1.148299
aF0.89648700000000003
aF0.601854
aF0.44543500000000003
aF0.44469500000000001
aF0.313197
aF0.25733800000000001
aF0.194633
aF2.1334620000000002
aF1.83324
aF1.0626009999999999
aF0.87463599999999997
aF0.67081999999999997
aF0.55722899999999997
aF0.54011500000000001
aF0.31360500000000002
aF0.26237100000000002
aF0.17294100000000001
aF2.0951309999999999
aF1.870439
aF1.350873
aF0.68767999999999996
aF0.64738099999999998
aF0.56761200000000001
aF0.39830300000000002
aF0.30408499999999999
aF0.19186700000000001
aF0.191773
aF1.3388770000000001
aF2.065591
aF1.3416410000000001
aF0.740116
aF0.72520399999999996
aF0.46190799999999999
aF0.47814600000000002
aF0.30635099999999998
aF0.210812
aF0.13514399999999999
aF2.5298219999999998
aF1.7010350000000001
aF0.61194400000000004
aF0.59784499999999996
aF0.56000000000000005
aF0.54979900000000004
aF0.555813
aF0.40784900000000002
aF0.28351700000000002
aF0.20688599999999999
aF2.6516500000000001
aF2.0124610000000001
aF1.3281959999999999
aF0.98843300000000001
aF0.82053699999999996
aF0.60741500000000004
aF0.43479099999999998
aF0.40291100000000002
aF0.25748100000000002
aF0.229958
aF2.5925929999999999
aF1.5106930000000001
aF0.87991699999999995
aF1.002265
aF0.72632300000000005
aF0.64471900000000004
aF0.44292199999999998
aF0.363595
aF0.29326600000000003
aF0.19503699999999999
aF2.3468089999999999
aF1.870439
aF0.85048000000000001
aF0.71470599999999995
aF0.649038
aF0.50726400000000005
aF0.37587900000000002
aF0.325683
aF0.19328400000000001
aF0.16520299999999999
aF1.536789
aF2.0999099999999999
aF0.99361699999999997
aF0.86032299999999995
aF0.59902
aF0.41826099999999999
aF0.53302499999999997
aF0.30860300000000002
aF0.240256
aF0.22522400000000001
aF1.9743520000000001
aF1.9319219999999999
aF0.83984000000000003
aF0.93338100000000002
aF0.82671700000000004
aF0.63389300000000004
aF0.50170800000000004
aF0.39060800000000001
aF0.28459899999999999
aF0.21080599999999999
aF2.2908110000000002
aF1.0150319999999999
aF0.927342
aF0.85701000000000005
aF0.63956999999999997
aF0.60111300000000001
aF0.54328500000000002
aF0.321878
aF0.261237
aF0.21809000000000001
aF2.237724
aF2.237724
aF1.3325549999999999
aF0.73974099999999998
aF0.77337999999999996
aF0.62042799999999998
aF0.57067199999999996
aF0.38042100000000001
aF0.235986
aF0.229741
aF2.6997460000000002
aF2.5925929999999999
aF1.359877
aF0.90793400000000002
aF0.59902
aF0.52690899999999996
aF0.59200299999999995
aF0.322689
aF0.214916
aF0.20257500000000001
aF1.997352
aF1.811177
aF1.022391
aF0.60772199999999998
aF0.57918700000000001
aF0.52800499999999995
aF0.58125899999999997
aF0.37763799999999997
aF0.244334
aF0.20333799999999999
aF2.237724
aF2.2908110000000002
aF1.3094570000000001
aF0.75175800000000004
aF0.68080300000000005
aF0.52867699999999995
aF0.42886000000000002
aF0.317579
aF0.17844399999999999
aF0.13705100000000001
aF2.4056259999999998
aF1.529773
aF0.93162199999999995
aF0.75023099999999998
aF0.52404399999999995
aF0.33021
aF0.28847299999999998
aF0.25185200000000002
aF0.29648200000000002
aF0.23590700000000001
aF1.810303
aF1.72251
aF0.89442699999999997
aF0.695604
aF0.56218299999999999
aF0.64898400000000001
aF0.51133300000000004
aF0.36350399999999999
aF0.259741
aF0.14249999999999999
aF1.4971300000000001
aF2.0951309999999999
aF0.68587100000000001
aF0.89991500000000002
aF0.64080300000000001
aF0.57369599999999998
aF0.34857199999999999
aF0.30316199999999999
aF0.19711699999999999
aF0.154083
aF1.568112
aF0.85991899999999999
aF1.2806580000000001
aF0.80165200000000003
aF0.47673100000000002
aF0.48020400000000002
aF0.36025499999999999
aF0.25356699999999999
aF0.214335
aF0.234546
aF1.409373
aF1.5643039999999999
aF1.1496379999999999
aF0.87524400000000002
aF0.60711899999999996
aF0.60599400000000003
aF0.53298100000000004
aF0.31503300000000001
aF0.27585300000000001
aF0.20496600000000001
aF2.5925929999999999
aF1.2806949999999999
aF1.1605179999999999
aF0.99195
aF0.68226900000000001
aF0.63245600000000002
aF0.39875899999999997
aF0.33194299999999999
aF0.27765800000000002
aF0.23127300000000001
aF2.6997460000000002
aF2.5298219999999998
aF1.2074510000000001
aF0.61558299999999999
aF0.66813800000000001
aF0.62420399999999998
aF0.53356000000000003
aF0.39777899999999999
aF0.30357899999999999
aF0.22387699999999999
aF1.6799999999999999
aF2.6997460000000002
aF1.266019
aF0.750336
aF0.57996800000000004
aF0.43669599999999997
aF0.44651099999999999
aF0.31758999999999998
aF0.245
aF0.22887199999999999
aF1.3439680000000001
aF2.5925929999999999
aF1.0663720000000001
aF0.95754899999999998
aF0.71274700000000002
aF0.68746499999999999
aF0.48498400000000003
aF0.25595400000000001
aF0.19202
aF0.161352
aF2.4669110000000001
aF1.1552359999999999
aF1.3388770000000001
aF0.62804899999999997
aF0.55040299999999998
aF0.59754300000000005
aF0.43351899999999999
aF0.35355300000000001
aF0.205927
aF0.20199800000000001
aF1.900658
aF1.7888539999999999
aF1.0433460000000001
aF0.68041399999999996
aF0.61238999999999999
aF0.43870900000000002
aF0.53743399999999997
aF0.30518499999999998
aF0.18356500000000001
aF0.180342
aF1.9743520000000001
aF2.0951309999999999
aF1.275776
aF1.0141849999999999
aF0.50088200000000005
aF0.47918699999999997
aF0.42295500000000003
aF0.24854699999999999
aF0.18310599999999999
aF0.196711
aF2.4669110000000001
aF1.600822
aF1.185854
aF0.61758199999999996
aF0.68359400000000003
aF0.37932300000000002
aF0.474103
aF0.30222199999999999
aF0.17955599999999999
aF0.218863
aF1.854684
aF1.619848
aF0.74069799999999997
aF0.78440399999999999
aF0.45717600000000003
aF0.67742400000000003
aF0.57207799999999998
aF0.33340500000000001
aF0.29302
aF0.245696
aF1.8412790000000001
aF2.5298219999999998
aF0.96166499999999999
aF0.93294500000000002
aF0.57514799999999999
aF0.56695099999999998
aF0.45000000000000001
aF0.33901999999999999
aF0.249112
aF0.18704799999999999
aF1.0256829999999999
aF1.619848
aF1.1218410000000001
aF0.66625199999999996
aF0.71459399999999995
aF0.54419200000000001
aF0.56170699999999996
aF0.38863799999999998
aF0.299655
aF0.20129
aF2.2908110000000002
aF2.4056259999999998
aF1.022391
aF0.78189299999999995
aF0.79196
aF0.56488799999999995
aF0.54838600000000004
aF0.36946899999999999
aF0.270955
aF0.22198300000000001
aF2.6516500000000001
aF1.6799999999999999
aF0.90280499999999997
aF0.62341000000000002
aF0.62271699999999996
aF0.55551399999999995
aF0.59814800000000001
aF0.281337
aF0.267239
aF0.19741800000000001
aF1.938188
aF2.6997460000000002
aF0.93298800000000004
aF0.72520399999999996
aF0.77230699999999997
aF0.5
aF0.50781200000000004
aF0.37349199999999999
aF0.29189500000000002
aF0.211004
aF2.4056259999999998
aF2.5298219999999998
aF1.2962959999999999
aF0.64202499999999996
aF0.74359699999999995
aF0.54845999999999995
aF0.544991
aF0.390351
aF0.235788
aF0.15835199999999999
aF1.687341
aF1.3712819999999999
aF1.104854
aF0.88302199999999997
aF0.610815
aF0.58984899999999996
aF0.50782300000000002
aF0.33156400000000003
aF0.26123000000000002
aF0.210453
aF1.074802
aF1.5823100000000001
aF1.1590689999999999
aF0.72567800000000005
aF0.55657199999999996
aF0.53049299999999999
aF0.54944800000000005
aF0.34340100000000001
aF0.28432200000000002
aF0.24124699999999999
aF2.5298219999999998
aF1.83324
aF0.88258899999999996
aF0.74420299999999995
aF0.43910399999999999
aF0.59536199999999995
aF0.46547500000000003
aF0.34584399999999998
aF0.25511200000000001
aF0.21754799999999999
aF1.622241
aF2.2908110000000002
aF1.0675209999999999
aF0.68922000000000005
aF0.57883499999999999
aF0.55464100000000005
aF0.61477099999999996
aF0.36527799999999999
aF0.26860200000000001
aF0.21918199999999999
aF2.237724
aF2.1875
aF1.3608279999999999
aF0.89747299999999997
aF0.81500499999999998
aF0.59999999999999998
aF0.62348000000000003
aF0.35237099999999999
aF0.27349899999999999
aF0.17077200000000001
aF2.237724
aF1.643168
aF0.64898400000000001
aF0.64200599999999997
aF0.67596800000000001
aF0.600943
aF0.49679000000000001
aF0.29680800000000002
aF0.26846399999999998
aF0.21831999999999999
aF1.6770510000000001
aF1.210369
aF1.2705820000000001
aF0.82001999999999997
aF0.68038699999999996
aF0.61049100000000001
aF0.44434099999999999
aF0.40933599999999998
aF0.29527399999999998
aF0.144181
aF1.1032360000000001
aF2.03125
aF0.95273399999999997
aF0.695604
aF0.46830100000000002
aF0.31331599999999998
aF0.35316700000000001
aF0.29831099999999999
aF0.17751700000000001
aF0.23445099999999999
aF1.854684
aF1.325825
aF0.83519100000000002
aF0.833368
aF0.37628
aF0.39244600000000002
aF0.56950800000000001
aF0.42859799999999998
aF0.257131
aF0.219945
aF1.093399
aF1.5636639999999999
aF1.2885329999999999
aF0.838175
aF0.74069799999999997
aF0.54978400000000005
aF0.421043
aF0.31320799999999999
aF0.25216699999999997
aF0.19573299999999999
aF1.938188
aF1.2253829999999999
aF1.1552359999999999
aF0.65120299999999998
aF0.70216699999999999
aF0.51867700000000005
aF0.42798999999999998
aF0.33646599999999999
aF0.233678
aF0.126884
aF1.1526259999999999
aF1.6318520000000001
aF0.75318399999999996
aF0.72447099999999998
aF0.664551
aF0.64132100000000003
aF0.40158500000000003
aF0.28060499999999999
aF0.17401
aF0.15617800000000001
aF1.527207
aF1.7888539999999999
aF0.83962000000000003
aF0.68080300000000005
aF0.58553999999999995
aF0.29465599999999997
aF0.38778800000000002
aF0.25024000000000002
aF0.18023800000000001
aF0.22817899999999999
aF2.4669110000000001
aF1.1605179999999999
aF0.77415599999999996
aF0.91847199999999996
aF0.58359399999999995
aF0.53513699999999997
aF0.57246799999999998
aF0.34695500000000001
aF0.26498699999999997
aF0.22633800000000001
aF1.3660749999999999
aF2.1875
aF1.2166809999999999
aF0.76958599999999999
aF0.51881100000000002
aF0.60086099999999998
aF0.58863200000000004
aF0.39250600000000002
aF0.25943899999999998
aF0.25034699999999999
aF2.5298219999999998
aF1.513223
aF1.1218410000000001
aF0.83161700000000005
aF0.713306
aF0.52808999999999995
aF0.50925900000000002
aF0.37881900000000002
aF0.31101299999999998
aF0.222104
aF1.6904319999999999
aF1.448836
aF1.274618
aF0.89648700000000003
aF0.81189900000000004
aF0.53665600000000002
aF0.49378699999999998
aF0.39668300000000001
aF0.24335399999999999
aF0.165018
aF1.6799999999999999
aF0.94225899999999996
aF1.146326
aF0.88388299999999997
aF0.50981299999999996
aF0.53591900000000003
aF0.43657699999999999
aF0.28110099999999999
aF0.19421099999999999
aF0.20710600000000001
aF2.0124610000000001
aF1.125715
aF1.0982590000000001
aF0.646428
aF0.69428400000000001
aF0.610815
aF0.54978400000000005
aF0.36162100000000003
aF0.246694
aF0.23821000000000001
aF2.6997460000000002
aF1.7010350000000001
aF1.206869
aF0.93105300000000002
aF0.68298800000000004
aF0.47798200000000002
aF0.48995499999999997
aF0.28859499999999999
aF0.25522499999999998
aF0.23286499999999999
aF1.2491220000000001
aF2.5298219999999998
aF1.185854
aF1.0264629999999999
aF0.75024100000000005
aF0.571407
aF0.44468400000000002
aF0.37069400000000002
aF0.205424
aF0.162298
aF2.6997460000000002
aF2.1400199999999998
aF1.3281959999999999
aF0.89442699999999997
aF0.71386799999999995
aF0.40032000000000001
aF0.37558799999999998
aF0.38036300000000001
aF0.18698300000000001
aF0.15389600000000001
aF2.1875
aF1.00223
aF0.90915500000000005
aF0.81762999999999997
aF0.69005799999999995
aF0.57961200000000002
aF0.444436
aF0.38031900000000002
aF0.231683
aF0.17408999999999999
aF2.2908110000000002
aF1.9319219999999999
aF1.3608279999999999
aF0.69712200000000002
aF0.72262000000000004
aF0.54845999999999995
aF0.434307
aF0.36177300000000001
aF0.26802799999999999
aF0.23313400000000001
aF1.997352
aF2.237724
aF1.2610189999999999
aF0.79659899999999995
aF0.75534699999999999
aF0.55390499999999998
aF0.48350799999999999
aF0.32040000000000002
aF0.25438699999999997
aF0.24679400000000001
aF1.1531720000000001
aF1.900658
aF1.2132689999999999
aF0.84499500000000005
aF0.76878100000000005
aF0.62876799999999999
aF0.50622800000000001
aF0.34115800000000002
aF0.270762
aF0.22237499999999999
aF2.237724
aF2.1334620000000002
aF1.049955
aF0.89347799999999999
aF0.69788899999999998
aF0.57422799999999996
aF0.58804199999999995
aF0.34519100000000003
aF0.25245400000000001
aF0.21724599999999999
aF2.1875
aF2.4669110000000001
aF1.1526259999999999
aF0.93352000000000002
aF0.71459399999999995
aF0.64851899999999996
aF0.52047600000000005
aF0.30117699999999997
aF0.24748200000000001
aF0.226269
aF2.4669110000000001
aF1.7548349999999999
aF1.1600969999999999
aF0.63956999999999997
aF0.63245600000000002
aF0.49581799999999998
aF0.32672499999999999
aF0.26065700000000003
aF0.19439600000000001
aF0.135299
aF1.303952
aF1.7819449999999999
aF0.89843799999999996
aF0.81643900000000003
aF0.60870000000000002
aF0.420045
aF0.44022600000000001
aF0.321378
aF0.16492299999999999
aF0.18751399999999999
aF1.811177
aF1.7860860000000001
aF1.28
aF0.74600900000000003
aF0.52800499999999995
aF0.47475699999999998
aF0.42852600000000002
aF0.23771400000000001
aF0.17196900000000001
aF0.16825399999999999
aF2.4056259999999998
aF1.7010350000000001
aF1.199193
aF0.71130199999999999
aF0.66991900000000004
aF0.50044100000000002
aF0.55096699999999998
aF0.35707
aF0.27690900000000002
aF0.194163
aF1.687341
aF2.052667
aF1.2705820000000001
aF0.90710500000000005
aF0.59664700000000004
aF0.59896199999999999
aF0.46638499999999999
aF0.40092100000000003
aF0.226744
aF0.15493399999999999
aF1.900658
aF1.9743520000000001
aF0.80641600000000002
aF0.67549300000000001
aF0.71040400000000004
aF0.46581499999999998
aF0.30646000000000001
aF0.31089699999999998
aF0.21903800000000001
aF0.242337
aF1.4915529999999999
aF1.1496379999999999
aF0.60741500000000004
aF0.5
aF0.70141500000000001
aF0.61439600000000005
aF0.43840600000000002
aF0.415435
aF0.27102900000000002
aF0.25058799999999998
aF1.6393899999999999
aF1.8412790000000001
aF1.1808259999999999
aF0.78993800000000003
aF0.69712200000000002
aF0.65735399999999999
aF0.59150999999999998
aF0.40248200000000001
aF0.24091000000000001
aF0.21881500000000001
aF2.237724
aF2.237724
aF1.0456829999999999
aF0.60044699999999995
aF0.65120299999999998
aF0.46740500000000001
aF0.58390600000000004
aF0.339673
aF0.26014199999999998
aF0.20913100000000001
aF2.4669110000000001
aF1.1793340000000001
aF1.2153400000000001
aF0.93307499999999999
aF0.65079100000000001
aF0.62941800000000003
aF0.55283599999999999
aF0.31443900000000002
aF0.30299500000000001
aF0.1734
aF2.1400199999999998
aF2.3468089999999999
aF1.0284789999999999
aF0.69999999999999996
aF0.67777200000000004
aF0.52026700000000003
aF0.46990399999999999
aF0.28247299999999997
aF0.188747
aF0.183726
aF2.03125
aF1.813169
aF1.359877
aF0.71713700000000002
aF0.624085
aF0.60674899999999998
aF0.47087200000000001
aF0.25730900000000001
aF0.239845
aF0.166492
aF1.9201159999999999
aF1.584015
aF0.89442699999999997
aF0.79056899999999997
aF0.72373200000000004
aF0.35693399999999997
aF0.431782
aF0.339835
aF0.237765
aF0.19847999999999999
aF1.2610189999999999
aF0.89521099999999998
aF0.72526800000000002
aF0.77992700000000004
aF0.54836300000000004
aF0.41860900000000001
aF0.42210599999999998
aF0.23084099999999999
aF0.23766599999999999
aF0.17272699999999999
aF2.3468089999999999
aF2.052667
aF0.90470300000000003
aF0.87463599999999997
aF0.75416700000000003
aF0.62155700000000003
aF0.57246799999999998
aF0.342615
aF0.28433399999999998
aF0.21088499999999999
aF2.5298219999999998
aF2.4056259999999998
aF1.159443
aF0.93307499999999999
aF0.75218600000000002
aF0.548543
aF0.47555999999999998
aF0.39629999999999999
aF0.25145099999999998
aF0.21415100000000001
aF1.938188
aF1.176785
aF0.91113
aF0.90915500000000005
aF0.59974400000000005
aF0.64663199999999998
aF0.589256
aF0.40452199999999999
aF0.27864800000000001
aF0.14941399999999999
aF1.9319219999999999
aF2.5925929999999999
aF1.2610189999999999
aF0.92354499999999995
aF0.680307
aF0.59315799999999996
aF0.35892000000000002
aF0.245506
aF0.197354
aF0.14186499999999999
aF2.6516500000000001
aF2.6997460000000002
aF1.259822
aF0.95935400000000004
aF0.68767999999999996
aF0.55113000000000001
aF0.317054
aF0.36935800000000002
aF0.26118599999999997
aF0.23205799999999999
aF2.1875
aF1.854684
aF1.2166809999999999
aF0.99036999999999997
aF0.71713700000000002
aF0.56829200000000002
aF0.48291899999999999
aF0.35434399999999999
aF0.25010199999999999
aF0.23053899999999999
aF2.1928100000000001
aF1.2649109999999999
aF1.1552359999999999
aF0.67234499999999997
aF0.62390500000000004
aF0.56068799999999996
aF0.40784900000000002
aF0.34160200000000002
aF0.225629
aF0.21054300000000001
aF1.266019
aF2.5298219999999998
aF1.195335
aF1.018519
aF0.76684099999999999
aF0.62420399999999998
aF0.43179699999999999
aF0.226049
aF0.168716
aF0.17827299999999999
aF1.3960779999999999
aF1.303952
aF0.92208400000000001
aF0.68044199999999999
aF0.387214
aF0.46990399999999999
aF0.47588999999999998
aF0.26457900000000001
aF0.25085400000000002
aF0.170573
aF1.3549310000000001
aF1.274618
aF1.0665530000000001
aF0.49744300000000002
aF0.55853399999999997
aF0.48236299999999999
aF0.45357999999999998
aF0.33227099999999998
aF0.220745
aF0.195775
aF2.3468089999999999
aF2.5925929999999999
aF1.356732
aF0.80903999999999998
aF0.58006899999999995
aF0.61615699999999995
aF0.57514799999999999
aF0.35307699999999997
aF0.26536900000000002
aF0.22575300000000001
aF1.7860860000000001
aF1.6799999999999999
aF0.81904600000000005
aF1.002265
aF0.64509799999999995
aF0.54112899999999997
aF0.512046
aF0.32631100000000002
aF0.28202100000000002
aF0.24342800000000001
aF2.2908110000000002
aF1.619848
aF1.2
aF0.79504600000000003
aF0.78467399999999998
aF0.62155700000000003
aF0.57514799999999999
aF0.30596699999999999
aF0.275586
aF0.19572899999999999
aF2.1875
aF1.9743520000000001
aF1.269218
aF0.69127099999999997
aF0.64000000000000001
aF0.59353900000000004
aF0.53200000000000003
aF0.30970300000000001
aF0.24190200000000001
aF0.208317
aF2.5298219999999998
aF0.89958899999999997
aF1.350873
aF1.0284610000000001
aF0.62456100000000003
aF0.64132100000000003
aF0.48446099999999997
aF0.37204199999999998
aF0.27359499999999998
aF0.23570199999999999
aF2.4669110000000001
aF2.237724
aF0.90915500000000005
aF0.76329100000000005
aF0.68922000000000005
aF0.62126899999999996
aF0.48983399999999999
aF0.35022599999999998
aF0.27522600000000003
aF0.198932
aF2.6516500000000001
aF1.152269
aF1.2556579999999999
aF0.91847199999999996
aF0.78561899999999996
aF0.48686400000000002
aF0.41377799999999998
aF0.26246199999999997
aF0.244504
aF0.17364599999999999
aF1.938188
aF2.0951309999999999
aF0.68359800000000004
aF0.75661100000000003
aF0.721688
aF0.625
aF0.48010999999999998
aF0.27891100000000002
aF0.210873
aF0.16192300000000001
aF2.052667
aF2.5298219999999998
aF1.3281959999999999
aF0.87463599999999997
aF0.47881000000000001
aF0.56218299999999999
aF0.51709099999999997
aF0.295377
aF0.20858099999999999
aF0.12768099999999999
aF1.584015
aF2.065591
aF0.87203900000000001
aF0.73156399999999999
aF0.56966499999999998
aF0.39130300000000001
aF0.48330699999999999
aF0.30203400000000002
aF0.19947100000000001
aF0.20444000000000001
aF2.5298219999999998
aF2.4669110000000001
aF1.350873
aF0.94434600000000002
aF0.67338699999999996
aF0.610653
aF0.499338
aF0.245506
aF0.20181299999999999
aF0.17314399999999999
aF2.3468089999999999
aF2.4056259999999998
aF1.1574070000000001
aF0.80257199999999995
aF0.56445999999999996
aF0.42010399999999998
aF0.558311
aF0.28778399999999998
aF0.18002699999999999
aF0.227322
aF1.0624800000000001
aF1.218917
aF0.88291699999999995
aF0.58430000000000004
aF0.49027900000000002
aF0.65120299999999998
aF0.41699599999999998
aF0.33817900000000001
aF0.26420700000000003
aF0.219836
aF1.72251
aF1.76
aF1.074802
aF0.90556199999999998
aF0.71376499999999998
aF0.54094699999999996
aF0.56155600000000006
aF0.35078700000000002
aF0.25755600000000001
aF0.20791999999999999
aF1.964186
aF2.5925929999999999
aF1.3608279999999999
aF0.86030899999999999
aF0.53332500000000005
aF0.57514799999999999
aF0.41580800000000001
aF0.36086200000000002
aF0.31417499999999998
aF0.21701699999999999
aF2.5925929999999999
aF2.5298219999999998
aF1.218917
aF0.90950900000000001
aF0.62437200000000004
aF0.44702500000000001
aF0.50599499999999997
aF0.37355100000000002
aF0.25564199999999998
aF0.21651000000000001
aF2.1650640000000001
aF1.810303
aF1.274618
aF0.76485999999999998
aF0.76980000000000004
aF0.63
aF0.61926599999999998
aF0.39707999999999999
aF0.26406000000000002
aF0.21076
aF2.4056259999999998
aF2.4056259999999998
aF1.0284610000000001
aF0.92699500000000001
aF0.76974799999999999
aF0.64663199999999998
aF0.51857600000000004
aF0.38773099999999999
aF0.26479399999999997
aF0.20200699999999999
aF2.0951309999999999
aF1.602039
aF0.99788900000000003
aF0.86057099999999997
aF0.573461
aF0.463758
aF0.44565700000000003
aF0.27397199999999999
aF0.22073699999999999
aF0.123973
aF2.4669110000000001
aF2.5925929999999999
aF1.359877
aF0.448243
aF0.68532499999999996
aF0.57999999999999996
aF0.34262700000000001
aF0.43568899999999999
aF0.304705
aF0.22284999999999999
aF1.893459
aF1.811177
aF0.63275300000000001
aF0.77992700000000004
aF0.66932700000000001
aF0.610815
aF0.52338799999999996
aF0.35434399999999999
aF0.25109500000000001
aF0.17007700000000001
aF1.2253829999999999
aF1.9038269999999999
aF1.28
aF0.95613800000000004
aF0.703125
aF0.61604700000000001
aF0.55283599999999999
aF0.31226399999999999
aF0.22516700000000001
aF0.17217099999999999
aF1.6393899999999999
aF2.3468089999999999
aF1.2830010000000001
aF0.76000699999999999
aF0.50695000000000001
aF0.62155700000000003
aF0.51729400000000003
aF0.36543599999999998
aF0.229435
aF0.17400499999999999
aF2.2908110000000002
aF2.5298219999999998
aF1.3094570000000001
aF0.914188
aF0.59292699999999998
aF0.38714399999999999
aF0.37260599999999999
aF0.26663199999999998
aF0.189471
aF0.121602
aF2.6516500000000001
aF2.6516500000000001
aF1.2830010000000001
aF0.63244400000000001
aF0.73081499999999999
aF0.65989600000000004
aF0.52554000000000001
aF0.36078300000000002
aF0.29076600000000002
aF0.26536199999999999
aF1.938188
aF1.704026
aF1.2823789999999999
aF0.92509200000000003
aF0.77230699999999997
aF0.578152
aF0.49430800000000003
aF0.378444
aF0.27594800000000003
aF0.20300799999999999
aF2.4669110000000001
aF1.9319219999999999
aF1.3446899999999999
aF0.85114699999999999
aF0.82024399999999997
aF0.570048
aF0.529501
aF0.38459500000000002
aF0.30010700000000001
aF0.21585799999999999
aF1.1756450000000001
aF1.997352
aF0.90129099999999995
aF0.60105500000000001
aF0.69281999999999999
aF0.586256
aF0.53298100000000004
aF0.34867399999999998
aF0.246082
aF0.19947100000000001
aF1.997352
aF1.938188
aF1.28
aF0.74033499999999997
aF0.81762999999999997
aF0.56686400000000003
aF0.54760299999999995
aF0.29668499999999998
aF0.19245000000000001
aF0.24409600000000001
aF2.4669110000000001
aF2.2908110000000002
aF0.95450400000000002
aF0.667014
aF0.65064699999999998
aF0.53000000000000003
aF0.56346799999999997
aF0.38647500000000001
aF0.2354
aF0.218863
aF1.2412669999999999
aF2.3468089999999999
aF1.266019
aF0.83877500000000005
aF0.64934700000000001
aF0.63646899999999995
aF0.48800199999999999
aF0.26609300000000002
aF0.24262700000000001
aF0.17308899999999999
aF2.2908110000000002
aF1.619848
aF1.25
aF1.0264629999999999
aF0.56609799999999999
aF0.59808099999999997
aF0.47027600000000003
aF0.27203500000000003
aF0.226547
aF0.20008699999999999
aF1.466261
aF1.7106669999999999
aF1.2148859999999999
aF0.60815300000000005
aF0.63640300000000005
aF0.56850599999999996
aF0.42621100000000001
aF0.29519000000000001
aF0.27410400000000001
aF0.19945299999999999
aF2.4056259999999998
aF2.4056259999999998
aF1.204928
aF0.86057099999999997
aF0.62876799999999999
aF0.46323599999999998
aF0.45408900000000002
aF0.35767199999999999
aF0.22489200000000001
aF0.20415700000000001
aF1.7888539999999999
aF1.314157
aF1.207363
aF0.92755399999999999
aF0.76841700000000002
aF0.56028800000000001
aF0.42331999999999997
aF0.430809
aF0.27256200000000003
aF0.23969599999999999
aF1.550551
aF1.7443690000000001
aF1.350873
aF0.76980000000000004
aF0.76684099999999999
aF0.56028800000000001
aF0.44527699999999998
aF0.40686699999999998
aF0.26946599999999998
aF0.21165100000000001
aF1.702294
aF1.424272
aF1.218917
aF0.82031200000000004
aF0.73549100000000001
aF0.57514799999999999
aF0.59251900000000002
aF0.35034300000000002
aF0.25693100000000002
aF0.22270200000000001
aF1.2570079999999999
aF2.1400199999999998
aF0.95893200000000001
aF0.96824600000000005
aF0.56424099999999999
aF0.41613600000000001
aF0.4042
aF0.35586000000000001
aF0.228995
aF0.19111300000000001
aF1.6594439999999999
aF2.4669110000000001
aF1.3281959999999999
aF0.73546999999999996
aF0.73721000000000003
aF0.61063299999999998
aF0.40814400000000001
aF0.36274400000000001
aF0.25812299999999999
aF0.15781400000000001
aF1.2317549999999999
aF2.1875
aF1.350873
aF0.81632700000000002
aF0.64549699999999999
aF0.45329199999999997
aF0.41015600000000002
aF0.339175
aF0.214362
aF0.182478
aF1.9319219999999999
aF2.4669110000000001
aF1.3542780000000001
aF0.75159600000000004
aF0.62741000000000002
aF0.38869999999999999
aF0.52404399999999995
aF0.33455200000000002
aF0.18885299999999999
aF0.19064800000000001
aF1.9319219999999999
aF2.3468089999999999
aF0.99036999999999997
aF0.70691099999999996
aF0.53520100000000004
aF0.486568
aF0.44506099999999998
aF0.26275799999999999
aF0.21729499999999999
aF0.21088599999999999
aF1.2806949999999999
aF1.662612
aF1.1629130000000001
aF0.82053699999999996
aF0.59344699999999995
aF0.52828699999999995
aF0.51790000000000003
aF0.34749000000000002
aF0.28067999999999999
aF0.23028699999999999
aF2.4669110000000001
aF2.4669110000000001
aF0.95273399999999997
aF0.62437200000000004
aF0.80145500000000003
aF0.69550699999999999
aF0.53356000000000003
aF0.33058700000000002
aF0.27399099999999998
aF0.18686800000000001
aF2.2135940000000001
aF2.237724
aF0.50109099999999995
aF0.87991699999999995
aF0.70691099999999996
aF0.578152
aF0.59255899999999995
aF0.34256599999999998
aF0.30413400000000002
aF0.21617700000000001
aF0.97656200000000004
aF1.7888539999999999
aF1.195316
aF1.018519
aF0.59900600000000004
aF0.69281999999999999
aF0.52218900000000001
aF0.32937300000000003
aF0.198714
aF0.14968000000000001
aF2.5298219999999998
aF2.5925929999999999
aF1.274618
aF0.64149999999999996
aF0.75801700000000005
aF0.499498
aF0.35369800000000001
aF0.241677
aF0.16520899999999999
aF0.16598099999999999
aF2.0951309999999999
aF2.6516500000000001
aF0.75467300000000004
aF0.83984000000000003
aF0.46686499999999997
aF0.68226900000000001
aF0.49265900000000001
aF0.30163400000000001
aF0.200659
aF0.16516400000000001
aF1.381068
aF1.388889
aF0.82179599999999997
aF0.72735399999999995
aF0.408995
aF0.61541699999999999
aF0.44717200000000001
aF0.30588100000000001
aF0.17954899999999999
aF0.216866
aF1.092158
aF1.4915529999999999
aF1.3600000000000001
aF0.74033499999999997
aF0.76904700000000004
aF0.60586099999999998
aF0.46940100000000001
aF0.41875699999999999
aF0.269451
aF0.21613599999999999
aF1.909009
aF1.734874
aF1.207363
aF0.78388400000000003
aF0.74033499999999997
aF0.587538
aF0.406358
aF0.39144299999999999
aF0.26620700000000003
aF0.18176
aF1.6000000000000001
aF2.237724
aF1.3325549999999999
aF0.85491399999999995
aF0.68842499999999995
aF0.62327699999999997
aF0.64407499999999995
aF0.37047099999999999
aF0.297072
aF0.20055000000000001
aF2.4669110000000001
aF1.2919499999999999
aF0.84220099999999998
aF0.86030899999999999
aF0.769262
aF0.46653800000000001
aF0.55311999999999995
aF0.321768
aF0.245503
aF0.24992900000000001
aF2.237724
aF2.6997460000000002
aF1.3446899999999999
aF0.83992100000000003
aF0.769262
aF0.60030799999999995
aF0.46144499999999999
aF0.29765999999999998
aF0.241676
aF0.18829599999999999
aF1.76
aF2.0124610000000001
aF1.111111
aF0.75562700000000005
aF0.58643699999999999
aF0.57823500000000005
aF0.44823000000000002
aF0.390351
aF0.20508299999999999
aF0.19825100000000001
aF2.2908110000000002
aF2.6516500000000001
aF1.2705820000000001
aF0.70090399999999997
aF0.73156399999999999
aF0.64036999999999999
aF0.42700199999999999
aF0.35373500000000002
aF0.26614500000000002
aF0.227602
aF0.78262399999999999
aF2.4669110000000001
aF1.2840119999999999
aF0.72361200000000003
aF0.59808099999999997
aF0.52554000000000001
aF0.59784499999999996
aF0.37269799999999997
aF0.31668299999999999
aF0.227823
aF2.5298219999999998
aF1.3959889999999999
aF0.92509200000000003
aF0.80230699999999999
aF0.55977399999999999
aF0.46349800000000002
aF0.43783699999999998
aF0.27024100000000001
aF0.23721400000000001
aF0.174146
aF2.4056259999999998
aF2.052667
aF1.206869
aF0.78125
aF0.69201599999999996
aF0.53875799999999996
aF0.36108499999999999
aF0.32116899999999998
aF0.23011100000000001
aF0.15501100000000001
aF1.6474599999999999
aF2.2908110000000002
aF1.111111
aF0.83654700000000004
aF0.55977399999999999
aF0.364396
aF0.38234000000000001
aF0.24371999999999999
aF0.210979
aF0.161886
aF2.1400199999999998
aF2.1875
aF0.92676899999999995
aF0.70090399999999997
aF0.49348199999999998
aF0.58349600000000001
aF0.49117300000000003
aF0.33163300000000001
aF0.25314300000000001
aF0.20846600000000001
aF1.6318520000000001
aF1.7106669999999999
aF0.68041399999999996
aF0.80233100000000002
aF0.64102199999999998
aF0.64883800000000003
aF0.56613899999999995
aF0.37958799999999998
aF0.25548500000000002
aF0.23353299999999999
aF1.619848
aF1.448836
aF0.88217999999999996
aF0.72447099999999998
aF0.605684
aF0.58354499999999998
aF0.56158799999999998
aF0.35479100000000002
aF0.27497700000000003
aF0.20551
aF2.237724
aF1.938188
aF1.138906
aF0.95837399999999995
aF0.65843600000000002
aF0.62663100000000005
aF0.64471900000000004
aF0.34637800000000002
aF0.28946899999999998
aF0.227573
aF2.3468089999999999
aF2.6997460000000002
aF1.0665530000000001
aF0.82034099999999999
aF0.67549300000000001
aF0.52800499999999995
aF0.48995499999999997
aF0.29013899999999998
aF0.27141199999999999
aF0.22432299999999999
aF1.619848
aF2.6997460000000002
aF1.2105779999999999
aF0.90556199999999998
aF0.49894500000000003
aF0.59107200000000004
aF0.53710599999999997
aF0.398262
aF0.22500300000000001
aF0.25054599999999999
aF2.5298219999999998
aF2.4056259999999998
aF1.005171
aF0.92755399999999999
aF0.496562
aF0.59808099999999997
aF0.516764
aF0.441357
aF0.31494100000000003
aF0.21365799999999999
aF1.7819449999999999
aF2.5298219999999998
aF1.0994079999999999
aF0.69078499999999998
aF0.81935599999999997
aF0.59974899999999998
aF0.46583999999999998
aF0.35957499999999998
aF0.25294299999999997
aF0.17186100000000001
aF1.2028129999999999
aF2.6997460000000002
aF1.3498730000000001
aF0.76841700000000002
aF0.45504899999999998
aF0.49476900000000001
aF0.35926200000000003
aF0.25997599999999998
aF0.21771799999999999
aF0.17089399999999999
aF1.400541
aF2.052667
aF0.85905399999999998
aF0.66406200000000004
aF0.71040400000000004
aF0.60602699999999998
aF0.55338600000000004
aF0.37714599999999998
aF0.24026800000000001
aF0.21915499999999999
aF2.2908110000000002
aF1.8400000000000001
aF1.2556579999999999
aF0.90515100000000004
aF0.67777200000000004
aF0.65643300000000004
aF0.56999999999999995
aF0.35547299999999998
aF0.29624600000000001
aF0.215196
aF1.4363109999999999
aF2.6997460000000002
aF0.80059199999999997
aF0.89542100000000002
aF0.72004400000000002
aF0.59155000000000002
aF0.43527300000000002
aF0.27975299999999997
aF0.238178
aF0.19190199999999999
aF1.448836
aF1.0119389999999999
aF1.1200000000000001
aF0.86028400000000005
aF0.56640599999999997
aF0.60599400000000003
aF0.52307599999999999
aF0.340698
aF0.22331400000000001
aF0.201742
aF2.5925929999999999
aF2.5925929999999999
aF0.86217600000000005
aF0.71713700000000002
aF0.67836600000000002
aF0.62725600000000004
aF0.53627499999999995
aF0.35767199999999999
aF0.26401599999999997
aF0.22666700000000001
aF2.4056259999999998
aF1.734874
aF1.2806580000000001
aF0.93307499999999999
aF0.55551399999999995
aF0.60911400000000004
aF0.54845999999999995
aF0.38405899999999998
aF0.25639299999999998
aF0.139987
aF1.9319219999999999
aF2.3468089999999999
aF0.859375
aF0.90710500000000005
aF0.78561899999999996
aF0.37270700000000001
aF0.367454
aF0.268899
aF0.16125500000000001
aF0.118434
aF1.1426719999999999
aF1.049563
aF0.70241900000000002
aF0.50507599999999997
aF0.47165000000000001
aF0.29777399999999998
aF0.30171700000000001
aF0.23105400000000001
aF0.17258200000000001
aF0.230374
aF1.9319219999999999
aF1.8412790000000001
aF0.65915100000000004
aF0.95613800000000004
aF0.68942000000000003
aF0.60586099999999998
aF0.52402499999999996
aF0.36025699999999999
aF0.32170700000000002
aF0.24168600000000001
aF2.4669110000000001
aF1.664855
aF1.2380059999999999
aF0.80233100000000002
aF0.51279600000000003
aF0.63001300000000005
aF0.54726200000000003
aF0.41236400000000001
aF0.283107
aF0.18304300000000001
aF2.5925929999999999
aF1.7860860000000001
aF1.1218410000000001
aF0.70141500000000001
aF0.54601599999999995
aF0.49970799999999999
aF0.44889699999999999
aF0.382517
aF0.212446
aF0.15706500000000001
aF2.2908110000000002
aF1.266019
aF1.1756450000000001
aF0.796238
aF0.58511100000000005
aF0.61053999999999997
aF0.39027099999999998
aF0.34442699999999998
aF0.26130599999999998
aF0.21878900000000001
aF2.3468089999999999
aF1.9319219999999999
aF1.275776
aF0.64471900000000004
aF0.58318800000000004
aF0.63123499999999999
aF0.49586799999999998
aF0.330457
aF0.29602899999999999
aF0.23063400000000001
aF1.7010350000000001
aF1.9201159999999999
aF1.063944
aF0.98821199999999998
aF0.57377500000000003
aF0.35619800000000001
aF0.54686199999999996
aF0.30647099999999999
aF0.22390299999999999
aF0.18199799999999999
aF1.2885329999999999
aF1.964186
aF1.325825
aF0.73833000000000004
aF0.79504600000000003
aF0.54395099999999996
aF0.43505199999999999
aF0.297016
aF0.217081
aF0.174591
aF1.9038269999999999
aF1.7860860000000001
aF0.99312299999999998
aF0.58617900000000001
aF0.62725600000000004
aF0.436247
aF0.43163600000000002
aF0.280723
aF0.25755899999999998
aF0.17293
aF2.3468089999999999
aF1.875
aF1.057736
aF0.610815
aF0.633579
aF0.39650200000000002
aF0.36860500000000002
aF0.29364099999999999
aF0.19628200000000001
aF0.14082
aF1.938188
aF1.134023
aF0.99380800000000002
aF0.64087300000000003
aF0.58074499999999996
aF0.55765699999999996
aF0.38689000000000001
aF0.28146500000000002
aF0.191718
aF0.22128400000000001
aF1.6393899999999999
aF1.400541
aF0.89686699999999997
aF0.623089
aF0.72735499999999997
aF0.67081999999999997
aF0.53830199999999995
aF0.32281399999999999
aF0.25062499999999999
aF0.22659299999999999
aF2.4669110000000001
aF1.997352
aF1.1600969999999999
aF0.79347699999999999
aF0.66007400000000005
aF0.52332299999999998
aF0.57723000000000002
aF0.41424100000000003
aF0.222272
aF0.25042700000000001
aF1.9743520000000001
aF2.5925929999999999
aF1.2830010000000001
aF0.55540199999999995
aF0.82671700000000004
aF0.49877500000000002
aF0.56131299999999995
aF0.35957499999999998
aF0.22847200000000001
aF0.211281
aF1.600822
aF2.5925929999999999
aF1.2840119999999999
aF0.78025199999999995
aF0.66999900000000001
aF0.59808099999999997
aF0.59111100000000005
aF0.380106
aF0.28110299999999999
aF0.21570700000000001
aF2.1875
aF1.3362430000000001
aF1.2317549999999999
aF0.88173299999999999
aF0.46686899999999998
aF0.52234499999999995
aF0.326459
aF0.25766099999999997
aF0.17850199999999999
aF0.11281099999999999
aF2.5298219999999998
aF2.5925929999999999
aF1.106797
aF0.92755399999999999
aF0.64080300000000001
aF0.54361000000000004
aF0.38180199999999997
aF0.22830300000000001
aF0.133576
aF0.132134
aF1.83324
aF2.5925929999999999
aF1.0284610000000001
aF0.60478699999999996
aF0.72004400000000002
aF0.70821599999999996
aF0.47582600000000003
aF0.343167
aF0.28536099999999998
aF0.23038600000000001
aF1.408765
aF2.3468089999999999
aF1.274618
aF0.99036999999999997
aF0.77992700000000004
aF0.69993399999999995
aF0.50688200000000005
aF0.38478299999999999
aF0.28287200000000001
aF0.23588400000000001
aF1.3425929999999999
aF1.400541
aF1.2830010000000001
aF0.91991400000000001
aF0.52295100000000005
aF0.53344400000000003
aF0.59560000000000002
aF0.295157
aF0.26120500000000002
aF0.15802099999999999
aF1.1851080000000001
aF1.565248
aF0.67166899999999996
aF0.667879
aF0.50759500000000002
aF0.54220900000000005
aF0.41959099999999999
aF0.34718300000000002
aF0.23470199999999999
aF0.147394
aF2.1400199999999998
aF2.5925929999999999
aF1.1108039999999999
aF0.71470699999999998
aF0.55682299999999996
aF0.496255
aF0.44197999999999998
aF0.34335399999999999
aF0.26927099999999998
aF0.23938499999999999
aF1.552354
aF1.854684
aF1.160137
aF0.66958600000000001
aF0.669435
aF0.51414599999999999
aF0.48320000000000002
aF0.34191300000000002
aF0.241121
aF0.238422
aF2.6997460000000002
aF2.4056259999999998
aF1.022446
aF0.88302199999999997
aF0.739008
aF0.45879799999999998
aF0.48291899999999999
aF0.41708600000000001
aF0.33075700000000002
aF0.188526
aF1.964186
aF2.4669110000000001
aF1.2166809999999999
aF0.73978299999999997
aF0.55047100000000004
aF0.42165399999999997
aF0.378971
aF0.28197899999999998
aF0.22830700000000001
aF0.14845700000000001
aF2.4669110000000001
aF2.065591
aF0.82034099999999999
aF0.420736
aF0.49967899999999998
aF0.55000000000000004
aF0.36470200000000003
aF0.29925600000000002
aF0.17944099999999999
aF0.090293999999999999
aF1.6799999999999999
aF2.1875
aF0.882637
aF0.482848
aF0.34742699999999999
aF0.35734199999999999
aF0.47877500000000001
aF0.361786
aF0.279053
aF0.224971
aF1.195316
aF1.521452
aF1.3608279999999999
aF0.92755399999999999
aF0.59834699999999996
aF0.60412900000000003
aF0.51279600000000003
aF0.38486399999999998
aF0.27984799999999999
aF0.22184400000000001
aF1.049955
aF2.6516500000000001
aF0.87236100000000005
aF0.712785
aF0.664551
aF0.66625199999999996
aF0.51574200000000003
aF0.34054499999999999
aF0.23524700000000001
aF0.193269
aF1.7888539999999999
aF2.065591
aF1.2705820000000001
aF0.98843300000000001
aF0.54944800000000005
aF0.57677999999999996
aF0.51224099999999995
aF0.35586000000000001
aF0.25634899999999999
aF0.18312800000000001
aF1.513223
aF1.508586
aF0.93339000000000005
aF0.80196000000000001
aF0.69993399999999995
aF0.55722899999999997
aF0.50853099999999996
aF0.279615
aF0.24895700000000001
aF0.15744
aF1.854684
aF1.643168
aF1.065428
aF0.82369400000000004
aF0.61477099999999996
aF0.47451900000000002
aF0.58359399999999995
aF0.37356899999999998
aF0.29996699999999998
aF0.19986799999999999
aF2.5925929999999999
aF2.1650640000000001
aF1.199668
aF1.0284789999999999
aF0.51802899999999996
aF0.65505500000000005
aF0.47482400000000002
aF0.37763799999999997
aF0.245728
aF0.22970399999999999
aF2.0124610000000001
aF1.870439
aF0.650509
aF1.024556
aF0.70029699999999995
aF0.64114899999999997
aF0.50925900000000002
aF0.31623099999999998
aF0.23005300000000001
aF0.17562
aF1.7443690000000001
aF1.508586
aF1.2806580000000001
aF0.82060999999999995
aF0.76958599999999999
aF0.57369599999999998
aF0.35033799999999998
aF0.25328899999999999
aF0.17227500000000001
aF0.183533
aF1.4915529999999999
aF1.536789
aF0.74033499999999997
aF0.49768499999999999
aF0.40921000000000002
aF0.340698
aF0.42216999999999999
aF0.320019
aF0.18751399999999999
aF0.147698
aF1.1426719999999999
aF1.1793340000000001
aF1.130668
aF0.70272800000000002
aF0.62074300000000004
aF0.46019500000000002
aF0.45164399999999999
aF0.25342799999999999
aF0.28659899999999999
aF0.246887
aF2.237724
aF2.3468089999999999
aF1.1525920000000001
aF0.90709799999999996
aF0.80903999999999998
aF0.69009500000000001
aF0.47181800000000002
aF0.407387
aF0.28851199999999999
aF0.210368
aF1.871138
aF1.529773
aF1.2253829999999999
aF0.7984
aF0.70617099999999999
aF0.51614800000000005
aF0.48597200000000002
aF0.329704
aF0.22911799999999999
aF0.263959
aF2.5925929999999999
aF1.139893
aF0.65875600000000001
aF0.63269299999999995
aF0.65201200000000004
aF0.58457700000000001
aF0.51213399999999998
aF0.30031799999999997
aF0.22639699999999999
aF0.18590899999999999
aF2.0999099999999999
aF0.88258899999999996
aF1.069167
aF0.51226300000000002
aF0.61290900000000004
aF0.60172999999999999
aF0.50581500000000001
aF0.29210199999999997
aF0.25274099999999999
aF0.20705999999999999
aF1.6393899999999999
aF1.381068
aF0.96005799999999997
aF0.97222200000000003
aF0.69566600000000001
aF0.61342300000000005
aF0.41922399999999999
aF0.33379900000000001
aF0.26954499999999998
aF0.22614300000000001
aF1.854684
aF2.2135940000000001
aF1.3094570000000001
aF0.93991199999999997
aF0.82024399999999997
aF0.600047
aF0.58931900000000004
aF0.36986999999999998
aF0.282001
aF0.25323299999999999
aF1.399735
aF2.1650640000000001
aF1.0675209999999999
aF0.78440399999999999
aF0.66355200000000003
aF0.60343400000000003
aF0.555423
aF0.33009500000000003
aF0.29522900000000002
aF0.20246
aF2.4056259999999998
aF2.5298219999999998
aF1.2132689999999999
aF0.83258399999999999
aF0.776617
aF0.67836600000000002
aF0.58243999999999996
aF0.356715
aF0.17683599999999999
aF0.14585500000000001
aF2.03125
aF1.72251
aF0.79993599999999998
aF0.74359699999999995
aF0.64287000000000005
aF0.54635100000000003
aF0.46581499999999998
aF0.30133300000000002
aF0.25650099999999998
aF0.19401099999999999
aF2.4056259999999998
aF1.712016
aF1.3281959999999999
aF0.72444900000000001
aF0.74132500000000001
aF0.45951799999999998
aF0.49029
aF0.301398
aF0.24168899999999999
aF0.16302900000000001
aF1.6159829999999999
aF1.702294
aF1.160137
aF0.87609700000000001
aF0.66409799999999997
aF0.54630699999999999
aF0.413103
aF0.27135500000000001
aF0.20372999999999999
aF0.13797599999999999
aF2.6997460000000002
aF1.6318520000000001
aF0.69877100000000003
aF0.42894599999999999
aF0.65511399999999997
aF0.42191899999999999
aF0.27641900000000003
aF0.34239199999999997
aF0.18462400000000001
aF0.17999200000000001
aF0.90129099999999995
aF2.237724
aF0.932419
aF0.59251900000000002
aF0.529582
aF0.59510700000000005
aF0.41946
aF0.31009799999999998
aF0.205765
aF0.20690900000000001
aF1.6159829999999999
aF2.1875
aF1.185854
aF0.835762
aF0.68942000000000003
aF0.46144499999999999
aF0.54552199999999995
aF0.30554500000000001
aF0.279223
aF0.20252600000000001
aF1.83324
aF1.734874
aF1.134873
aF0.96225000000000005
aF0.56170699999999996
aF0.59536199999999995
aF0.37895200000000001
aF0.44133600000000001
aF0.279223
aF0.22251799999999999
aF1.30444
aF2.1400199999999998
aF1.274618
aF0.78440399999999999
aF0.67631300000000005
aF0.48533300000000001
aF0.42889300000000002
aF0.316
aF0.270092
aF0.22986400000000001
aF2.4669110000000001
aF1.664855
aF1.0787199999999999
aF0.68038699999999996
aF0.62941800000000003
aF0.53800199999999998
aF0.42890600000000001
aF0.31844299999999998
aF0.23278799999999999
aF0.205068
aF1.552354
aF2.4056259999999998
aF1.2441
aF0.88388299999999997
aF0.70029699999999995
aF0.60586099999999998
aF0.47511999999999999
aF0.36641400000000002
aF0.27029300000000001
aF0.20610000000000001
aF1.687341
aF1.813169
aF1.3325549999999999
aF1.0277400000000001
aF0.74708799999999997
aF0.62199199999999999
aF0.55484599999999995
aF0.362846
aF0.249727
aF0.17202799999999999
aF1.813169
aF1.2570079999999999
aF0.90129099999999995
aF0.92699500000000001
aF0.64094200000000001
aF0.587538
aF0.56831799999999999
aF0.36274400000000001
aF0.22273899999999999
aF0.17533000000000001
aF1.584015
aF2.5925929999999999
aF0.97222200000000003
aF0.75480400000000003
aF0.67919099999999999
aF0.54142199999999996
aF0.49358800000000003
aF0.31609999999999999
aF0.25917800000000002
aF0.20361599999999999
aF1.4123410000000001
aF1.4915529999999999
aF1.1427350000000001
aF0.58331200000000005
aF0.65521300000000005
aF0.65983999999999998
aF0.46019500000000002
aF0.35759099999999999
aF0.251245
aF0.23485300000000001
aF1.8412790000000001
aF2.6516500000000001
aF1.1525920000000001
aF0.63
aF0.61662499999999998
aF0.534609
aF0.555423
aF0.37661800000000001
aF0.26258700000000001
aF0.21585599999999999
aF1.9038269999999999
aF2.5925929999999999
aF1.325825
aF0.83958600000000005
aF0.65505500000000005
aF0.57629600000000003
aF0.44361400000000001
aF0.39105499999999999
aF0.28118399999999999
aF0.20610500000000001
aF2.4669110000000001
aF1.134023
aF1.1808259999999999
aF0.83012300000000006
aF0.62432100000000001
aF0.55657199999999996
aF0.53740600000000005
aF0.33674100000000001
aF0.21260399999999999
aF0.20624999999999999
aF1.2570079999999999
aF2.5925929999999999
aF0.83130599999999999
aF0.67388499999999996
aF0.65120299999999998
aF0.39053300000000002
aF0.39354
aF0.24424999999999999
aF0.229576
aF0.15984899999999999
aF0.77587799999999996
aF1.390493
aF1.3577269999999999
aF0.60711899999999996
aF0.70691099999999996
aF0.59750099999999995
aF0.40291100000000002
aF0.239899
aF0.18739400000000001
aF0.175062
aF2.4056259999999998
aF1.870439
aF0.90129099999999995
aF0.95273399999999997
aF0.71460500000000005
aF0.64087300000000003
aF0.485371
aF0.30752299999999999
aF0.222084
aF0.179758
aF1.997352
aF2.4669110000000001
aF1.3608279999999999
aF0.75355300000000003
aF0.66625199999999996
aF0.64416799999999996
aF0.478854
aF0.37008200000000002
aF0.26659300000000002
aF0.20577400000000001
aF1.6393899999999999
aF1.536789
aF0.92521299999999995
aF1.0264629999999999
aF0.59754300000000005
aF0.65201200000000004
aF0.467918
aF0.36313600000000001
aF0.32953199999999999
aF0.21332300000000001
aF2.6997460000000002
aF2.0124610000000001
aF1.25
aF0.79561000000000004
aF0.64141999999999999
aF0.51432
aF0.46963700000000003
aF0.326708
aF0.23963300000000001
aF0.17307900000000001
aF2.3468089999999999
aF1.6799999999999999
aF1.1126020000000001
aF0.88
aF0.63
aF0.46686499999999997
aF0.37565100000000001
aF0.238542
aF0.17147100000000001
aF0.137318
aF1.9743520000000001
aF0.72512600000000005
aF1.207363
aF0.57629600000000003
aF0.543161
aF0.499498
aF0.441942
aF0.31931199999999998
aF0.22492100000000001
aF0.22193199999999999
aF1.9743520000000001
aF1.5643039999999999
aF1.0964050000000001
aF0.78121600000000002
aF0.68298800000000004
aF0.55416799999999999
aF0.59400600000000003
aF0.45504899999999998
aF0.30119200000000002
aF0.215805
aF2.4056259999999998
aF2.2908110000000002
aF1.2037040000000001
aF0.80233100000000002
aF0.63137600000000005
aF0.59784499999999996
aF0.44330999999999998
aF0.37800800000000001
aF0.240811
aF0.21441099999999999
aF1.900658
aF0.87320399999999998
aF0.94453399999999998
aF0.87203900000000001
aF0.75128700000000004
aF0.63555099999999998
aF0.56934300000000004
aF0.341142
aF0.26797300000000002
aF0.159027
aF1.810303
aF2.2908110000000002
aF1.3608279999999999
aF0.98493200000000003
aF0.56999999999999995
aF0.50966900000000004
aF0.36563800000000002
aF0.30379499999999998
aF0.21539
aF0.16502500000000001
aF1.643168
aF2.2908110000000002
aF0.59731900000000004
aF0.38046200000000002
aF0.68080300000000005
aF0.480599
aF0.49104599999999998
aF0.32008900000000001
aF0.25294499999999998
aF0.17549799999999999
aF2.237724
aF2.5925929999999999
aF1.2705820000000001
aF0.75128700000000004
aF0.42562800000000001
aF0.450102
aF0.49259700000000001
aF0.30049300000000001
aF0.18215799999999999
aF0.216644
aF2.052667
aF1.7010350000000001
aF1.159443
aF0.97750700000000001
aF0.64851899999999996
aF0.59291199999999999
aF0.45923599999999998
aF0.32138
aF0.26382699999999998
aF0.223659
aF1.067269
aF1.5823100000000001
aF0.93064199999999997
aF0.83958600000000005
aF0.71875500000000003
aF0.52371699999999999
aF0.58074499999999996
aF0.37270700000000001
aF0.28907899999999997
aF0.23183599999999999
aF1.964186
aF2.1400199999999998
aF1.207363
aF0.906779
aF0.75601499999999999
aF0.48059000000000002
aF0.49197200000000002
aF0.32500200000000001
aF0.26663799999999999
aF0.17093900000000001
aF2.5298219999999998
aF2.6516500000000001
aF1.356732
aF0.81958500000000001
aF0.81189900000000004
aF0.57980100000000001
aF0.38106600000000002
aF0.28621099999999999
aF0.180533
aF0.185747
aF1.513223
aF1.871138
aF0.89442699999999997
aF0.89646000000000003
aF0.55722899999999997
aF0.40073199999999998
aF0.41899799999999998
aF0.18617300000000001
aF0.23904600000000001
aF0.16605
aF2.5298219999999998
aF1.6474599999999999
aF1.3281959999999999
aF1.002265
aF0.52921099999999999
aF0.60602699999999998
aF0.486983
aF0.28991400000000001
aF0.215139
aF0.13364699999999999
aF2.6516500000000001
aF2.1334620000000002
aF1.1021669999999999
aF1.0284610000000001
aF0.68564099999999994
aF0.50507599999999997
aF0.40115299999999998
aF0.41725600000000002
aF0.226049
aF0.19072700000000001
aF1.1030869999999999
aF2.5298219999999998
aF0.93307499999999999
aF0.705453
aF0.53300199999999998
aF0.62417299999999998
aF0.43681500000000001
aF0.32965499999999998
aF0.20355000000000001
aF0.18859899999999999
aF1.8412790000000001
aF2.4056259999999998
aF1.195316
aF0.84421100000000004
aF0.73974099999999998
aF0.52990199999999998
aF0.42091699999999999
aF0.27223599999999998
aF0.21931700000000001
aF0.16414200000000001
aF1.0994079999999999
aF2.5925929999999999
aF1.350873
aF0.90793400000000002
aF0.64900500000000005
aF0.64068400000000003
aF0.60478699999999996
aF0.40404600000000002
aF0.32089800000000002
aF0.21904799999999999
aF2.5298219999999998
aF2.1875
aF1.059256
aF0.95227899999999999
aF0.59111100000000005
aF0.55040299999999998
aF0.54944800000000005
aF0.36505500000000002
aF0.24154900000000001
aF0.22720199999999999
aF1.6799999999999999
aF1.9319219999999999
aF1.2649109999999999
aF0.95227899999999999
aF0.75307999999999997
aF0.65067900000000001
aF0.50906899999999999
aF0.40602500000000002
aF0.31128699999999998
aF0.243169
aF1.811177
aF1.4351849999999999
aF1.359877
aF0.95837399999999995
aF0.79056899999999997
aF0.56016500000000002
aF0.46570299999999998
aF0.35493799999999998
aF0.3175
aF0.21646099999999999
aF2.2908110000000002
aF1.423025
aF1.111111
aF0.88156500000000004
aF0.70245100000000005
aF0.65051400000000004
aF0.55657199999999996
aF0.39103900000000003
aF0.27371200000000001
aF0.237757
aF2.2908110000000002
aF2.237724
aF1.2105779999999999
aF0.65057799999999999
aF0.59262800000000004
aF0.49141200000000002
aF0.42850199999999999
aF0.35889599999999999
aF0.265818
aF0.21323
aF1.2028129999999999
aF2.2908110000000002
aF1.2441
aF0.83242700000000003
aF0.68999999999999995
aF0.61615699999999995
aF0.57372699999999999
aF0.35835899999999998
aF0.241341
aF0.14574300000000001
aF2.5298219999999998
aF1.766526
aF1.3498730000000001
aF0.7984
aF0.53731600000000002
aF0.52048000000000005
aF0.40669699999999998
aF0.30222199999999999
aF0.19750000000000001
aF0.14929200000000001
aF1.687341
aF2.1875
aF0.95273399999999997
aF0.817685
aF0.60372599999999998
aF0.50199899999999997
aF0.42114400000000002
aF0.27909299999999998
aF0.21821699999999999
aF0.15487000000000001
aF1.545425
aF2.2908110000000002
aF1.1552359999999999
aF0.78717199999999998
aF0.53735100000000002
aF0.38492300000000002
aF0.43076799999999998
aF0.31310500000000002
aF0.211089
aF0.21935399999999999
aF1.3549310000000001
aF2.4056259999999998
aF0.93294500000000002
aF0.67000000000000004
aF0.52962799999999999
aF0.61477099999999996
aF0.55113000000000001
aF0.40628399999999998
aF0.28351900000000002
aF0.247692
aF1.997352
aF2.3468089999999999
aF1.359877
aF0.84829399999999999
aF0.74038199999999998
aF0.57273200000000002
aF0.41722599999999999
aF0.38180199999999997
aF0.25698700000000002
aF0.174572
aF1.1756450000000001
aF2.052667
aF1.089788
aF1.008815
aF0.81958500000000001
aF0.71533599999999997
aF0.63171999999999995
aF0.33980399999999999
aF0.28127200000000002
aF0.237071
aF2.6516500000000001
aF1.8412790000000001
aF0.95273399999999997
aF0.87524400000000002
aF0.70821599999999996
aF0.52704600000000001
aF0.49301400000000001
aF0.33427299999999999
aF0.26114799999999999
aF0.161605
aF1.4351849999999999
aF1.997352
aF0.86541999999999997
aF0.83992100000000003
aF0.55164800000000003
aF0.45320199999999999
aF0.43179699999999999
aF0.322988
aF0.21458199999999999
aF0.20896700000000001
aF1.7443690000000001
aF1.25
aF1.082532
aF0.87741800000000003
aF0.61491899999999999
aF0.50273500000000004
aF0.503969
aF0.32989200000000002
aF0.22340599999999999
aF0.19520000000000001
aF2.4056259999999998
aF2.5925929999999999
aF1.1590689999999999
aF0.99301399999999995
aF0.662995
aF0.52402499999999996
aF0.473717
aF0.29922100000000001
aF0.239899
aF0.24057000000000001
aF1.2441
aF1.810303
aF1.1574070000000001
aF0.86919199999999996
aF0.70090399999999997
aF0.646428
aF0.57794800000000002
aF0.35507300000000003
aF0.25755600000000001
aF0.22009699999999999
aF1.472756
aF1.9743520000000001
aF1.204928
aF0.82034099999999999
aF0.72581899999999999
aF0.61926599999999998
aF0.42714600000000003
aF0.34202199999999999
aF0.28625800000000001
aF0.230159
aF1.997352
aF2.4669110000000001
aF1.020408
aF0.64147900000000002
aF0.62368100000000004
aF0.62417299999999998
aF0.48026099999999999
aF0.34292400000000001
aF0.308923
aF0.20622099999999999
aF2.5925929999999999
aF2.052667
aF1.0433460000000001
aF0.812917
aF0.65878599999999998
aF0.63947299999999996
aF0.450789
aF0.31573800000000002
aF0.24576500000000001
aF0.187247
aF1.938188
aF2.1875
aF0.96166499999999999
aF0.817685
aF0.70090399999999997
aF0.44913900000000001
aF0.50450700000000004
aF0.28587000000000001
aF0.17108200000000001
aF0.155777
aF1.1906969999999999
aF1.462782
aF1.2105779999999999
aF0.81330899999999995
aF0.53875799999999996
aF0.41589999999999999
aF0.29988100000000001
aF0.268175
aF0.216863
aF0.16667100000000001
aF2.052667
aF2.6997460000000002
aF1.032796
aF0.92755399999999999
aF0.76360399999999995
aF0.60831199999999996
aF0.38876300000000003
aF0.35693399999999997
aF0.28764499999999998
aF0.206401
aF2.0951309999999999
aF2.237724
aF1.3608279999999999
aF0.99195
aF0.67993800000000004
aF0.63269699999999995
aF0.483823
aF0.35513099999999997
aF0.28915800000000003
aF0.22079599999999999
aF2.2908110000000002
aF1.871138
aF1.2380059999999999
aF0.92509200000000003
aF0.76683500000000004
aF0.62420399999999998
aF0.41468100000000002
aF0.38439099999999998
aF0.30093999999999999
aF0.23028499999999999
aF1.235541
aF2.3468089999999999
aF1.1907239999999999
aF0.65057799999999999
aF0.72447099999999998
aF0.62271699999999996
aF0.50842100000000001
aF0.34892699999999999
aF0.22767499999999999
aF0.15562999999999999
aF2.0124610000000001
aF2.5925929999999999
aF0.80803599999999998
aF0.63259100000000001
aF0.79196
aF0.49029
aF0.51757200000000003
aF0.25346600000000002
aF0.24854699999999999
aF0.20422799999999999
aF2.4056259999999998
aF1.4514549999999999
aF1.0241579999999999
aF0.90709799999999996
aF0.73741999999999996
aF0.49640200000000001
aF0.38459599999999999
aF0.31524000000000002
aF0.18610199999999999
aF0.18290899999999999
aF1.9038269999999999
aF2.03125
aF0.54173000000000004
aF0.56562500000000004
aF0.75992899999999997
aF0.51576
aF0.45683499999999999
aF0.28688000000000002
aF0.28351100000000001
aF0.22903899999999999
aF1.448836
aF1.9319219999999999
aF1.0241579999999999
aF0.90793400000000002
aF0.76683500000000004
aF0.62848000000000004
aF0.53410199999999997
aF0.35989300000000002
aF0.26113599999999998
aF0.21676400000000001
aF2.5925929999999999
aF1.6393899999999999
aF1.022446
aF0.67951300000000003
aF0.69078499999999998
aF0.60562400000000005
aF0.408163
aF0.32196399999999997
aF0.29250500000000001
aF0.20344699999999999
aF1.5643039999999999
aF2.2908110000000002
aF1.218917
aF0.79920400000000003
aF0.75445799999999996
aF0.60999999999999999
aF0.379473
aF0.39571699999999999
aF0.29208000000000001
aF0.19963600000000001
aF2.5298219999999998
aF2.4669110000000001
aF1.074802
aF0.83992100000000003
aF0.64594099999999999
aF0.48320000000000002
aF0.50688200000000005
aF0.38863799999999998
aF0.22536200000000001
aF0.193854
aF2.3468089999999999
aF1.3660749999999999
aF1.3600000000000001
aF0.649038
aF0.68942000000000003
aF0.59322200000000003
aF0.58560699999999999
aF0.27933599999999997
aF0.22416
aF0.163186
aF2.4056259999999998
aF2.2908110000000002
aF1.134873
aF0.85526400000000002
aF0.56829200000000002
aF0.52402499999999996
aF0.49358800000000003
aF0.27113799999999999
aF0.19132099999999999
aF0.154831
aF1.52
aF1.3960779999999999
aF1.0107660000000001
aF0.69788899999999998
aF0.60633899999999996
aF0.432508
aF0.48089199999999999
aF0.33379900000000001
aF0.25494899999999998
aF0.17058000000000001
aF2.237724
aF2.4056259999999998
aF1.3325549999999999
aF0.62477799999999994
aF0.70090399999999997
aF0.62526999999999999
aF0.52780700000000003
aF0.31006
aF0.27441599999999999
aF0.208401
aF1.871138
aF2.6997460000000002
aF1.0269349999999999
aF1.0241579999999999
aF0.57958900000000002
aF0.62804899999999997
aF0.44261499999999998
aF0.364093
aF0.24399000000000001
aF0.21457799999999999
aF1.8412790000000001
aF2.0999099999999999
aF0.72388300000000005
aF0.76636000000000004
aF0.79196
aF0.60053000000000001
aF0.52277300000000004
aF0.42408699999999999
aF0.25553500000000001
aF0.20444499999999999
aF1.6393899999999999
aF1.9038269999999999
aF1.2806580000000001
aF0.90709799999999996
aF0.68479599999999996
aF0.57022200000000001
aF0.48219800000000002
aF0.33623900000000001
aF0.24075199999999999
aF0.12953400000000001
aF2.4669110000000001
aF1.6594439999999999
aF1.3416410000000001
aF0.79611299999999996
aF0.60741500000000004
aF0.57865800000000001
aF0.57168399999999997
aF0.27509
aF0.219446
aF0.118864
aF1.938188
aF2.3468089999999999
aF1.2705820000000001
aF0.47798200000000002
aF0.664551
aF0.61451699999999998
aF0.42514000000000002
aF0.23070399999999999
aF0.18776799999999999
aF0.14182900000000001
aF2.1875
aF1.6318520000000001
aF0.76960399999999995
aF0.85978399999999999
aF0.49894500000000003
aF0.5
aF0.34117500000000001
aF0.31328800000000001
aF0.24432699999999999
aF0.19253899999999999
aF2.4056259999999998
aF2.1875
aF0.76683500000000004
aF0.83877500000000005
aF0.72735499999999997
aF0.72361200000000003
aF0.48983399999999999
aF0.33795399999999998
aF0.29321000000000003
aF0.23415
aF2.5298219999999998
aF1.602039
aF1.1574070000000001
aF0.82034099999999999
aF0.77751300000000001
aF0.56595200000000001
aF0.48424800000000001
aF0.29220400000000002
aF0.30119200000000002
aF0.21198400000000001
aF2.4669110000000001
aF2.03125
aF1.1263160000000001
aF0.88005299999999997
aF0.68029899999999999
aF0.40965499999999999
aF0.466617
aF0.33535300000000001
aF0.25849800000000001
aF0.22903499999999999
aF2.2908110000000002
aF1.870439
aF1.1596550000000001
aF0.85373500000000002
aF0.64068400000000003
aF0.62809999999999999
aF0.47263500000000003
aF0.31490800000000002
aF0.210979
aF0.18199199999999999
aF1.9743520000000001
aF1.854684
aF1.1703380000000001
aF0.95935400000000004
aF0.72735399999999995
aF0.51305800000000001
aF0.40424199999999999
aF0.29527399999999998
aF0.21235699999999999
aF0.22376599999999999
aF2.1875
aF1.734874
aF0.98672599999999999
aF0.80903999999999998
aF0.58125899999999997
aF0.59291199999999999
aF0.524196
aF0.356628
aF0.23610700000000001
aF0.199901
aF2.1875
aF2.4056259999999998
aF0.86028400000000005
aF0.84548100000000004
aF0.601854
aF0.48825099999999999
aF0.46875
aF0.35492699999999999
aF0.26698899999999998
aF0.211227
aF1.875
aF1.552354
aF1.325825
aF0.66625199999999996
aF0.75307999999999997
aF0.58354499999999998
aF0.58602600000000005
aF0.44717200000000001
aF0.30697400000000002
aF0.207096
aF2.237724
aF2.6516500000000001
aF1.2
aF0.78561599999999998
aF0.59230400000000005
aF0.51836400000000005
aF0.53665600000000002
aF0.36251299999999997
aF0.27115600000000001
aF0.216644
aF2.5298219999999998
aF2.6516500000000001
aF1.104644
aF0.85115099999999999
aF0.71274700000000002
aF0.63956999999999997
aF0.54527899999999996
aF0.39308300000000002
aF0.30559999999999998
aF0.20025100000000001
aF1.506367
aF1.734874
aF1.2705820000000001
aF0.69948200000000005
aF0.75307999999999997
aF0.59999999999999998
aF0.56066099999999996
aF0.32290799999999997
aF0.29008600000000001
aF0.16109299999999999
aF2.03125
aF0.98209299999999999
aF0.94672900000000004
aF0.79561000000000004
aF0.85526400000000002
aF0.58354499999999998
aF0.39068599999999998
aF0.31675399999999998
aF0.236181
aF0.17177000000000001
aF2.5298219999999998
aF2.5925929999999999
aF0.86057099999999997
aF0.75440399999999996
aF0.59536199999999995
aF0.40400700000000001
aF0.43936999999999998
aF0.28933399999999998
aF0.17586399999999999
aF0.17638699999999999
aF2.6516500000000001
aF1.266019
aF1.109936
aF0.610653
aF0.69993399999999995
aF0.472889
aF0.42183500000000002
aF0.29011199999999998
aF0.21508099999999999
aF0.17486299999999999
aF2.4056259999999998
aF1.3660749999999999
aF0.81500499999999998
aF0.79753099999999999
aF0.43542999999999998
aF0.46510200000000002
aF0.43529299999999999
aF0.307392
aF0.25819900000000001
aF0.20860000000000001
aF1.138906
aF1.1531720000000001
aF1.266019
aF0.60071399999999997
aF0.68359800000000004
aF0.68942000000000003
aF0.614375
aF0.38510100000000003
aF0.26391799999999999
aF0.21843299999999999
aF1.4781059999999999
aF1.9038269999999999
aF1.2840119999999999
aF0.73660499999999995
aF0.68029899999999999
aF0.52750799999999998
aF0.53710599999999997
aF0.35793900000000001
aF0.28525699999999998
aF0.23497199999999999
aF1.7860860000000001
aF1.813169
aF1.160137
aF0.72520399999999996
aF0.75467300000000004
aF0.59680699999999998
aF0.48445500000000002
aF0.42548000000000002
aF0.230851
aF0.18776200000000001
aF2.3468089999999999
aF2.1400199999999998
aF1.0866739999999999
aF0.90509700000000004
aF0.76817599999999997
aF0.52800100000000005
aF0.47925699999999999
aF0.35734700000000003
aF0.246778
aF0.19515399999999999
aF2.4056259999999998
aF2.5298219999999998
aF1.2074510000000001
aF0.70204
aF0.51055899999999999
aF0.54527899999999996
aF0.53015999999999996
aF0.31808500000000001
aF0.23771
aF0.19734099999999999
aF1.702294
aF1.6159829999999999
aF1.0465180000000001
aF0.81632700000000002
aF0.58593799999999996
aF0.62968999999999997
aF0.49259700000000001
aF0.33873300000000001
aF0.24130699999999999
aF0.16972400000000001
aF2.03125
aF2.5925929999999999
aF1.1314390000000001
aF0.77337999999999996
aF0.63001300000000005
aF0.64200599999999997
aF0.56640599999999997
aF0.342366
aF0.24516399999999999
aF0.18304300000000001
aF1.421829
aF2.2908110000000002
aF1.2037040000000001
aF0.88156500000000004
aF0.602101
aF0.57575799999999999
aF0.467669
aF0.33505400000000002
aF0.28253299999999998
aF0.20984
aF1.092158
aF2.5298219999999998
aF1.015889
aF0.99195
aF0.53215400000000002
aF0.703125
aF0.63836000000000004
aF0.40958899999999998
aF0.27058199999999999
aF0.24847900000000001
aF1.9038269999999999
aF2.4669110000000001
aF1.3577269999999999
aF1.018519
aF0.671408
aF0.69788899999999998
aF0.56115599999999999
aF0.43648599999999999
aF0.23636699999999999
aF0.221524
aF2.6997460000000002
aF2.5925929999999999
aF1.3325549999999999
aF0.64149999999999996
aF0.66900099999999996
aF0.603491
aF0.50772600000000001
aF0.35989500000000002
aF0.294068
aF0.210089
aF2.1334620000000002
aF1.600822
aF1.0621419999999999
aF0.97372899999999996
aF0.65548499999999998
aF0.64416799999999996
aF0.47087200000000001
aF0.31507800000000002
aF0.151924
aF0.203597
aF1.7010350000000001
aF2.6997460000000002
aF0.83958600000000005
aF0.93338100000000002
aF0.69803899999999997
aF0.62042799999999998
aF0.44612600000000002
aF0.29690499999999997
aF0.20072999999999999
aF0.167184
aF2.6997460000000002
aF1.7106669999999999
aF0.63123499999999999
aF0.80257199999999995
aF0.65472900000000001
aF0.512046
aF0.44385599999999997
aF0.28916999999999998
aF0.21818599999999999
aF0.16442000000000001
aF2.5298219999999998
aF2.5298219999999998
aF1.059256
aF0.859375
aF0.67388499999999996
aF0.444828
aF0.444772
aF0.378
aF0.241901
aF0.19734699999999999
aF2.237724
aF1.584015
aF1.350873
aF0.90915500000000005
aF0.73463800000000001
aF0.54246799999999995
aF0.45186199999999999
aF0.36756800000000001
aF0.26563100000000001
aF0.18687400000000001
aF1.938188
aF1.6000000000000001
aF0.91847199999999996
aF0.86222900000000002
aF0.58309
aF0.45829900000000001
aF0.46830100000000002
aF0.321465
aF0.24613299999999999
aF0.17938499999999999
aF1.7888539999999999
aF1.938188
aF1.3608279999999999
aF0.74359699999999995
aF0.66202799999999995
aF0.64200599999999997
aF0.450463
aF0.31815599999999999
aF0.20946699999999999
aF0.19356200000000001
aF1.2317549999999999
aF1.6393899999999999
aF1.212383
aF0.89648700000000003
aF0.71470699999999998
aF0.489898
aF0.37683
aF0.29737200000000003
aF0.17535800000000001
aF0.17929200000000001
aF1.4266799999999999
aF2.0124610000000001
aF1.0862289999999999
aF0.78125
aF0.54521799999999998
aF0.61846100000000004
aF0.54686199999999996
aF0.33984700000000001
aF0.26476699999999997
aF0.229958
aF2.3468089999999999
aF1.964186
aF0.78405599999999998
aF1.0278799999999999
aF0.54442100000000004
aF0.53665600000000002
aF0.59550400000000003
aF0.34175
aF0.29435499999999998
aF0.23568
aF2.5298219999999998
aF1.900658
aF1.2610189999999999
aF0.77300100000000005
aF0.50534100000000004
aF0.64879699999999996
aF0.45898299999999997
aF0.36648999999999998
aF0.23022200000000001
aF0.23053899999999999
aF2.2908110000000002
aF2.1400199999999998
aF1.160137
aF0.61426800000000004
aF0.83161700000000005
aF0.53250799999999998
aF0.43226100000000001
aF0.36095899999999997
aF0.257214
aF0.23235500000000001
aF2.5298219999999998
aF1.0494829999999999
aF0.68473200000000001
aF0.85491399999999995
aF0.691272
aF0.53698299999999999
aF0.51355099999999998
aF0.38260899999999998
aF0.27669899999999997
aF0.21379999999999999
aF2.5298219999999998
aF2.5298219999999998
aF0.81762999999999997
aF0.99036999999999997
aF0.49664000000000003
aF0.67445500000000003
aF0.62205900000000003
aF0.38662999999999997
aF0.27857199999999999
aF0.206373
aF2.5298219999999998
aF2.5925929999999999
aF0.99611799999999995
aF0.65767200000000003
aF0.73278299999999996
aF0.56950800000000001
aF0.506942
aF0.36607899999999999
aF0.28518100000000002
aF0.167186
aF1.513223
aF1.1734039999999999
aF0.94215000000000004
aF0.76904700000000004
aF0.65000000000000002
aF0.603491
aF0.48252800000000001
aF0.394673
aF0.27276
aF0.21229000000000001
aF2.6997460000000002
aF1.766526
aF0.96274300000000002
aF0.89648700000000003
aF0.768648
aF0.50823700000000005
aF0.51314499999999996
aF0.35767199999999999
aF0.276864
aF0.22640099999999999
aF1.9743520000000001
aF2.6997460000000002
aF1.0304420000000001
aF0.64869900000000003
aF0.73656999999999995
aF0.62836599999999998
aF0.425487
aF0.34442699999999998
aF0.26457900000000001
aF0.15923000000000001
aF2.4056259999999998
aF2.1400199999999998
aF1.266019
aF0.554423
aF0.62693500000000002
aF0.61949399999999999
aF0.51099499999999998
aF0.35403800000000002
aF0.20068900000000001
aF0.15795000000000001
aF2.2908110000000002
aF2.5925929999999999
aF1.2166250000000001
aF0.79611299999999996
aF0.39881
aF0.338945
aF0.43029499999999998
aF0.25900699999999999
aF0.26728499999999999
aF0.15554799999999999
aF2.237724
aF2.6997460000000002
aF1.3416410000000001
aF1.0141849999999999
aF0.47593299999999999
aF0.52789900000000001
aF0.32225100000000001
aF0.31348399999999998
aF0.244201
aF0.15498600000000001
aF2.5298219999999998
aF2.2908110000000002
aF1.350873
aF0.906721
aF0.64314499999999997
aF0.47137099999999998
aF0.58676600000000001
aF0.40291100000000002
aF0.27937000000000001
aF0.24723200000000001
aF2.5298219999999998
aF2.1875
aF1.356732
aF0.96209900000000004
aF0.75337100000000001
aF0.65201200000000004
aF0.61758199999999996
aF0.37349300000000002
aF0.26931100000000002
aF0.24257300000000001
aF2.5298219999999998
aF2.0124610000000001
aF1.0665530000000001
aF0.98821199999999998
aF0.64141499999999996
aF0.67742400000000003
aF0.65989600000000004
aF0.36672100000000002
aF0.271976
aF0.21251100000000001
aF2.1400199999999998
aF1.1426719999999999
aF1.2105779999999999
aF0.78519600000000001
aF0.68907300000000005
aF0.61053999999999997
aF0.54838600000000004
aF0.368035
aF0.25125500000000001
aF0.21585599999999999
aF2.3468089999999999
aF2.237724
aF1.3608279999999999
aF0.76960399999999995
aF0.56750400000000001
aF0.51711499999999999
aF0.46288499999999999
aF0.380407
aF0.22220699999999999
aF0.13856399999999999
aF1.600822
aF1.388889
aF1.0964050000000001
aF0.81598800000000005
aF0.70006199999999996
aF0.64287000000000005
aF0.50968599999999997
aF0.32234099999999999
aF0.20194200000000001
aF0.19003700000000001
aF2.5298219999999998
aF2.0951309999999999
aF1.350873
aF0.932419
aF0.74475999999999998
aF0.58188300000000004
aF0.39180599999999999
aF0.24262600000000001
aF0.180422
aF0.158725
aF1.72251
aF2.1875
aF1.1085799999999999
aF0.73463800000000001
aF0.51085000000000003
aF0.48575499999999999
aF0.43402800000000002
aF0.33550099999999999
aF0.23912700000000001
aF0.16894100000000001
aF2.065591
aF2.4056259999999998
aF1.2074510000000001
aF0.75218600000000002
aF0.64453099999999997
aF0.65993800000000002
aF0.56811100000000003
aF0.31553199999999998
aF0.238894
aF0.24349199999999999
aF2.237724
aF2.6997460000000002
aF1.1526259999999999
aF0.73978299999999997
aF0.65643300000000004
aF0.72936999999999996
aF0.49768499999999999
aF0.35975600000000002
aF0.27871099999999999
aF0.241866
aF1.506367
aF1.6159829999999999
aF0.920682
aF0.82031200000000004
aF0.72512600000000005
aF0.63956999999999997
aF0.47971900000000001
aF0.43168200000000001
aF0.27087
aF0.222916
aF2.5298219999999998
aF2.052667
aF1.2166809999999999
aF0.88258899999999996
aF0.49138300000000001
aF0.59357000000000004
aF0.49573499999999998
aF0.35242299999999999
aF0.26826100000000003
aF0.21290700000000001
aF1.266019
aF1.6393899999999999
aF1.1427350000000001
aF0.98672599999999999
aF0.68226900000000001
aF0.480186
aF0.47383599999999998
aF0.361481
aF0.247529
aF0.245476
aF1.997352
aF2.1875
aF1.3416410000000001
aF0.76935100000000001
aF0.59152800000000005
aF0.61451699999999998
aF0.43876799999999999
aF0.36915599999999998
aF0.217641
aF0.145479
aF2.2908110000000002
aF2.5925929999999999
aF1.206869
aF0.78512499999999996
aF0.64879699999999996
aF0.493724
aF0.40291100000000002
aF0.33218199999999998
aF0.24172299999999999
aF0.147394
aF2.4669110000000001
aF2.5925929999999999
aF1.3446899999999999
aF0.91759599999999997
aF0.74484300000000003
aF0.56692200000000004
aF0.589256
aF0.335536
aF0.23247799999999999
aF0.21015300000000001
aF2.5925929999999999
aF2.6516500000000001
aF1.1525920000000001
aF0.86028400000000005
aF0.68303800000000003
aF0.56346499999999999
aF0.52734400000000003
aF0.25982100000000002
aF0.28336899999999998
aF0.18310999999999999
aF2.3468089999999999
aF1.529773
aF1.1907239999999999
aF0.685253
aF0.55712899999999999
aF0.52337400000000001
aF0.41784700000000002
aF0.348528
aF0.25550899999999999
aF0.215808
aF2.6997460000000002
aF2.5298219999999998
aF1.130668
aF0.67993800000000004
aF0.76974799999999999
aF0.57397799999999999
aF0.53513699999999997
aF0.326851
aF0.25214399999999998
aF0.22414200000000001
aF2.2908110000000002
aF2.0124610000000001
aF0.83477900000000005
aF0.90709799999999996
aF0.63245600000000002
aF0.624085
aF0.49824000000000002
aF0.28854600000000002
aF0.30904900000000002
aF0.24251300000000001
aF2.1875
aF2.052667
aF0.88549900000000004
aF0.91847199999999996
aF0.752938
aF0.55712899999999999
aF0.455376
aF0.39668300000000001
aF0.29444900000000002
aF0.238202
aF1.766526
aF1.409373
aF1.082532
aF0.71321699999999999
aF0.76360399999999995
aF0.58014200000000005
aF0.47492499999999999
aF0.383712
aF0.27486100000000002
aF0.236043
aF1.8400000000000001
aF1.7819449999999999
aF1.1574070000000001
aF0.838175
aF0.83850499999999994
aF0.58553999999999995
aF0.58274700000000001
aF0.29141099999999998
aF0.21613099999999999
aF0.14285700000000001
aF2.6516500000000001
aF2.4669110000000001
aF1.303952
aF0.69117700000000004
aF0.47394999999999998
aF0.46510200000000002
aF0.56218299999999999
aF0.250137
aF0.23604
aF0.17701500000000001
aF1.125362
aF2.5298219999999998
aF1.145405
aF0.98821199999999998
aF0.543493
aF0.57397799999999999
aF0.43876799999999999
aF0.23671300000000001
aF0.25556000000000001
aF0.179422
aF1.2885329999999999
aF1.76
aF1.259822
aF0.66544899999999996
aF0.64898400000000001
aF0.46650799999999998
aF0.424929
aF0.35217199999999999
aF0.246452
aF0.19708700000000001
aF1.664855
aF1.76
aF0.93218000000000001
aF0.82054099999999996
aF0.55078800000000006
aF0.52759699999999998
aF0.441942
aF0.32790599999999998
aF0.21315799999999999
aF0.184722
aF2.5298219999999998
aF1.9743520000000001
aF1.350873
aF0.82934699999999995
aF0.68038600000000005
aF0.48724800000000001
aF0.53298100000000004
aF0.34748200000000001
aF0.233982
aF0.224136
aF1.964186
aF2.5925929999999999
aF1.16493
aF0.96208800000000005
aF0.72999999999999998
aF0.63947299999999996
aF0.44323699999999999
aF0.38858599999999999
aF0.26212000000000002
aF0.23196600000000001
aF2.2908110000000002
aF2.5925929999999999
aF1.3281959999999999
aF0.95084000000000002
aF0.79236600000000001
aF0.63245600000000002
aF0.49848399999999998
aF0.36791499999999999
aF0.28474300000000002
aF0.21840599999999999
aF1.5586990000000001
aF2.5925929999999999
aF1.082532
aF0.799925
aF0.62397100000000005
aF0.65684500000000001
aF0.42969200000000002
aF0.34964400000000001
aF0.29801899999999998
aF0.22999700000000001
aF2.5298219999999998
aF2.4669110000000001
aF0.95276799999999995
aF0.90725599999999995
aF0.70383300000000004
aF0.55454099999999995
aF0.48841200000000001
aF0.360624
aF0.22793099999999999
aF0.15067
aF1.6799999999999999
aF1.811177
aF0.78567399999999998
aF0.802508
aF0.416684
aF0.48976199999999998
aF0.39182800000000001
aF0.26738400000000001
aF0.17135400000000001
aF0.121124
aF1.6904319999999999
aF1.460593
aF0.54870600000000003
aF0.76767799999999997
aF0.34742000000000001
aF0.34901900000000002
aF0.276673
aF0.217746
aF0.176181
aF0.14107700000000001
aF1.811177
aF2.1400199999999998
aF0.73741999999999996
aF0.452486
aF0.52405100000000004
aF0.29238900000000001
aF0.33527499999999999
aF0.23910100000000001
aF0.19933999999999999
aF0.156139
aF1.9319219999999999
aF2.4056259999999998
aF1.2132689999999999
aF0.61996399999999996
aF0.60833199999999998
aF0.43138799999999999
aF0.49965100000000001
aF0.259996
aF0.16392100000000001
aF0.16309399999999999
aF0.85115099999999999
aF1.0219400000000001
aF0.66194200000000003
aF0.45728799999999997
aF0.55477699999999996
aF0.42824899999999999
aF0.44812999999999997
aF0.38012499999999999
aF0.30260799999999999
aF0.21209700000000001
aF1.702294
aF1.199668
aF0.95935400000000004
aF0.50695000000000001
aF0.51302400000000004
aF0.59358500000000003
aF0.51489799999999997
aF0.39582000000000001
aF0.30619200000000002
aF0.22536100000000001
aF0.70224399999999998
aF1.9038269999999999
aF1.3388770000000001
aF0.92699500000000001
aF0.58213300000000001
aF0.53250799999999998
aF0.57273200000000002
aF0.36349700000000001
aF0.25748799999999999
aF0.260631
aF2.0124610000000001
aF1.506367
aF0.85373500000000002
aF0.80059199999999997
aF0.79659899999999995
aF0.62420399999999998
aF0.52623500000000001
aF0.41703000000000001
aF0.27764100000000003
aF0.220862
aF2.1875
aF2.2908110000000002
aF1.2441
aF0.81859599999999999
aF0.76930600000000005
aF0.52383999999999997
aF0.62155700000000003
aF0.356105
aF0.28050599999999998
aF0.22659299999999999
aF2.1650640000000001
aF2.6997460000000002
aF1.275776
aF0.88005299999999997
aF0.54729000000000005
aF0.65735399999999999
aF0.60741500000000004
aF0.349854
aF0.23527300000000001
aF0.19078200000000001
aF1.813169
aF1.513223
aF0.83958600000000005
aF0.96208800000000005
aF0.67917099999999997
aF0.60562400000000005
aF0.49376500000000001
aF0.33335300000000001
aF0.22372700000000001
aF0.16777800000000001
aF1.584015
aF1.7106669999999999
aF1.2148859999999999
aF0.83355599999999996
aF0.57288700000000004
aF0.63555099999999998
aF0.41322300000000001
aF0.300178
aF0.23694000000000001
aF0.19448299999999999
aF1.8400000000000001
aF2.1400199999999998
aF1.134873
aF0.72735899999999998
aF0.66813800000000001
aF0.59999999999999998
aF0.45715299999999998
aF0.35081000000000001
aF0.24979399999999999
aF0.17068800000000001
aF2.1400199999999998
aF1.938188
aF1.022391
aF0.77587799999999996
aF0.50599499999999997
aF0.47284500000000002
aF0.46752100000000002
aF0.34690900000000002
aF0.27064700000000003
aF0.21081900000000001
aF2.2908110000000002
aF2.4669110000000001
aF0.74420299999999995
aF0.72526800000000002
aF0.73539100000000002
aF0.497834
aF0.49848199999999998
aF0.28928799999999999
aF0.26310899999999998
aF0.227824
aF2.6516500000000001
aF2.052667
aF0.92470300000000005
aF0.94868300000000005
aF0.72672199999999998
aF0.53236600000000001
aF0.40452199999999999
aF0.377299
aF0.30697400000000002
aF0.23780499999999999
aF2.6516500000000001
aF2.6516500000000001
aF1.0575859999999999
aF0.957619
aF0.67466700000000002
aF0.56102200000000002
aF0.47814600000000002
aF0.42189300000000002
aF0.213783
aF0.22942499999999999
aF1.900658
aF1.734874
aF1.278019
aF0.76980000000000004
aF0.65000000000000002
aF0.62180999999999997
aF0.417014
aF0.424931
aF0.26864399999999999
aF0.23469999999999999
aF2.1400199999999998
aF1.295099
aF1.1906969999999999
aF0.83914599999999995
aF0.60831199999999996
aF0.62528799999999995
aF0.610815
aF0.37185699999999999
aF0.24213100000000001
aF0.21329899999999999
aF1.813169
aF2.4669110000000001
aF1.3416410000000001
aF0.78330900000000003
aF0.73833000000000004
aF0.555423
aF0.51838899999999999
aF0.28509499999999999
aF0.187194
aF0.16492299999999999
aF2.5298219999999998
aF1.5823100000000001
aF0.98994899999999997
aF0.82024399999999997
aF0.67965699999999996
aF0.48369200000000001
aF0.53000000000000003
aF0.263959
aF0.22572700000000001
aF0.152917
aF1.30444
aF1.3476619999999999
aF1.16493
aF0.56609799999999999
aF0.55950699999999998
aF0.53280300000000003
aF0.40814400000000001
aF0.33290999999999998
aF0.218366
aF0.17613899999999999
aF2.1334620000000002
aF1.702294
aF1.1525920000000001
aF0.88
aF0.70710700000000004
aF0.57299199999999995
aF0.53430299999999997
aF0.350215
aF0.21032500000000001
aF0.19955800000000001
aF2.2908110000000002
aF2.1928100000000001
aF1.206869
aF0.75416700000000003
aF0.673844
aF0.49149300000000001
aF0.49807400000000002
aF0.27094200000000002
aF0.208284
aF0.24090300000000001
aF2.2908110000000002
aF2.5925929999999999
aF1.359877
aF1.0277400000000001
aF0.69645199999999996
aF0.67742400000000003
aF0.53027999999999997
aF0.33009500000000003
aF0.270735
aF0.23322200000000001
aF1.7010350000000001
aF1.6770510000000001
aF1.199668
aF0.71421599999999996
aF0.78804099999999999
aF0.48879899999999998
aF0.58674400000000004
aF0.35457
aF0.28395799999999999
aF0.20411599999999999
aF1.466261
aF2.2908110000000002
aF1.107872
aF0.70141500000000001
aF0.66813800000000001
aF0.61662499999999998
aF0.56525899999999996
aF0.32594699999999999
aF0.25888699999999998
aF0.22157399999999999
aF1.7443690000000001
aF2.0951309999999999
aF1.1907239999999999
aF0.98186600000000002
aF0.70561399999999996
aF0.60267700000000002
aF0.58430000000000004
aF0.39896799999999999
aF0.261243
aF0.22381300000000001
aF2.5298219999999998
aF1.918709
aF0.86647600000000002
aF0.90495899999999996
aF0.62368100000000004
aF0.67887500000000001
aF0.45352599999999998
aF0.38339699999999999
aF0.25993500000000003
aF0.191552
aF2.5925929999999999
aF2.3468089999999999
aF1.2491220000000001
aF0.70092200000000005
aF0.69101599999999996
aF0.56155600000000006
aF0.47648000000000001
aF0.29828300000000002
aF0.23569799999999999
aF0.20055000000000001
aF1.3542780000000001
aF1.1334409999999999
aF0.95754899999999998
aF0.794373
aF0.71333999999999997
aF0.45624399999999998
aF0.47482400000000002
aF0.35909099999999999
aF0.244725
aF0.18020800000000001
aF2.4056259999999998
aF2.4669110000000001
aF1.3416410000000001
aF0.92699500000000001
aF0.49050700000000003
aF0.49807400000000002
aF0.49463299999999999
aF0.270729
aF0.232095
aF0.19142400000000001
aF1.063944
aF2.5298219999999998
aF1.3281959999999999
aF0.65588000000000002
aF0.62327699999999997
aF0.568658
aF0.46981600000000001
aF0.32198700000000002
aF0.235211
aF0.185755
aF2.1875
aF2.4056259999999998
aF1.1785600000000001
aF0.90709799999999996
aF0.59150999999999998
aF0.59255899999999995
aF0.38480199999999998
aF0.33806199999999997
aF0.271922
aF0.201262
aF2.5298219999999998
aF2.4669110000000001
aF1.1756450000000001
aF0.93307499999999999
aF0.76683500000000004
aF0.69993399999999995
aF0.44761899999999999
aF0.39536700000000002
aF0.23796200000000001
aF0.228857
aF2.4056259999999998
aF2.1875
aF1.275776
aF0.65875600000000001
aF0.76936800000000005
aF0.69550699999999999
aF0.52143499999999998
aF0.39182800000000001
aF0.26318799999999998
aF0.221384
aF2.6516500000000001
aF1.854684
aF1.1085799999999999
aF0.96225000000000005
aF0.70183399999999996
aF0.70610899999999999
aF0.40603899999999998
aF0.39671600000000001
aF0.27091900000000002
aF0.232626
aF2.6516500000000001
aF2.052667
aF1.274618
aF0.88291699999999995
aF0.61439600000000005
aF0.468001
aF0.49270199999999997
aF0.42908099999999999
aF0.21674099999999999
aF0.21375
aF1.7548349999999999
aF2.6516500000000001
aF0.98821199999999998
aF0.93162199999999995
aF0.85526400000000002
aF0.62440099999999998
aF0.51097000000000004
aF0.30393999999999999
aF0.258353
aF0.236766
aF2.4669110000000001
aF2.4669110000000001
aF1.1703380000000001
aF0.61607800000000001
aF0.56892299999999996
aF0.63100100000000003
aF0.43002200000000002
aF0.29027900000000001
aF0.20224700000000001
aF0.16095200000000001
aF1.9743520000000001
aF2.6516500000000001
aF0.79920400000000003
aF0.91847199999999996
aF0.387708
aF0.45408900000000002
aF0.44276900000000002
aF0.23933499999999999
aF0.22669800000000001
aF0.147595
aF2.2097090000000001
aF2.3468089999999999
aF0.98672599999999999
aF0.62229199999999996
aF0.44781399999999999
aF0.362479
aF0.41239700000000001
aF0.38714399999999999
aF0.184006
aF0.134744
aF2.4056259999999998
aF2.5298219999999998
aF0.96208800000000005
aF0.69524600000000003
aF0.64416799999999996
aF0.41236499999999998
aF0.50759500000000002
aF0.291466
aF0.18359600000000001
aF0.13641500000000001
aF2.2908110000000002
aF2.065591
aF1.049563
aF0.59974899999999998
aF0.64080300000000001
aF0.47673100000000002
aF0.49971900000000002
aF0.233876
aF0.178034
aF0.173481
aF1.361901
aF2.4056259999999998
aF0.60599400000000003
aF0.59510700000000005
aF0.43133199999999999
aF0.36562099999999997
aF0.40032000000000001
aF0.32777000000000001
aF0.25095699999999999
aF0.23241100000000001
aF2.065591
aF2.237724
aF1.0345869999999999
aF0.96824600000000005
aF0.73278299999999996
aF0.55597300000000005
aF0.39929100000000001
aF0.38689099999999998
aF0.24383299999999999
aF0.241645
aF1.6000000000000001
aF1.854684
aF1.093189
aF0.80116600000000004
aF0.70183399999999996
aF0.60533999999999999
aF0.48140100000000002
aF0.369226
aF0.26195800000000002
aF0.202543
aF2.5925929999999999
aF2.2908110000000002
aF1.074802
aF0.90625900000000004
aF0.74484300000000003
aF0.53972799999999999
aF0.50338099999999997
aF0.362257
aF0.26331300000000002
aF0.23655000000000001
aF1.210369
aF2.1875
aF1.207363
aF0.93301500000000004
aF0.52109000000000005
aF0.60185699999999998
aF0.59357000000000004
aF0.35668800000000001
aF0.27252100000000001
aF0.211149
aF1.496834
aF2.6997460000000002
aF1.2171609999999999
aF0.603244
aF0.68767999999999996
aF0.54022899999999996
aF0.486128
aF0.35855199999999998
aF0.24246400000000001
aF0.185137
aF1.5586990000000001
aF1.6393899999999999
aF1.3608279999999999
aF0.90606399999999998
aF0.59694700000000001
aF0.55306500000000003
aF0.433614
aF0.31675399999999998
aF0.18332000000000001
aF0.19330900000000001
aF2.3468089999999999
aF2.1400199999999998
aF1.3325549999999999
aF0.59784499999999996
aF0.63819899999999996
aF0.49115300000000001
aF0.51316700000000004
aF0.30991299999999999
aF0.195322
aF0.20611599999999999
aF2.1875
aF1.089788
aF1.0241579999999999
aF0.82934699999999995
aF0.72581899999999999
aF0.53765600000000002
aF0.48112500000000002
aF0.302983
aF0.25981199999999999
aF0.19278899999999999
aF2.6997460000000002
aF1.72251
aF0.79611299999999996
aF0.72886300000000004
aF0.68359400000000003
aF0.48522399999999999
aF0.466198
aF0.30769000000000002
aF0.22383700000000001
aF0.21332699999999999
aF1.508586
aF2.5925929999999999
aF1.2823789999999999
aF0.55477699999999996
aF0.77337999999999996
aF0.47727599999999998
aF0.55170300000000005
aF0.23016500000000001
aF0.22881299999999999
aF0.182619
aF2.1875
aF2.052667
aF0.99301399999999995
aF0.88864299999999996
aF0.60481200000000002
aF0.37822299999999998
aF0.54820199999999997
aF0.31949699999999998
aF0.247692
aF0.24843199999999999
aF1.9319219999999999
aF1.7443690000000001
aF1.0080199999999999
aF0.86129999999999995
aF0.67466700000000002
aF0.47263500000000003
aF0.40320800000000001
aF0.36457899999999999
aF0.269451
aF0.24576500000000001
aF1.52
aF2.237724
aF1.0994079999999999
aF0.96068100000000001
aF0.75218600000000002
aF0.60851500000000003
aF0.53819399999999995
aF0.32736399999999999
aF0.27690999999999999
aF0.218331
aF1.9743520000000001
aF2.6516500000000001
aF1.2153400000000001
aF0.85533400000000004
aF0.70029699999999995
aF0.57270299999999996
aF0.48459799999999997
aF0.32100299999999998
aF0.27896599999999999
aF0.233014
aF2.4056259999999998
aF2.1650640000000001
aF1.2298370000000001
aF0.90129099999999995
aF0.71440400000000004
aF0.64453099999999997
aF0.52320999999999995
aF0.37958799999999998
aF0.27327899999999999
aF0.25522299999999998
aF2.2908110000000002
aF2.4056259999999998
aF0.89542100000000002
aF0.98540399999999995
aF0.76583800000000002
aF0.50972700000000004
aF0.52867699999999995
aF0.43519400000000003
aF0.27556799999999998
aF0.238762
aF1.810303
aF2.0951309999999999
aF1.325825
aF0.80059199999999997
aF0.66999900000000001
aF0.65472900000000001
aF0.50906899999999999
aF0.41408699999999998
aF0.26868300000000001
aF0.16683799999999999
aF2.065591
aF1.619848
aF0.97597100000000003
aF0.93352000000000002
aF0.65983999999999998
aF0.50244500000000003
aF0.52918900000000002
aF0.39849600000000002
aF0.25927499999999998
aF0.192161
aF2.1875
aF1.900658
aF1.0665530000000001
aF0.92952500000000005
aF0.72004400000000002
aF0.62200999999999995
aF0.54395099999999996
aF0.37767299999999998
aF0.21201999999999999
aF0.18981600000000001
aF1.25
aF1.871138
aF1.049563
aF0.90470300000000003
aF0.81189900000000004
aF0.47781699999999999
aF0.405167
aF0.30405599999999999
aF0.19910600000000001
aF0.186337
aF2.052667
aF1.4370480000000001
aF1.106797
aF0.83914599999999995
aF0.57575799999999999
aF0.55294100000000002
aF0.45396700000000001
aF0.29095399999999999
aF0.18104700000000001
aF0.16873299999999999
aF2.4669110000000001
aF2.237724
aF1.195316
aF0.72886300000000004
aF0.71113599999999999
aF0.590951
aF0.400171
aF0.27273999999999998
aF0.25819900000000001
aF0.19883200000000001
aF1.7010350000000001
aF1.6393899999999999
aF0.93917700000000004
aF0.801315
aF0.62348000000000003
aF0.56865100000000002
aF0.358734
aF0.38234000000000001
aF0.25849800000000001
aF0.25595899999999999
aF2.4056259999999998
aF1.766526
aF1.1526259999999999
aF0.76767799999999997
aF0.706044
aF0.56686400000000003
aF0.53513699999999997
aF0.31092199999999998
aF0.26134200000000002
aF0.21198600000000001
aF2.052667
aF2.4669110000000001
aF1.204928
aF0.78561899999999996
aF0.65323699999999996
aF0.65022199999999997
aF0.49186600000000003
aF0.43001099999999998
aF0.25615500000000002
aF0.221972
aF2.0124610000000001
aF2.6997460000000002
aF1.350873
aF0.85526400000000002
aF0.53819399999999995
aF0.56346799999999997
aF0.51005500000000004
aF0.38954499999999997
aF0.29109600000000002
aF0.20646300000000001
aF1.9038269999999999
aF2.6997460000000002
aF1.350873
aF0.85840399999999994
aF0.73833000000000004
aF0.51274200000000003
aF0.45602100000000001
aF0.36278700000000003
aF0.26717999999999997
aF0.214833
aF2.4056259999999998
aF1.148299
aF1.2153400000000001
aF0.92592600000000003
aF0.74074099999999998
aF0.57823500000000005
aF0.53298100000000004
aF0.40291100000000002
aF0.28085199999999999
aF0.20083200000000001
aF2.5298219999999998
aF1.997352
aF1.059256
aF0.79002499999999998
aF0.58025899999999997
aF0.667879
aF0.45083899999999999
aF0.299566
aF0.25816800000000001
aF0.25917800000000002
aF2.5298219999999998
aF2.5925929999999999
aF1.2037040000000001
aF0.90556199999999998
aF0.65661800000000003
aF0.66409799999999997
aF0.60680299999999998
aF0.23100999999999999
aF0.216783
aF0.13084699999999999
aF2.0951309999999999
aF1.448836
aF1.065428
aF0.92509200000000003
aF0.664551
aF0.471771
aF0.48350799999999999
aF0.28688000000000002
aF0.168716
aF0.19605600000000001
aF2.03125
aF1.766526
aF0.98994899999999997
aF0.63993999999999995
aF0.54838600000000004
aF0.30104900000000001
aF0.46263900000000002
aF0.30534499999999998
aF0.206284
aF0.14505399999999999
aF1.2919499999999999
aF1.7443690000000001
aF0.90328699999999995
aF0.570573
aF0.46956300000000001
aF0.56811100000000003
aF0.46573199999999998
aF0.330515
aF0.206649
aF0.169436
aF2.1400199999999998
aF2.6516500000000001
aF0.33265699999999998
aF0.77271199999999995
aF0.74074099999999998
aF0.373913
aF0.39508599999999999
aF0.29054200000000002
aF0.20422799999999999
aF0.13815
aF1.6799999999999999
aF2.6997460000000002
aF0.64314499999999997
aF0.46653800000000001
aF0.69005799999999995
aF0.55339899999999997
aF0.31918099999999999
aF0.30748599999999998
aF0.19072700000000001
aF0.17185700000000001
aF0.65505500000000005
aF1.424272
aF1.356732
aF0.68359400000000003
aF0.51612400000000003
aF0.57397799999999999
aF0.51305800000000001
aF0.24501300000000001
aF0.31369799999999998
aF0.23200399999999999
aF2.4669110000000001
aF2.4669110000000001
aF1.3388770000000001
aF0.99195
aF0.71533599999999997
aF0.48381099999999999
aF0.47383599999999998
aF0.40784900000000002
aF0.30623099999999998
aF0.208202
aF1.938188
aF1.6799999999999999
aF1.185854
aF0.95991000000000004
aF0.72672199999999998
aF0.58665699999999998
aF0.53049299999999999
aF0.37335600000000002
aF0.29125000000000001
aF0.216446
aF2.237724
aF1.3439680000000001
aF1.2253829999999999
aF0.92952500000000005
aF0.71474199999999999
aF0.65875600000000001
aF0.55765699999999996
aF0.41331299999999999
aF0.29208000000000001
aF0.21287400000000001
aF2.3468089999999999
aF2.3468089999999999
aF1.2148859999999999
aF0.87203900000000001
aF0.61426800000000004
aF0.62066699999999997
aF0.48983399999999999
aF0.363178
aF0.29185800000000001
aF0.2427
aF1.8412790000000001
aF2.0124610000000001
aF1.1526259999999999
aF0.86919199999999996
aF0.63972099999999998
aF0.52480599999999999
aF0.42599700000000001
aF0.41331000000000001
aF0.248948
aF0.21873400000000001
aF1.332965
aF1.4971300000000001
aF1.356732
aF0.78328900000000001
aF0.65173700000000001
aF0.63389300000000004
aF0.512046
aF0.37395400000000001
aF0.31732199999999999
aF0.191523
aF2.1400199999999998
aF2.0124610000000001
aF0.95411299999999999
aF0.88258899999999996
aF0.64972099999999999
aF0.42244100000000001
aF0.50754500000000002
aF0.35013499999999997
aF0.23050399999999999
aF0.16647200000000001
aF2.4669110000000001
aF2.3468089999999999
aF0.78440399999999999
aF0.96589100000000006
aF0.68359400000000003
aF0.56016500000000002
aF0.48785800000000001
aF0.29871300000000001
aF0.242149
aF0.18870100000000001
aF1.909009
aF2.4056259999999998
aF1.278019
aF0.67383099999999996
aF0.76878100000000005
aF0.47881000000000001
aF0.46286100000000002
aF0.32589699999999999
aF0.24590200000000001
aF0.16072700000000001
aF2.1400199999999998
aF2.237724
aF1.356732
aF1.024556
aF0.71091499999999996
aF0.62200999999999995
aF0.39130300000000001
aF0.27351399999999998
aF0.1996
aF0.20051099999999999
aF1.3959889999999999
aF1.4363109999999999
aF0.95893200000000001
aF0.86930200000000002
aF0.70870900000000003
aF0.52047600000000005
aF0.436477
aF0.26425599999999999
aF0.205321
aF0.17735500000000001
aF1.72251
aF2.3468089999999999
aF1.2469589999999999
aF0.74218799999999996
aF0.77934999999999999
aF0.53594600000000003
aF0.47673100000000002
aF0.30893300000000001
aF0.20131099999999999
aF0.16905000000000001
aF2.6516500000000001
aF2.5298219999999998
aF1.199668
aF0.59695200000000004
aF0.794373
aF0.61784600000000001
aF0.55950699999999998
aF0.36769600000000002
aF0.28161399999999998
aF0.24414
aF1.811177
aF1.584015
aF1.0332209999999999
aF0.93301500000000004
aF0.72702299999999997
aF0.49463299999999999
aF0.54022899999999996
aF0.405362
aF0.27990799999999999
aF0.22952600000000001
aF1.766526
aF1.766526
aF1.2171609999999999
aF0.92208400000000001
aF0.64141499999999996
aF0.464252
aF0.56158799999999998
aF0.32655400000000001
aF0.26397599999999999
aF0.22678599999999999
aF2.2908110000000002
aF2.6516500000000001
aF1.2153400000000001
aF0.95450400000000002
aF0.75601499999999999
aF0.57331699999999997
aF0.58545499999999995
aF0.41424100000000003
aF0.29616900000000002
aF0.241645
aF1.619848
aF2.5925929999999999
aF1.2830010000000001
aF0.83984400000000003
aF0.69281999999999999
aF0.57291499999999995
aF0.478688
aF0.38776300000000002
aF0.27574799999999999
aF0.24415700000000001
aF2.5925929999999999
aF1.871138
aF1.1661809999999999
aF0.95935400000000004
aF0.614375
aF0.58213300000000001
aF0.59939699999999996
aF0.39917900000000001
aF0.243003
aF0.22358500000000001
aF1.6799999999999999
aF1.5823100000000001
aF1.134873
aF0.88080700000000001
aF0.65684500000000001
aF0.69290099999999999
aF0.59550400000000003
aF0.34098600000000001
aF0.26956799999999997
aF0.20552599999999999
aF2.6997460000000002
aF2.1875
aF1.274618
aF0.753803
aF0.75416700000000003
aF0.610653
aF0.55162199999999995
aF0.26666699999999999
aF0.244005
aF0.188636
aF2.3468089999999999
aF1.424272
aF0.84499500000000005
aF0.906721
aF0.589256
aF0.62971500000000002
aF0.40951199999999999
aF0.25535600000000003
aF0.24613299999999999
aF0.177504
aF2.2908110000000002
aF2.6516500000000001
aF0.96208800000000005
aF0.82034099999999999
aF0.70515700000000003
aF0.60562400000000005
aF0.48382399999999998
aF0.34936400000000001
aF0.27223599999999998
aF0.199213
aF2.1400199999999998
aF1.6393899999999999
aF1.3416410000000001
aF0.92661199999999999
aF0.68645800000000001
aF0.46220099999999997
aF0.41839900000000002
aF0.35792200000000002
aF0.224217
aF0.19312399999999999
aF2.3468089999999999
aF1.4399999999999999
aF1.2806580000000001
aF0.92592600000000003
aF0.65521300000000005
aF0.58503300000000003
aF0.52404399999999995
aF0.26836700000000002
aF0.27276099999999998
aF0.22645199999999999
aF2.6997460000000002
aF1.997352
aF1.069167
aF0.83333299999999999
aF0.62663100000000005
aF0.575712
aF0.53258099999999997
aF0.33599200000000001
aF0.261461
aF0.200325
aF2.6997460000000002
aF2.6997460000000002
aF0.61325099999999999
aF0.59397
aF0.66202799999999995
aF0.53805099999999995
aF0.43983899999999998
aF0.34434900000000002
aF0.251247
aF0.192442
aF2.4056259999999998
aF2.5298219999999998
aF1.25
aF0.76546599999999998
aF0.50911700000000004
aF0.55215800000000004
aF0.55294100000000002
aF0.375164
aF0.262799
aF0.17780699999999999
aF2.5925929999999999
aF2.5925929999999999
aF1.2840119999999999
aF0.790072
aF0.66900099999999996
aF0.56068799999999996
aF0.58331200000000005
aF0.36723
aF0.232156
aF0.218112
aF2.052667
aF2.5298219999999998
aF1.1427350000000001
aF0.98065400000000003
aF0.80233100000000002
aF0.61194400000000004
aF0.47928300000000001
aF0.33092100000000002
aF0.24906200000000001
aF0.24698300000000001
aF2.0951309999999999
aF2.5925929999999999
aF1.28
aF0.957619
aF0.63907599999999998
aF0.54836300000000004
aF0.59630499999999997
aF0.39122699999999999
aF0.28245500000000001
aF0.230874
aF2.5925929999999999
aF1.664855
aF0.76935100000000001
aF0.85701000000000005
aF0.62543599999999999
aF0.71713700000000002
aF0.45355699999999999
aF0.39245600000000003
aF0.24731300000000001
aF0.23364099999999999
aF1.964186
aF1.295099
aF1.0332209999999999
aF0.88302199999999997
aF0.673844
aF0.58274700000000001
aF0.48864299999999999
aF0.339727
aF0.27030700000000002
aF0.233658
aF1.472756
aF1.900658
aF1.3608279999999999
aF0.84975100000000003
aF0.65041000000000004
aF0.43119299999999999
aF0.49608099999999999
aF0.36018
aF0.31684899999999999
aF0.22084200000000001
aF1.8412790000000001
aF2.1875
aF1.2830010000000001
aF1.0182340000000001
aF0.68029899999999999
aF0.72148699999999999
aF0.504
aF0.38064799999999999
aF0.26639099999999999
aF0.23209299999999999
aF2.5925929999999999
aF2.6997460000000002
aF1.1427350000000001
aF0.73357099999999997
aF0.64938399999999996
aF0.49965100000000001
aF0.50809899999999997
aF0.415574
aF0.28381099999999998
aF0.24688299999999999
aF1.506367
aF2.03125
aF1.204928
aF0.95227899999999999
aF0.73905299999999996
aF0.67742400000000003
aF0.46499200000000002
aF0.340978
aF0.23682300000000001
aF0.157134
aF2.5298219999999998
aF1.024195
aF1.029687
aF0.80204200000000003
aF0.58643699999999999
aF0.57273200000000002
aF0.449013
aF0.306008
aF0.25375999999999999
aF0.185082
aF2.4056259999999998
aF2.5298219999999998
aF1.2469589999999999
aF0.65548499999999998
aF0.548628
aF0.55866499999999997
aF0.28815099999999999
aF0.33105099999999998
aF0.23600299999999999
aF0.18032699999999999
aF2.0951309999999999
aF2.237724
aF1.106797
aF0.52800499999999995
aF0.58553999999999995
aF0.49406699999999998
aF0.50450700000000004
aF0.30149599999999999
aF0.25390600000000002
aF0.18082699999999999
aF1.7010350000000001
aF2.5298219999999998
aF0.81859599999999999
aF0.86222900000000002
aF0.55661499999999997
aF0.667014
aF0.36543599999999998
aF0.37033500000000003
aF0.19808500000000001
aF0.168762
aF2.5298219999999998
aF2.5298219999999998
aF1.2469589999999999
aF0.85600799999999999
aF0.69788899999999998
aF0.65511399999999997
aF0.46471400000000002
aF0.34335399999999999
aF0.218526
aF0.17932300000000001
aF2.6997460000000002
aF2.6997460000000002
aF0.98058100000000004
aF0.93917700000000004
aF0.69161799999999996
aF0.48652400000000001
aF0.52048000000000005
aF0.33735700000000002
aF0.21581500000000001
aF0.193906
aF2.237724
aF2.6516500000000001
aF1.350873
aF1.018519
aF0.67055399999999998
aF0.51361100000000004
aF0.49744300000000002
aF0.33329799999999998
aF0.23422699999999999
aF0.174204
aF1.381068
aF1.875
aF1.3094570000000001
aF0.59999999999999998
aF0.61053999999999997
aF0.59255899999999995
aF0.51226300000000002
aF0.32511099999999998
aF0.23329900000000001
aF0.18348100000000001
aF2.6516500000000001
aF1.5823100000000001
aF0.78125
aF0.92208400000000001
aF0.65548499999999998
aF0.62528799999999995
aF0.51498999999999995
aF0.326459
aF0.204767
aF0.18882399999999999
aF1.6594439999999999
aF2.4669110000000001
aF0.98540399999999995
aF0.64202499999999996
aF0.61468900000000004
aF0.55950299999999997
aF0.53906900000000002
aF0.376301
aF0.269345
aF0.23022200000000001
aF2.3468089999999999
aF1.506367
aF1.185854
aF0.62431599999999998
aF0.77751300000000001
aF0.63171999999999995
aF0.53871100000000005
aF0.30747600000000003
aF0.31519200000000003
aF0.20421900000000001
aF2.0124610000000001
aF1.176785
aF0.95276799999999995
aF0.74038199999999998
aF0.82230400000000003
aF0.55950299999999997
aF0.530501
aF0.27049099999999998
aF0.264546
aF0.20563600000000001
aF0.87757200000000002
aF2.1400199999999998
aF1.278019
aF0.78388400000000003
aF0.66007400000000005
aF0.67806699999999998
aF0.41619400000000001
aF0.34427099999999999
aF0.27820299999999998
aF0.24493400000000001
aF1.870439
aF2.1400199999999998
aF1.278019
aF0.88080700000000001
aF0.85115099999999999
aF0.57865800000000001
aF0.51419300000000001
aF0.37225200000000003
aF0.26584000000000002
aF0.222053
aF2.0124610000000001
aF1.9319219999999999
aF1.3608279999999999
aF0.90556199999999998
aF0.57270299999999996
aF0.64594099999999999
aF0.63
aF0.349887
aF0.27565499999999998
aF0.21428
aF1.8400000000000001
aF2.0951309999999999
aF1.082532
aF0.87778400000000001
aF0.65057799999999999
aF0.64036999999999999
aF0.53735100000000002
aF0.34831899999999999
aF0.32141199999999998
aF0.21693599999999999
aF2.1875
aF2.2908110000000002
aF1.1218410000000001
aF0.830098
aF0.59262800000000004
aF0.64407499999999995
aF0.53666199999999997
aF0.36091800000000002
aF0.27316099999999999
aF0.20285900000000001
aF1.997352
aF1.8518520000000001
aF1.31877
aF0.91991400000000001
aF0.65039100000000005
aF0.62271699999999996
aF0.47217300000000001
aF0.39520899999999998
aF0.26808900000000002
aF0.24179600000000001
aF2.5925929999999999
aF1.997352
aF1.105672
aF1.008815
aF0.69678600000000002
aF0.59150999999999998
aF0.53778499999999996
aF0.356686
aF0.26494699999999999
aF0.21681300000000001
aF2.4056259999999998
aF1.813169
aF0.94883399999999996
aF0.68041399999999996
aF0.82817300000000005
aF0.48916500000000002
aF0.37979099999999999
aF0.322324
aF0.23940500000000001
aF0.185669
aF1.7106669999999999
aF1.8412790000000001
aF0.92994699999999997
aF0.55765699999999996
aF0.57133599999999996
aF0.52269900000000002
aF0.43641200000000002
aF0.233154
aF0.239148
aF0.18518299999999999
aF2.5925929999999999
aF1.909009
aF1.022391
aF0.72036
aF0.65053799999999995
aF0.54912899999999998
aF0.47995500000000002
aF0.36139700000000002
aF0.249447
aF0.16476399999999999
aF1.2380059999999999
aF1.52
aF1.1108039999999999
aF0.78804099999999999
aF0.54610400000000003
aF0.52569200000000005
aF0.41809099999999999
aF0.321905
aF0.18046000000000001
aF0.145091
aF1.7010350000000001
aF2.6997460000000002
aF1.278019
aF0.92661199999999999
aF0.56155600000000006
aF0.61846400000000001
aF0.44400200000000001
aF0.297927
aF0.25668200000000002
aF0.18568000000000001
aF1.900658
aF1.506367
aF0.90210999999999997
aF0.906721
aF0.671408
aF0.42764000000000002
aF0.47727599999999998
aF0.32880500000000001
aF0.24593599999999999
aF0.173208
aF2.5298219999999998
aF1.4484300000000001
aF0.906779
aF0.94434600000000002
aF0.63176399999999999
aF0.55764499999999995
aF0.59694700000000001
aF0.22468299999999999
aF0.18188699999999999
aF0.16811599999999999
aF2.0951309999999999
aF2.1875
aF1.0284789999999999
aF0.92755399999999999
aF0.459899
aF0.52094200000000002
aF0.48642299999999999
aF0.33041799999999999
aF0.21856500000000001
aF0.22892499999999999
aF2.5925929999999999
aF2.1334620000000002
aF1.266019
aF0.914188
aF0.68226900000000001
aF0.56999999999999995
aF0.44276900000000002
aF0.29713699999999998
aF0.24177000000000001
aF0.17696100000000001
aF2.1875
aF2.5298219999999998
aF1.2840119999999999
aF0.89082899999999998
aF0.74708799999999997
aF0.54126600000000002
aF0.40158500000000003
aF0.34239999999999998
aF0.26057200000000003
aF0.176455
aF1.6799999999999999
aF1.5643039999999999
aF1.185854
aF0.74671200000000004
aF0.61926599999999998
aF0.54220500000000005
aF0.525223
aF0.30873699999999998
aF0.26603900000000003
aF0.23768500000000001
aF2.4669110000000001
aF2.2908110000000002
aF1.207363
aF0.69127099999999997
aF0.54797600000000002
aF0.66197799999999996
aF0.58004900000000004
aF0.40855799999999998
aF0.27087899999999998
aF0.22125500000000001
aF2.5298219999999998
aF2.5298219999999998
aF1.082532
aF0.98821199999999998
aF0.59483399999999997
aF0.53215400000000002
aF0.633579
aF0.34583700000000001
aF0.26381700000000002
aF0.23352400000000001
aF1.0293859999999999
aF1.6474599999999999
aF1.2317549999999999
aF1.0141849999999999
aF0.58154600000000001
aF0.55484800000000001
aF0.47616799999999998
aF0.40085900000000002
aF0.28469499999999998
aF0.22699900000000001
aF1.9319219999999999
aF2.052667
aF0.95703099999999997
aF0.79920400000000003
aF0.76930600000000005
aF0.54686199999999996
aF0.59398700000000004
aF0.38372699999999998
aF0.30867699999999998
aF0.22867299999999999
aF2.0951309999999999
aF1.600822
aF1.2253829999999999
aF0.88217999999999996
aF0.66696500000000003
aF0.63907599999999998
aF0.53805099999999995
aF0.32837300000000003
aF0.29298299999999999
aF0.223297
aF1.371521
aF2.4669110000000001
aF1.1496379999999999
aF1.008815
aF0.69337499999999996
aF0.57624600000000004
aF0.55484599999999995
aF0.38863799999999998
aF0.25541999999999998
aF0.216034
aF1.7443690000000001
aF1.687341
aF1.185854
aF0.72682100000000005
aF0.54069599999999995
aF0.58984899999999996
aF0.53871100000000005
aF0.36614999999999998
aF0.27354499999999998
aF0.20349400000000001
aF2.1650640000000001
aF2.5925929999999999
aF1.3446899999999999
aF0.64800599999999997
aF0.64202499999999996
aF0.35666999999999999
aF0.56340999999999997
aF0.31239099999999997
aF0.27148800000000001
aF0.249615
aF1.3362430000000001
aF2.6516500000000001
aF0.80599600000000005
aF0.71460500000000005
aF0.739564
aF0.713306
aF0.53778499999999996
aF0.28373700000000002
aF0.21376800000000001
aF0.207204
aF1.813169
aF2.0999099999999999
aF0.99296600000000002
aF0.80992399999999998
aF0.75562700000000005
aF0.44589200000000001
aF0.575712
aF0.32496900000000001
aF0.25251099999999999
aF0.20735999999999999
aF2.5298219999999998
aF1.477023
aF1.3094570000000001
aF0.90001799999999998
aF0.70929600000000004
aF0.62663100000000005
aF0.38322699999999998
aF0.30933899999999998
aF0.23606199999999999
aF0.22506300000000001
aF2.5298219999999998
aF2.2908110000000002
aF1.1314390000000001
aF0.66202799999999995
aF0.71130199999999999
aF0.48032399999999997
aF0.39011299999999999
aF0.30737799999999998
aF0.223855
aF0.20355000000000001
aF1.734874
aF2.0124610000000001
aF0.96157800000000004
aF0.82369400000000004
aF0.61265599999999998
aF0.48539900000000002
aF0.40844900000000001
aF0.30498199999999998
aF0.21020800000000001
aF0.173099
aF2.6997460000000002
aF2.5925929999999999
aF1.2806580000000001
aF0.93307499999999999
aF0.52143499999999998
aF0.58349600000000001
aF0.529895
aF0.36766100000000002
aF0.242396
aF0.18182599999999999
aF1.897367
aF2.2908110000000002
aF1.275776
aF0.83800600000000003
aF0.79991400000000001
aF0.63500100000000004
aF0.48544999999999999
aF0.30104999999999998
aF0.244616
aF0.17910899999999999
aF2.5298219999999998
aF2.4669110000000001
aF1.055016
aF0.70515700000000003
aF0.64814799999999995
aF0.54333699999999996
aF0.46000000000000002
aF0.32439400000000002
aF0.26315
aF0.19028800000000001
aF2.4056259999999998
aF2.6997460000000002
aF1.145405
aF0.83333299999999999
aF0.571407
aF0.47516399999999998
aF0.40777099999999999
aF0.30104999999999998
aF0.20333399999999999
aF0.187558
aF2.4669110000000001
aF2.6997460000000002
aF0.92208400000000001
aF0.85051699999999997
aF0.75159600000000004
aF0.48472399999999999
aF0.48835499999999998
aF0.30789100000000003
aF0.20230300000000001
aF0.170657
aF2.1400199999999998
aF2.5298219999999998
aF1.31877
aF0.53916399999999998
aF0.55441099999999999
aF0.44129400000000002
aF0.46183099999999999
aF0.31806899999999999
aF0.17901800000000001
aF0.167103
aF2.5298219999999998
aF2.237724
aF1.106797
aF0.80705199999999999
aF0.632961
aF0.47451900000000002
aF0.49995299999999998
aF0.36653200000000002
aF0.23891799999999999
aF0.183226
aF1.7010350000000001
aF1.964186
aF1.2469589999999999
aF0.65843600000000002
aF0.78022499999999995
aF0.54511500000000002
aF0.45131100000000002
aF0.29719000000000001
aF0.265399
aF0.19258800000000001
aF1.662612
aF1.7860860000000001
aF1.3416410000000001
aF0.58750000000000002
aF0.54015100000000005
aF0.54221799999999998
aF0.47516399999999998
aF0.30859300000000001
aF0.22828799999999999
aF0.16847400000000001
aF1.0366839999999999
aF1.371521
aF1.1496379999999999
aF0.82817300000000005
aF0.52000000000000002
aF0.46808899999999998
aF0.45264500000000002
aF0.27406599999999998
aF0.20144699999999999
aF0.20288100000000001
aF1.7443690000000001
aF2.1334620000000002
aF0.70870900000000003
aF0.81132899999999997
aF0.77337999999999996
aF0.575712
aF0.56850599999999996
aF0.34821999999999997
aF0.30542399999999997
aF0.21262400000000001
aF1.622241
aF1.938188
aF1.0182340000000001
aF1.0219400000000001
aF0.76878100000000005
aF0.48448099999999999
aF0.50570999999999999
aF0.36335499999999998
aF0.31742399999999998
aF0.23374800000000001
aF2.2908110000000002
aF1.900658
aF1.1574070000000001
aF0.9375
aF0.614375
aF0.452656
aF0.55764499999999995
aF0.37520999999999999
aF0.283049
aF0.20341799999999999
aF2.6516500000000001
aF2.5298219999999998
aF1.3608279999999999
aF0.92820100000000005
aF0.73978299999999997
aF0.59808099999999997
aF0.56865100000000002
aF0.32381199999999999
aF0.23774500000000001
aF0.22828599999999999
aF1.870439
aF2.0951309999999999
aF0.93503099999999995
aF0.90606399999999998
aF0.74671200000000004
aF0.65312599999999998
aF0.523262
aF0.39621099999999998
aF0.31578000000000001
aF0.24310599999999999
aF2.052667
aF2.6997460000000002
aF1.1370260000000001
aF0.87203900000000001
aF0.81132899999999997
aF0.58804199999999995
aF0.48800199999999999
aF0.386328
aF0.23349400000000001
aF0.22736500000000001
aF2.3468089999999999
aF1.9038269999999999
aF1.2823789999999999
aF0.96068100000000001
aF0.76767799999999997
aF0.602101
aF0.61053999999999997
aF0.35728399999999999
aF0.27247399999999999
aF0.23047599999999999
aF1.0399020000000001
aF2.5925929999999999
aF0.885907
aF0.73438499999999995
aF0.81132899999999997
aF0.52559800000000001
aF0.61662499999999998
aF0.29594900000000002
aF0.26678299999999999
aF0.19933899999999999
aF2.0951309999999999
aF2.6997460000000002
aF1.005171
aF0.680307
aF0.69130100000000005
aF0.59902
aF0.56399299999999997
aF0.32006800000000002
aF0.246032
aF0.206652
aF1.026092
aF1.5467960000000001
aF0.53893400000000002
aF0.96097699999999997
aF0.68962999999999997
aF0.70029699999999995
aF0.59536199999999995
aF0.30806099999999997
aF0.287856
aF0.23774500000000001
aF1.924501
aF2.5925929999999999
aF1.3325549999999999
aF0.80078099999999997
aF0.62359100000000001
aF0.58698799999999995
aF0.54246799999999995
aF0.324048
aF0.28398099999999998
aF0.208923
aF1.8412790000000001
aF1.7819449999999999
aF1.109936
aF0.98186600000000002
aF0.608155
aF0.60633000000000004
aF0.50284899999999999
aF0.38331900000000002
aF0.26882800000000001
aF0.23075799999999999
aF1.893459
aF2.237724
aF0.97372899999999996
aF1.008815
aF0.740564
aF0.57727399999999995
aF0.50232699999999997
aF0.34895300000000001
aF0.27936499999999997
aF0.25350899999999998
aF1.425556
aF1.964186
aF1.275776
aF1.0284610000000001
aF0.54948900000000001
aF0.53027999999999997
aF0.43887799999999999
as.